+[UITableView(crashProtect) initialize]
___39+[UITableView(crashProtect) initialize]_block_invoke
_SwizzleMethod
+[LynxUI(BDXLynx) load]
+[NSObject(BTDAdditions) btd_swizzleInstanceMethod:with:]
+[_AFURLSessionTaskSwizzling load]
+[_AFURLSessionTaskSwizzling swizzleResumeAndSuspendMethodForClass:]
_af_addMethod
_af_swizzleSelector
+[AnimatedTabLoadUtil load]
_$s14AnimatedTabBar0A16TabbarSwizzleKitC15swizzledIfNeeedyyFZTo
_$s14AnimatedTabBar0A16TabbarSwizzleKitC15swizzledIfNeeedyyFZ
_$sSo20UIUserInterfaceIdiomVMa
_$sSo20UIUserInterfaceIdiomVABSYSCWl
_$sSo20UIUserInterfaceIdiomVSYSCSY8rawValue03RawE0QzvgTW
_$sSo20UIUserInterfaceIdiomV8rawValueSivg
+[BDUGLoggerImpl load]
+[BDUGContainer sharedInstance]
___31+[BDUGContainer sharedInstance]_block_invoke
-[BDUGContainer init]
-[BDUGContainer setClass:forProtocol:]
+[BDUGContainer stringKeyForProtocol:]
-[BDUGContainer codeForKey:]
-[BDUGContainer codes]
-[BDUGContainer setCode:forKey:]
+[BDXLynxInput load]
+[BDXExpandLynxInput load]
+[BDXLynxSwiperItem load]
+[BDXExpandLynxSwiperItem load]
+[BDXLynxUISwiper load]
+[BDXExpandLynxSwiperView load]
+[BDXLynxTextArea load]
+[BDXExpandLynxTextArea load]
+[BDXLynxUIPicker load]
+[BDXExpandLynxUIPicker load]
+[BTJsToNativeBridge load]
_RCTRegisterModule
___RCTRegisterModule_block_invoke
___RCTRegisterModule_block_invoke_2
+[BTNativeToJsBridge load]
+[RCTEventEmitter initialize]
_RCTClassOverridesInstanceMethod
+[RCTExceptionsManager load]
+[RCTImageEditingManager load]
+[RCTImageLoader load]
+[RCTImageStoreManager load]
+[RCTPlatform load]
+[EMAAppDelegate load]
+[EMAInteractExitHelper load]
+[EMAPluginMonitorCustomImpl load]
+[EMAPluginMonitorCustomImpl sharedPlugin]
___42+[EMAPluginMonitorCustomImpl sharedPlugin]_block_invoke
-[EMAPluginMonitorCustomImpl init]
-[EMAPluginMonitorCustomImpl setupObserver]
+[FLEXKeyboardShortcutManager load]
+[FLEXUtility swizzledSelectorForSelector:]
___copy_helper_block_e8_
+[FLEXUtility replaceImplementationOfKnownSelector:onClass:withBlock:swizzledSelector:]
+[FLEXManager load]
+[FLEXNetworkObserver load]
+[FLEXOSLogController load]
+[GTMSessionFetcher load]
+[GTMSessionUploadFetcher load]
+[GTMSessionUploadFetcher uploadFetchersForBackgroundSessions]
+[GTMSessionUploadFetcher uploadFetcherPointerArrayForBackgroundSessions]
___73+[GTMSessionUploadFetcher uploadFetcherPointerArrayForBackgroundSessions]_block_invoke
+[GTMSessionFetcher fetchersForBackgroundSessions]
+[GTMSessionFetcher fetcherUserDefaults]
___40+[GTMSessionFetcher fetcherUserDefaults]_block_invoke
+[GTMSessionFetcher sessionIdentifierToFetcherMap]
___50+[GTMSessionFetcher sessionIdentifierToFetcherMap]_block_invoke
+[HeimdallrUtilities load]
+[HeimdallrUtilities initialize]
+[HeimdallrUtilities initPath]
+[HMDLaunchTracingTracker load]
+[NSDate(HMDAccurate) hmd_accurateDate]
___39+[NSDate(HMDAccurate) hmd_accurateDate]_block_invoke
_HMD_upTime
+[HMDThreadBacktrace load]
_hmdthread_self
+[HMDZombieMonitor load]
+[HMDZombieMonitor initialize]
+[HMDZombieMonitor getZombieConfig]
+[HMDUserDefaults standardUserDefaults]
___39+[HMDUserDefaults standardUserDefaults]_block_invoke
-[HMDUserDefaults init]
-[HMDUserDefaults generateDirectoryURL]
+[HeimdallrUtilities heimdallrRootPath]
-[HMDUserDefaults generateDirectoryURLForBaseURL:]
-[HMDUserDefaults loadDefaults]
-[HMDUserDefaults synchronizationQueue]
___31-[HMDUserDefaults loadDefaults]_block_invoke
-[HMDUserDefaults objectForKey:]
-[HMDUserDefaults concurrentDictionaryQueue]
___32-[HMDUserDefaults objectForKey:]_block_invoke
-[NSDictionary(HMDSafe) hmd_boolForKey:]
-[NSDictionary(HMDSafe) hmd_safeObjectForKey:]
-[HMDZombieTrackerConfig setMonitorCFObj:]
+[HMDZombieMonitor hookDeallocMethod]
_CheckHookOC
_zombie_set_instance_imp
-[HMDZombieTrackerConfig monitorCFObj]
+[HMDZombieMonitor sharedInstance]
___34+[HMDZombieMonitor sharedInstance]_block_invoke
-[HMDZombieMonitor init]
-[HeimdallrModule init]
-[HMDZombieMonitor setIsMonitor:]
-[HMDZombieMonitor setCrashWhenDetectedZombie:]
-[HMDZombieMonitor setNeedMonitorCFObject:]
-[HMDZombieMonitor setHeadCache:]
-[HMDZombieMonitor setTailCache:]
-[HMDZombieMonitor setMonitorType:]
-[HMDZombieMonitor setCheckList:]
-[HMDZombieMonitor setCheckBacklist:]
_hmd_zombie_default_NonObjCRelease_names
___hmd_zombie_default_NonObjCRelease_names_block_invoke
-[HMDZombieMonitor checkBacklist]
_hmd_zombie_default_blocklist_names
___hmd_zombie_default_blocklist_names_block_invoke
-[HMDZombieMonitor setMaxCacheSize:]
-[HMDZombieMonitor setMaxCacheCount:]
-[HMDZombieMonitor startMonitor]
-[HMDZombieMonitor cacheZone]
-[HMDZombieMonitor setCacheZone:]
_zombieHookMethod
-[HMDZombieMonitor needMonitorCFObject]
-[NSObject(ZombieDetector) hmd_zombieDealloc]
-[HMDZombieMonitor shouldMonitor:]
-[HMDZombieMonitor checkList]
+[HMDZombieHandle deallocHandle:]
+[HMDZombieObject initialize]
-[HMDZombieMonitor cacheZombieObj:cfAllocator:]
-[HMDZombieMonitor isMonitor]
_isZombieClass
-[HMDZombieMonitor pushCache:]
-[HMDZombieMonitor headCache]
-[HMDZombieMonitor totalCacheSize]
-[HMDZombieMonitor setTotalCacheSize:]
-[HMDZombieMonitor totalCacheCount]
-[HMDZombieMonitor setTotalCacheCount:]
-[HMDZombieMonitor maxCacheSize]
-[HMDZombieMonitor maxCacheCount]
+[IESGurdAppLog load]
+[IESGurdAppLog sharedInstance]
___31+[IESGurdAppLog sharedInstance]_block_invoke
+[IESGurdKit setAppLogDelegate:]
+[IESGurdLogger setAppLogDelegate:]
+[IESGurdConfig load]
+[IESGurdKit setPlatformDomain:]
+[IESGurdKit sharedInstance]
___28+[IESGurdKit sharedInstance]_block_invoke
-[IESGurdKit setDomain:]
+[IESGurdInternalPackagesManager load]
+[JSONModel load]
___17+[JSONModel load]_block_invoke
-[JSONValueTransformer init]
+[CAContextHook load]
+[LKEncryptionTool decryptString:]
+[NSAttributedStringHookManager load]
+[LarkKeyCommandKitLoad load]
_$s17LarkKeyCommandKit0bcD0C15swizzledIfNeeedyyFZTo
_$s17LarkKeyCommandKit0bcD0C15swizzledIfNeeedyyFZ
+[LKOpenTrace load]
+[HMDOTBridge sharedInstance]
___29+[HMDOTBridge sharedInstance]_block_invoke
-[HMDOTBridge init]
-[HMDOTBridge enableTraceBinding:]
-[HMDOTBridge setEnableBinding:]
+[LarkTraitCollectionLoad load]
_$s19LarkTraitCollection04RootbC0C15swizzledIfNeeedyyFZTo
_$s19LarkTraitCollection04RootbC0C15swizzledIfNeeedyyFZ
_$s19LarkTraitCollection04RootbC0C26hadSwizzledResponderMethod33_F213C0514D4C2E0B40BE85CB790B2894LLSbvau
_globalinit_33_F213C0514D4C2E0B40BE85CB790B2894_func1
_$sSo16UIViewControllerC19LarkTraitCollectionE17ltc_swizzleMethodyyFZ
_$sSay10ObjectiveC8SelectorV_ACtGSayxGSTsWl
_$sSay10ObjectiveC8SelectorV_ACtGMa
_$s10ObjectiveC8SelectorV_ACtMa
_$s10ObjectiveC8SelectorVACs5Error_pIgyyzo_AC_ACtsAD_pIegnzo_TRTA
_$s10ObjectiveC8SelectorVACs5Error_pIgyyzo_AC_ACtsAD_pIegnzo_TR
_$sSo16UIViewControllerC19LarkTraitCollectionE17ltc_swizzleMethodyyFZy10ObjectiveC8SelectorV_AGt_tXEfU_TA
_$sSo16UIViewControllerC19LarkTraitCollectionE17ltc_swizzleMethodyyFZy10ObjectiveC8SelectorV_AGt_tXEfU_
_$sSo16UIViewControllerC19LarkTraitCollectionE13ltc_swizzling8forClass16originalSelector08swizzledK0yyXlXp_10ObjectiveC0K0VAJtFZ
+[LynxUIList load]
+[SwiftMallocDetector load]
+[RCTGIFImageDecoder load]
+[RCTViewManager load]
+[RCTImageViewManager load]
+[RCTLocalAssetImageLoader load]
+[RCTDataRequestHandler load]
+[RCTFileRequestHandler load]
+[RCTHTTPRequestHandler load]
+[RCTNetInfo load]
+[RCTNetworking load]
+[RCTAccessibilityManager load]
+[RCTActivityIndicatorViewManager load]
+[RCTAlertManager load]
+[RCTAppState load]
+[RCTAsyncLocalStorage load]
+[RCTClipboard load]
+[RCTDatePickerManager load]
+[RCTDeviceInfo load]
+[RCTDevLoadingView load]
+[RCTDevMenu load]
+[RCTDevMenu initialize]
_RCTSwapInstanceMethods
+[RCTDevSettings load]
+[RCTEventDispatcher load]
+[RCTI18nManager load]
+[RCTKeyboardObserver load]
+[RCTMaskedViewManager load]
+[RCTModalHostViewManager load]
+[RCTModalManager load]
+[RCTPerfMonitor load]
+[RCTPickerManager load]
+[RCTProgressViewManager load]
+[RCTRedBox load]
+[RCTRefreshControlManager load]
+[RCTSafeAreaViewManager load]
+[RCTScrollContentViewManager load]
+[RCTScrollViewManager load]
+[RCTSegmentedControlManager load]
+[RCTSliderManager load]
+[RCTSourceCode load]
+[RCTStatusBarManager load]
+[RCTSwitchManager load]
+[RCTTiming load]
+[RCTUIManager load]
+[RCTWebSocketExecutor load]
+[RCTWebSocketModule load]
+[BDPBootstrapKit load]
+[EEFeatureGating boolValueForKey:]
_handle_did_add_image
___handle_did_add_image_block_invoke
_bootstap_names_in_section_data
-[HMDZombieMonitor tailCache]
_bootstrap_execute
+[UIViewController(TMATrack) bootstrapLoad]
___43+[UIViewController(TMATrack) bootstrapLoad]_block_invoke
+[UITextField(BDPExtension) bootstrapLoad]
___42+[UITextField(BDPExtension) bootstrapLoad]_block_invoke
+[EMAPluginUser bootstrapLoad]
+[BDPPluginRouterImpl bootstrapLoad]
+[BDPTimorClient sharedClient]
___30+[BDPTimorClient sharedClient]_block_invoke
-[BDPTimorClient __init]
+[BDPRuntimeGlobalConfiguration defaultConfiguration]
-[BDPRuntimeGlobalConfiguration init]
-[BDPScopeConfig init]
-[JSONModel init]
-[JSONModel __setup__]
-[JSONModel __inspectProperties]
-[JSONModelClassProperty setName:]
-[JSONModelClassProperty setType:]
-[JSONModelClassProperty setIsMutable:]
-[JSONModelClassProperty type]
-[JSONModelClassProperty setIsStandardJSONType:]
+[JSONModel propertyIsOptional:]
+[JSONModel propertyIsIgnored:]
+[JSONModel classForCollectionProperty:]
+[JSONModel protocolForArrayProperty:]
-[JSONModelClassProperty name]
-[JSONModelClassProperty setCustomSetters:]
+[JSONValueTransformer classByResolvingClusterClasses:]
-[JSONModelClassProperty customSetters]
+[JSONModel keyMapper]
-[NSDictionary(BDPExtension) bdp_stringValueForKey:]
-[NSDictionary(BDPExtension) stringValueForKey:defaultValue:]
+[BDPAppearanceConfiguration defaultConfiguration]
-[BDPAppearanceConfiguration init]
+[UIColor(BDPExtension) colorWithHexString:]
+[UIColor(BDPExtension) colorWithString:]
-[NSObject(FBKVOController) KVOController]
+[FBKVOController controllerWithObserver:]
-[FBKVOController initWithObserver:]
-[FBKVOController initWithObserver:retainObserved:]
-[NSObject(FBKVOController) setKVOController:]
-[FBKVOController observe:keyPath:options:action:]
-[_FBKVOInfo initWithController:keyPath:options:action:]
-[_FBKVOInfo initWithController:keyPath:options:block:action:context:]
-[FBKVOController _observe:info:]
-[_FBKVOInfo hash]
+[_FBKVOSharedController sharedController]
___42+[_FBKVOSharedController sharedController]_block_invoke
-[_FBKVOSharedController init]
-[_FBKVOSharedController observe:info:]
-[BDPTimorClient(RuntimeEnvironment) currentNativeGlobalConfiguration]
-[BDPRuntimeGlobalConfiguration setShouldNotUpdateSettingsData:]
-[BDPRuntimeGlobalConfiguration setShouldNotUpdateJSSDK:]
+[TTRoute registerRouteEntry:withObjClass:]
+[TTRoute routeTables]
___22+[TTRoute routeTables]_block_invoke
+[TMAPluginCustomImplRegister bootstrapLoad]
-[BDPTimorClient setActionSheetPlugin:]
-[BDPTimorClient setAlertPlugin:]
-[BDPTimorClient setApplicationPlugin:]
-[BDPTimorClient setAudioPlugin:]
-[BDPTimorClient setAuthorizationPlugin:]
-[BDPTimorClient setCustomResponderPlugin:]
-[BDPTimorClient setMorePanelPlugin:]
-[BDPTimorClient setFileSystemPlugin:]
-[BDPTimorClient setImagePlugin:]
-[BDPTimorClient setLifeCyclePlugin:]
-[BDPTimorClient setLocationPlugin:]
-[BDPTimorClient setLogPlugin:]
-[BDPTimorClient setModalPlugin:]
-[BDPTimorClient setMonitorPlugin:]
-[BDPTimorClient setNavigationPlugin:]
-[BDPTimorClient setNetworkPlugin:]
-[BDPTimorClient setPickerPlugin:]
-[BDPTimorClient setRouterPlugin:]
-[BDPTimorClient setScanCodePlugin:]
-[BDPTimorClient setSharePlugin:]
-[BDPTimorClient setToastPlugin:]
-[BDPTimorClient setToolBarPlugin:]
-[BDPTimorClient setTrackerPlugin:]
-[BDPTimorClient setUserPlugin:]
-[BDPTimorClient setVideoPlugin:]
-[BDPTimorClient setWebviewPlugin:]
-[BDPTimorClient setTextareaPlugin:]
-[BDPTimorClient setApiPlugin:]
+[BDPTimorClient bootstrapLoad]
+[BDPEngineAssembly load]
+[BDPEngineAssembly registerModulesForNativeAndH5App]
+[BDPModuleManager moduleManagerOfType:]
+[BDPModuleManager sharedManagers]
___34+[BDPModuleManager sharedManagers]_block_invoke
-[BDPModuleManager initWithType:]
-[BDPModuleManager setType:]
___53+[BDPEngineAssembly registerModulesForNativeAndH5App]_block_invoke
-[BDPModuleManager registerModuleWithProtocol:class:]
-[BDPModuleManager registerModuleWithProtocol:class:handler:]
-[BDPModuleManager type]
+[BDPModuleManager nameForType:]
-[BDPModuleManager module]
-[JSObjectionModule init]
-[JSObjectionModule bindBlock:toProtocol:inScope:named:]
-[JSObjectionModule protocolKey:withName:]
-[JSObjectionProviderEntry initWithBlock:lifeCycle:]
___copy_helper_block_e8_32b40w
+[BDPEngineAssembly registerModulesForWebApp]
+[BDPEngineAssembly registerModulesForCard]
+[BDPEngineAssembly registerModulesForBlock]
+[TTNetworkHTTPErrorCodeMapper load]
+[TTNetworkHTTPErrorCodeMapper setupMapperIfNeeded]
+[YYTextKeyboardManager load]
+[AVAudioSession(debuging) load]
_$sSo14AVAudioSessionC05AudioB8ScenarioE8swizzledyyFZTo
_$sSo14AVAudioSessionC05AudioB8ScenarioE8swizzledyyFZ
_$sSo14AVAudioSessionC05AudioB8ScenarioE12swizzleBolckSbvau
_globalinit_028_59BD70F1D80104D92A4CBD0F0C9E3CEC_func24
_$sSo14AVAudioSessionC05AudioB8ScenarioE12swizzleBolckSbvpZfiSbyXEfU_
_$sSo14AVAudioSessionCMa
_$s20AudioSessionScenario21swizzleInstanceMethod_4from2toyyXlXp_10ObjectiveC8SelectorVAGtF
_$s20AudioSessionScenario14_swizzleMethod33_78B20F6BE1B9A7FFD6116E6C98C2D931LL_4from2to07isClassE0yyXlXp_10ObjectiveC8SelectorVAISbtF
_block_copy_helper
_$sSo14AVAudioSessionC05AudioB8ScenarioE8swizzledyyFZyycfU_TA
_$sSo14AVAudioSessionC05AudioB8ScenarioE8swizzledyyFZyycfU_
_$sSo14AVAudioSessionC05AudioB8ScenarioE6logger16LKCommonsLogging3Log_pvau
_globalinit_33_6ED876F70AD44014E1E66AA2F4475A17_func34
+[BDTuringConfig(HostCN) load]
___30+[BDTuringConfig(HostCN) load]_block_invoke
_$s16LKCommonsLogging6LoggerCMa
_$s16LKCommonsLogging6LoggerC3log_8categoryAA3Log_pyp_SStFZ
_$s16LKCommonsLogging6LoggerC12factoryStore33_33BD1069B958C68DCE1CC326C5FC7CA3LLAA010LogFactoryE0Cvau
_globalinit_33_33BD1069B958C68DCE1CC326C5FC7CA3_func1
_$s16LKCommonsLogging15LogFactoryStoreCMa
_$s16LKCommonsLogging17defalutLogFactory33_33BD1069B958C68DCE1CC326C5FC7CA3LLyAA0D0_pyp_SStcvau
_globalinit_33_33BD1069B958C68DCE1CC326C5FC7CA3_func0
_$s16LKCommonsLogging15LogFactoryStoreCyAcA0C0_pyp_SStccfC
_$s16LKCommonsLogging15LogFactoryStoreCyAcA0C0_pyp_SStccfc
+[BDTuringSettings(Default) registerDefaultSettingBlock:forKey:]
+[BDTuringSettings(Default) defaultSettings]
___44+[BDTuringSettings(Default) defaultSettings]_block_invoke
+[BDTuringConfig(HostVA) load]
___30+[BDTuringConfig(HostVA) load]_block_invoke
+[UIView(BTDAdditions) load]
___28+[UIView(BTDAdditions) load]_block_invoke
+[NSString(EMAAddition) load]
_$sSo21OS_dispatch_semaphoreCMa
_$s16LKCommonsLogging15LogFactoryStoreC04findcD03forAA0C0_pyp_SStcSS_tF
+[UITabBarController(VideoViewRotation) load]
+[UIViewController(Hook) load]
___30+[UIViewController(Hook) load]_block_invoke
_$sSo16UIViewControllerC11EENavigatorE13swizzleMethodyyFZTo
_$sSo16UIViewControllerC11EENavigatorE13swizzleMethodyyFZ
_$s11EENavigator9swizzling8forClass16originalSelector08swizzledF0yyXlXp_10ObjectiveC0F0VAHtF
_$sSaySSGSayxGSKsWl
+[UIViewController(Present) methodSiwzzling:origin:replacement:]
_$sSaySSGSayxGSmsWl
_$s16LKCommonsLogging17defalutLogFactory33_33BD1069B958C68DCE1CC326C5FC7CA3LLyAA0D0_pyp_SStcvpfiAaD_pyp_SStcfU_
_$s16LKCommonsLogging13SimpleFactoryV9createLog_8categoryAA0F0_pyp_SStFZ
_$s16LKCommonsLogging13SimpleFactoryV9semaphoreSo012OS_dispatch_E0Cvau
_globalinit_33_CE3CA8F557AD6E220C15281EF478E46D_func11
_$s16LKCommonsLogging13SimpleFactoryV7proxiesSDySSAA0B5ProxyCGvau
_globalinit_33_CE3CA8F557AD6E220C15281EF478E46D_func10
_$s16LKCommonsLogging0B5ProxyCMa
+[UIViewController(TroubleKillerHook) load]
___43+[UIViewController(TroubleKillerHook) load]_block_invoke
_$sypWOc
_$s16LKCommonsLogging0B5ProxyC_8categoryACyp_SStcfC
_$s16LKCommonsLogging0B5ProxyC_8categoryACyp_SStcfc
_$s16LKCommonsLogging3Log_pSgWOb
_$sSo16UIViewControllerC15EETroubleKillerE07troubleD13SwizzleMethodyyFZTo
_$sSo16UIViewControllerC15EETroubleKillerE07troubleD13SwizzleMethodyyFZ
_$s15EETroubleKiller9swizzling33_C6EF25F2575F1C53494622359245BEE1LL8forClass16originalSelector08swizzledM0yyXlXp_10ObjectiveC0M0VAItF
+[AVAudioPlayer(crashProtect) load]
+[AVAudioSession(crashProtect) load]
+[CALayer(crashProtect) load]
+[NSObject(SwiftKVO_CRASH) load]
+[NSObject(WKBackGroundCrash) load]
_$sSo6NSLockCMa
_$sSo6NSLockCABycfC
_$sSo6NSLockCABycfcTO
+[UIApplication(crash) load]
+[NSObject(WebSafe) load]
+[UIView(pushCrash) load]
+[UINavigationController(pushCrash) load]
+[UIScrollView(crash) load]
+[UIView(crash) load]
_$s16LKCommonsLogging3LogPAAE4info_3tag14additionalData5error4file8function4lineySS_SSSDyS2SGSgs5Error_pSgS2SSitF
_$sSi16LKCommonsLoggingE4infoSivau
_globalinit_33_A52CB5FFDA25817244A814AAFB3994E5_func6
+[UIApplication(LarkBackgroundTaskMonitor) load]
___48+[UIApplication(LarkBackgroundTaskMonitor) load]_block_invoke
_$sSo8NSThreadCMa
_$sSo8NSThreadC16LKCommonsLoggingE7logInfoSSvgZ
_$sSo13UIApplicationC11LarkMonitorE13swizzleMethodyyFZTo
_$s16LKCommonsLogging8LogEventV5logId4time5level4tags7message6thread4file8function4line5error14additionalData6paramsACSS_SdSiSaySSGS4SSis5Error_pSgSDyS2SGSgATtcfC
_$sSo13UIApplicationC11LarkMonitorE13swizzleMethodyyFZ
_$s16LKCommonsLogging0B5ProxyCAA3LogA2aDP3log5eventyAA0D5EventV_tFTW
_$s16LKCommonsLogging0B5ProxyC3log5eventyAA8LogEventV_tF
_$s16LKCommonsLogging3Log_pSgWOc
_$s16LKCommonsLogging3Log_pSgWOh
_$s16LKCommonsLogging0B5ProxyC9simpleLog5eventyAA0E5EventV_tF
_$s16LKCommonsLogging0B5ProxyC8logQueueSo17OS_dispatch_queueCvau
_globalinit_33_43484D7EF0C85E68D31666E42BEDC970_func3
_$sSo13UIApplicationCMa
_$s11LarkMonitor9swizzling8forClass16originalSelector08swizzledG0yyXlXp_10ObjectiveC0G0VAHtF
+[UIApplication(actionLog) load]
___32+[UIApplication(actionLog) load]_block_invoke
+[UIApplication(actionLog) swizzleSEL:withSEL:]
_$s16LKCommonsLogging8LogEventVWOr
_$s16LKCommonsLogging8LogEventVMa
_$s11LarkMonitor0A9UITrackerC12startTrackUIyyFZTo
_$s11LarkMonitor0A9UITrackerC12startTrackUIyyFZ
_$s11LarkMonitor0A9UITrackerCMa
_$s11LarkMonitor0A9UITrackerC6sharedACvau
_globalinit_33_CB499DE1B5608296C8AA0A19650B4025_func16
_$s11LarkMonitor0A9UITrackerCACycfC
_$s11LarkMonitor0A9UITrackerCACycfcTo
_$s11LarkMonitor0A9UITrackerCACycfc
_$s7RxSwift10DisposeBagCMa
_block_destroy_helper
_$s7RxSwift10DisposeBagCACycfC
_$s7RxSwift10DisposeBagCACycfc
_$sSo15NSRecursiveLockCMa
_$sSo15NSRecursiveLockCABycfC
_$sSo15NSRecursiveLockCABycfcTO
_$s7RxSwift11DisposeBaseCACycfc
_$s11LarkMonitor0A9UITrackerC25observeMenuViewController33_CB499DE1B5608296C8AA0A19650B4025LLyyF
_$s11LarkMonitor0A16LifeCycleTrackerC12startTrackUIyyFZTo
_$s11LarkMonitor0A16LifeCycleTrackerC12startTrackUIyyFZ
_$s11LarkMonitor0A16LifeCycleTrackerCMa
_$s11LarkMonitor0A16LifeCycleTrackerC6sharedACvau
_globalinit_33_D648E1B5FE44477C99453EBBF33715B7_func15
_$s11LarkMonitor0A16LifeCycleTrackerCACycfC
_$s11LarkMonitor0A16LifeCycleTrackerCACycfcTo
_$s11LarkMonitor0A16LifeCycleTrackerCACycfc
_$s11LarkMonitor0A16LifeCycleTrackerC25observeMenuViewController33_D648E1B5FE44477C99453EBBF33715B7LLyyF
+[UIView(LarkMainThreadCheck) load]
__Z27shouldEnableMainThreadCheckv
___35+[UIView(LarkMainThreadCheck) load]_block_invoke
+[UIView(LarkMainThreadCheck) methodSwizzlingFor:exchangingSelector:]
+[CALayer(LarkMainThreadCheck) load]
___36+[CALayer(LarkMainThreadCheck) load]_block_invoke
+[CALayer(LarkMainThreadCheck) methodSwizzlingFor:exchangingSelector:]
+[UIViewController(LifeLog) load]
___33+[UIViewController(LifeLog) load]_block_invoke
+[UIViewController(LifeLog) swizzleSEL:withSEL:]
+[UIViewController(LKSplitViewController) load]
___47+[UIViewController(LKSplitViewController) load]_block_invoke
_$sSo16UIViewControllerC013LarkSplitViewB0E07LKSpliteB13SwizzleMethodyyFZTo
_$sSo16UIViewControllerC013LarkSplitViewB0E07LKSpliteB13SwizzleMethodyyFZ
+[UIView(WaterMark) load]
_SiwzzlingViewClass
+[UIView(WaterMark) methodSiwzzling:origin:replacement:]
+[UIViewController(Present) load]
_SiwzzlingViewControllerClass
+[UIApplication(MemoryLeak) load]
___33+[UIApplication(MemoryLeak) load]_block_invoke
+[UINavigationController(MemoryLeak) load]
___42+[UINavigationController(MemoryLeak) load]_block_invoke
+[UITouch(MemoryLeak) load]
___27+[UITouch(MemoryLeak) load]_block_invoke
+[NSObject(MemoryLeak) swizzleSEL:withSEL:]
___43+[NSObject(MemoryLeak) swizzleSEL:withSEL:]_block_invoke
+[UIViewController(MemoryLeak) load]
___36+[UIViewController(MemoryLeak) load]_block_invoke
+[NSValueTransformer(MTLPredefinedTransformerAdditions) load]
+[MTLValueTransformer transformerUsingForwardBlock:reverseBlock:]
-[MTLReversibleValueTransformer initWithForwardBlock:reverseBlock:]
-[MTLValueTransformer initWithForwardBlock:reverseBlock:]
+[MTLValueTransformer transformerUsingReversibleBlock:]
+[RXObjCRuntime(swizzle_void) load]
+[RXObjCRuntime initialize]
-[RXObjCRuntime init]
-[RXObjCRuntime setClassesThatSupportObservingByForwarding:]
-[RXObjCRuntime setForwardedSelectorsByClass:]
-[RXObjCRuntime setDynamicSubclassByRealClass:]
-[RXObjCRuntime setInterceptorIMPbySelectorsByClass:]
+[RXObjCRuntime registerOptimizedObserver:encodedAs:]
_RX_method_encoding
+[RXObjCRuntime(swizzle_void_id) load]
+[RXObjCRuntime(swizzle_void_char) load]
+[RXObjCRuntime(swizzle_void_short) load]
+[RXObjCRuntime(swizzle_void_int) load]
+[RXObjCRuntime(swizzle_void_long) load]
+[RXObjCRuntime(swizzle_void_rx_uchar) load]
+[RXObjCRuntime(swizzle_void_rx_ushort) load]
+[RXObjCRuntime(swizzle_void_rx_uint) load]
+[RXObjCRuntime(swizzle_void_rx_ulong) load]
+[RXObjCRuntime(swizzle_void_rx_block) load]
+[RXObjCRuntime(swizzle_void_float) load]
+[RXObjCRuntime(swizzle_void_double) load]
+[RXObjCRuntime(swizzle_void_SEL) load]
+[RXObjCRuntime(swizzle_void_id_id) load]
+[RXObjCRuntime(swizzle_void_id_char) load]
+[RXObjCRuntime(swizzle_void_id_short) load]
+[RXObjCRuntime(swizzle_void_id_int) load]
+[RXObjCRuntime(swizzle_void_id_long) load]
+[RXObjCRuntime(swizzle_void_id_rx_uchar) load]
+[RXObjCRuntime(swizzle_void_id_rx_ushort) load]
+[RXObjCRuntime(swizzle_void_id_rx_uint) load]
+[RXObjCRuntime(swizzle_void_id_rx_ulong) load]
+[RXObjCRuntime(swizzle_void_id_rx_block) load]
+[RXObjCRuntime(swizzle_void_id_float) load]
+[RXObjCRuntime(swizzle_void_id_double) load]
+[RXObjCRuntime(swizzle_void_id_SEL) load]
+[UIView(Navigation) load]
+[UINavigationBar(Navigation) bdp_backgroundViewClassString]
+[NSString(BDPExtension) bdp_stringFromBase64String:]
+[NSObject(BDPSwizzle) bdp_swizzleClass:selector:swizzledClass:swizzledSelector:]
+[UIViewController(Navigation) load]
___36+[UIViewController(Navigation) load]_block_invoke
+[NSObject(BDPSwizzle) bdp_swizzleOriginInstanceMethod:withHookInstanceMethod:]
__ZN4lynx9starlight6LengthC1Ev
__ZNSt3__112basic_stringIcNS_11char_traitsIcEENS_9allocatorIcEEEC1IDnEEPKc
__ZNSt3__112basic_stringIcNS_11char_traitsIcEENS_9allocatorIcEEEC2IDnEEPKc
__ZNSt3__117__compressed_pairINS_12basic_stringIcNS_11char_traitsIcEENS_9allocatorIcEEE5__repES5_EC1INS_18__default_init_tagESA_EEOT_OT0_
__ZNSt3__117__compressed_pairINS_12basic_stringIcNS_11char_traitsIcEENS_9allocatorIcEEE5__repES5_EC2INS_18__default_init_tagESA_EEOT_OT0_
__ZNSt3__1L7forwardINS_18__default_init_tagEEEOT_RNS_16remove_referenceIS2_E4typeE
__ZNSt3__122__compressed_pair_elemINS_12basic_stringIcNS_11char_traitsIcEENS_9allocatorIcEEE5__repELi0ELb0EEC2ENS_18__default_init_tagE
__ZNSt3__122__compressed_pair_elemINS_9allocatorIcEELi1ELb1EEC2ENS_18__default_init_tagE
__ZNSt3__19allocatorIcEC2Ev
__ZNSt3__111char_traitsIcE6lengthEPKc
__ZN4lynx9starlight6LengthC1EfRKNSt3__112basic_stringIcNS2_11char_traitsIcEENS2_9allocatorIcEEEENS0_10LengthTypeE
__ZN4lynx9starlight6LengthC2EfRKNSt3__112basic_stringIcNS2_11char_traitsIcEENS2_9allocatorIcEEEENS0_10LengthTypeE
__ZNKSt3__112basic_stringIcNS_11char_traitsIcEENS_9allocatorIcEEE5emptyEv
__ZNKSt3__112basic_stringIcNS_11char_traitsIcEENS_9allocatorIcEEE4sizeEv
__ZNKSt3__112basic_stringIcNS_11char_traitsIcEENS_9allocatorIcEEE9__is_longEv
__ZNKSt3__117__compressed_pairINS_12basic_stringIcNS_11char_traitsIcEENS_9allocatorIcEEE5__repES5_E5firstEv
__ZNKSt3__122__compressed_pair_elemINS_12basic_stringIcNS_11char_traitsIcEENS_9allocatorIcEEE5__repELi0ELb0EE5__getEv
__ZNKSt3__112basic_stringIcNS_11char_traitsIcEENS_9allocatorIcEEE16__get_short_sizeEv
__ZN4lynx9starlight6LengthC1EfNS0_10LengthTypeE
__ZN4lynx9starlight6LengthC1Ef
_$s16LKCommonsLogging0B5ProxyC9simpleLog5eventyAA0E5EventV_tFyycfU_TA
_$s16LKCommonsLogging0B5ProxyC9simpleLog5eventyAA0E5EventV_tFyycfU_
__ZNSt3__113unordered_setINS_12basic_stringIcNS_11char_traitsIcEENS_9allocatorIcEEEENS_4hashIS6_EENS_8equal_toIS6_EENS4_IS6_EEEC2ESt16initializer_listIS6_E
__ZNSt3__112__hash_tableINS_12basic_stringIcNS_11char_traitsIcEENS_9allocatorIcEEEENS_4hashIS6_EENS_8equal_toIS6_EENS4_IS6_EEEC1Ev
__ZNSt3__112__hash_tableINS_12basic_stringIcNS_11char_traitsIcEENS_9allocatorIcEEEENS_4hashIS6_EENS_8equal_toIS6_EENS4_IS6_EEEC2Ev
__ZNSt3__110unique_ptrIA_PNS_16__hash_node_baseIPNS_11__hash_nodeINS_12basic_stringIcNS_11char_traitsIcEENS_9allocatorIcEEEEPvEEEENS_25__bucket_list_deallocatorINS6_ISD_EEEEEC1ILb1EvEEv
__ZNSt3__110unique_ptrIA_PNS_16__hash_node_baseIPNS_11__hash_nodeINS_12basic_stringIcNS_11char_traitsIcEENS_9allocatorIcEEEEPvEEEENS_25__bucket_list_deallocatorINS6_ISD_EEEEEC2ILb1EvEEv
__ZNSt3__117__compressed_pairIPPNS_16__hash_node_baseIPNS_11__hash_nodeINS_12basic_stringIcNS_11char_traitsIcEENS_9allocatorIcEEEEPvEEEENS_25__bucket_list_deallocatorINS6_ISD_EEEEEC1ISE_NS_18__default_init_tagEEEOT_OT0_
__ZNSt3__117__compressed_pairIPPNS_16__hash_node_baseIPNS_11__hash_nodeINS_12basic_stringIcNS_11char_traitsIcEENS_9allocatorIcEEEEPvEEEENS_25__bucket_list_deallocatorINS6_ISD_EEEEEC2ISE_NS_18__default_init_tagEEEOT_OT0_
__ZNSt3__1L7forwardIPPNS_16__hash_node_baseIPNS_11__hash_nodeINS_12basic_stringIcNS_11char_traitsIcEENS_9allocatorIcEEEEPvEEEEEEOT_RNS_16remove_referenceISF_E4typeE
__ZNSt3__122__compressed_pair_elemIPPNS_16__hash_node_baseIPNS_11__hash_nodeINS_12basic_stringIcNS_11char_traitsIcEENS_9allocatorIcEEEEPvEEEELi0ELb0EEC2ISE_vEEOT_
__ZNSt3__122__compressed_pair_elemINS_25__bucket_list_deallocatorINS_9allocatorIPNS_16__hash_node_baseIPNS_11__hash_nodeINS_12basic_stringIcNS_11char_traitsIcEENS2_IcEEEEPvEEEEEEEELi1ELb0EEC2ENS_18__default_init_tagE
__ZNSt3__125__bucket_list_deallocatorINS_9allocatorIPNS_16__hash_node_baseIPNS_11__hash_nodeINS_12basic_stringIcNS_11char_traitsIcEENS1_IcEEEEPvEEEEEEEC1Ev
__ZNSt3__125__bucket_list_deallocatorINS_9allocatorIPNS_16__hash_node_baseIPNS_11__hash_nodeINS_12basic_stringIcNS_11char_traitsIcEENS1_IcEEEEPvEEEEEEEC2Ev
__ZNSt3__117__compressed_pairImNS_9allocatorIPNS_16__hash_node_baseIPNS_11__hash_nodeINS_12basic_stringIcNS_11char_traitsIcEENS1_IcEEEEPvEEEEEEEC1IiNS_18__default_init_tagEEEOT_OT0_
__ZNSt3__117__compressed_pairImNS_9allocatorIPNS_16__hash_node_baseIPNS_11__hash_nodeINS_12basic_stringIcNS_11char_traitsIcEENS1_IcEEEEPvEEEEEEEC2IiNS_18__default_init_tagEEEOT_OT0_
__ZNSt3__1L7forwardIiEEOT_RNS_16remove_referenceIS1_E4typeE
__ZNSt3__122__compressed_pair_elemImLi0ELb0EEC2IivEEOT_
__ZNSt3__122__compressed_pair_elemINS_9allocatorIPNS_16__hash_node_baseIPNS_11__hash_nodeINS_12basic_stringIcNS_11char_traitsIcEENS1_IcEEEEPvEEEEEELi1ELb1EEC2ENS_18__default_init_tagE
__ZNSt3__19allocatorIPNS_16__hash_node_baseIPNS_11__hash_nodeINS_12basic_stringIcNS_11char_traitsIcEENS0_IcEEEEPvEEEEEC2Ev
__ZNSt3__117__compressed_pairINS_16__hash_node_baseIPNS_11__hash_nodeINS_12basic_stringIcNS_11char_traitsIcEENS_9allocatorIcEEEEPvEEEENS6_ISA_EEEC1ILb1EvEEv
__ZNSt3__117__compressed_pairINS_16__hash_node_baseIPNS_11__hash_nodeINS_12basic_stringIcNS_11char_traitsIcEENS_9allocatorIcEEEEPvEEEENS6_ISA_EEEC2ILb1EvEEv
__ZNSt3__122__compressed_pair_elemINS_16__hash_node_baseIPNS_11__hash_nodeINS_12basic_stringIcNS_11char_traitsIcEENS_9allocatorIcEEEEPvEEEELi0ELb0EEC2ENS_16__value_init_tagE
__ZNSt3__116__hash_node_baseIPNS_11__hash_nodeINS_12basic_stringIcNS_11char_traitsIcEENS_9allocatorIcEEEEPvEEEC1Ev
__ZNSt3__116__hash_node_baseIPNS_11__hash_nodeINS_12basic_stringIcNS_11char_traitsIcEENS_9allocatorIcEEEEPvEEEC2Ev
__ZNSt3__122__compressed_pair_elemINS_9allocatorINS_11__hash_nodeINS_12basic_stringIcNS_11char_traitsIcEENS1_IcEEEEPvEEEELi1ELb1EEC2ENS_16__value_init_tagE
__ZNSt3__19allocatorINS_11__hash_nodeINS_12basic_stringIcNS_11char_traitsIcEENS0_IcEEEEPvEEEC2Ev
__ZNSt3__117__compressed_pairImNS_4hashINS_12basic_stringIcNS_11char_traitsIcEENS_9allocatorIcEEEEEEEC1IiNS_18__default_init_tagEEEOT_OT0_
__ZNSt3__117__compressed_pairImNS_4hashINS_12basic_stringIcNS_11char_traitsIcEENS_9allocatorIcEEEEEEEC2IiNS_18__default_init_tagEEEOT_OT0_
__ZNSt3__122__compressed_pair_elemINS_4hashINS_12basic_stringIcNS_11char_traitsIcEENS_9allocatorIcEEEEEELi1ELb1EEC2ENS_18__default_init_tagE
__ZNSt3__117__compressed_pairIfNS_8equal_toINS_12basic_stringIcNS_11char_traitsIcEENS_9allocatorIcEEEEEEEC1IfNS_18__default_init_tagEEEOT_OT0_
__ZNSt3__117__compressed_pairIfNS_8equal_toINS_12basic_stringIcNS_11char_traitsIcEENS_9allocatorIcEEEEEEEC2IfNS_18__default_init_tagEEEOT_OT0_
__ZNSt3__1L7forwardIfEEOT_RNS_16remove_referenceIS1_E4typeE
__ZNSt3__122__compressed_pair_elemIfLi0ELb0EEC2IfvEEOT_
__ZNSt3__122__compressed_pair_elemINS_8equal_toINS_12basic_stringIcNS_11char_traitsIcEENS_9allocatorIcEEEEEELi1ELb1EEC2ENS_18__default_init_tagE
__ZNKSt16initializer_listINSt3__112basic_stringIcNS0_11char_traitsIcEENS0_9allocatorIcEEEEE5beginEv
__ZNKSt16initializer_listINSt3__112basic_stringIcNS0_11char_traitsIcEENS0_9allocatorIcEEEEE3endEv
__ZNSt3__113unordered_setINS_12basic_stringIcNS_11char_traitsIcEENS_9allocatorIcEEEENS_4hashIS6_EENS_8equal_toIS6_EENS4_IS6_EEE6insertIPKS6_EEvT_SG_
__ZNSt3__112__hash_tableINS_12basic_stringIcNS_11char_traitsIcEENS_9allocatorIcEEEENS_4hashIS6_EENS_8equal_toIS6_EENS4_IS6_EEE15__insert_uniqueERKS6_
__ZNSt3__122__hash_key_value_typesINS_12basic_stringIcNS_11char_traitsIcEENS_9allocatorIcEEEEE9__get_keyERKS6_
__ZNSt3__112__hash_tableINS_12basic_stringIcNS_11char_traitsIcEENS_9allocatorIcEEEENS_4hashIS6_EENS_8equal_toIS6_EENS4_IS6_EEE25__emplace_unique_key_argsIS6_JRKS6_EEENS_4pairINS_15__hash_iteratorIPNS_11__hash_nodeIS6_PvEEEEbEERKT_DpOT0_
__ZNSt3__112__hash_tableINS_12basic_stringIcNS_11char_traitsIcEENS_9allocatorIcEEEENS_4hashIS6_EENS_8equal_toIS6_EENS4_IS6_EEE13hash_functionEv
__ZNSt3__117__compressed_pairImNS_4hashINS_12basic_stringIcNS_11char_traitsIcEENS_9allocatorIcEEEEEEE6secondEv
__ZNSt3__122__compressed_pair_elemINS_4hashINS_12basic_stringIcNS_11char_traitsIcEENS_9allocatorIcEEEEEELi1ELb1EE5__getEv
__ZNKSt3__14hashINS_12basic_stringIcNS_11char_traitsIcEENS_9allocatorIcEEEEEclERKS6_
__ZNKSt3__112basic_stringIcNS_11char_traitsIcEENS_9allocatorIcEEE4dataEv
__ZNKSt3__112basic_stringIcNS_11char_traitsIcEENS_9allocatorIcEEE13__get_pointerEv
__ZNKSt3__112basic_stringIcNS_11char_traitsIcEENS_9allocatorIcEEE19__get_short_pointerEv
__ZNSt3__114pointer_traitsIPKcE10pointer_toERS1_
__ZNSt3__1L9addressofIKcEEPT_RS2_
__ZNSt3__1L12__to_addressIKcEEPT_S3_
__ZNSt3__1L16__do_string_hashIPKcEEmT_S3_
__ZNSt3__121__murmur2_or_cityhashImLm64EEclEPKvm
__ZNSt3__121__murmur2_or_cityhashImLm64EE18__hash_len_0_to_16EPKcm
__ZNSt3__1L10__loadwordImEET_PKv
__ZNSt3__121__murmur2_or_cityhashImLm64EE22__rotate_by_at_least_1Emi
__ZNSt3__121__murmur2_or_cityhashImLm64EE13__hash_len_16Emm
__ZNKSt3__112__hash_tableINS_12basic_stringIcNS_11char_traitsIcEENS_9allocatorIcEEEENS_4hashIS6_EENS_8equal_toIS6_EENS4_IS6_EEE12bucket_countEv
__ZNKSt3__110unique_ptrIA_PNS_16__hash_node_baseIPNS_11__hash_nodeINS_12basic_stringIcNS_11char_traitsIcEENS_9allocatorIcEEEEPvEEEENS_25__bucket_list_deallocatorINS6_ISD_EEEEE11get_deleterEv
__ZNKSt3__117__compressed_pairIPPNS_16__hash_node_baseIPNS_11__hash_nodeINS_12basic_stringIcNS_11char_traitsIcEENS_9allocatorIcEEEEPvEEEENS_25__bucket_list_deallocatorINS6_ISD_EEEEE6secondEv
__ZNKSt3__122__compressed_pair_elemINS_25__bucket_list_deallocatorINS_9allocatorIPNS_16__hash_node_baseIPNS_11__hash_nodeINS_12basic_stringIcNS_11char_traitsIcEENS2_IcEEEEPvEEEEEEEELi1ELb0EE5__getEv
__ZNKSt3__125__bucket_list_deallocatorINS_9allocatorIPNS_16__hash_node_baseIPNS_11__hash_nodeINS_12basic_stringIcNS_11char_traitsIcEENS1_IcEEEEPvEEEEEEE4sizeEv
__ZNKSt3__117__compressed_pairImNS_9allocatorIPNS_16__hash_node_baseIPNS_11__hash_nodeINS_12basic_stringIcNS_11char_traitsIcEENS1_IcEEEEPvEEEEEEE5firstEv
__ZNKSt3__122__compressed_pair_elemImLi0ELb0EE5__getEv
__ZNSt3__1L7forwardIRKNS_12basic_stringIcNS_11char_traitsIcEENS_9allocatorIcEEEEEEOT_RNS_16remove_referenceIS9_E4typeE
__ZNSt3__112__hash_tableINS_12basic_stringIcNS_11char_traitsIcEENS_9allocatorIcEEEENS_4hashIS6_EENS_8equal_toIS6_EENS4_IS6_EEE21__construct_node_hashIRKS6_JEEENS_10unique_ptrINS_11__hash_nodeIS6_PvEENS_22__hash_node_destructorINS4_ISJ_EEEEEEmOT_DpOT0_
__ZNSt3__112__hash_tableINS_12basic_stringIcNS_11char_traitsIcEENS_9allocatorIcEEEENS_4hashIS6_EENS_8equal_toIS6_EENS4_IS6_EEE12__node_allocEv
__ZNSt3__117__compressed_pairINS_16__hash_node_baseIPNS_11__hash_nodeINS_12basic_stringIcNS_11char_traitsIcEENS_9allocatorIcEEEEPvEEEENS6_ISA_EEE6secondEv
__ZNSt3__122__compressed_pair_elemINS_9allocatorINS_11__hash_nodeINS_12basic_stringIcNS_11char_traitsIcEENS1_IcEEEEPvEEEELi1ELb1EE5__getEv
__ZNSt3__116allocator_traitsINS_9allocatorINS_11__hash_nodeINS_12basic_stringIcNS_11char_traitsIcEENS1_IcEEEEPvEEEEE8allocateERSA_m
__ZNSt3__19allocatorINS_11__hash_nodeINS_12basic_stringIcNS_11char_traitsIcEENS0_IcEEEEPvEEE8allocateEmPKv
__ZNKSt3__19allocatorINS_11__hash_nodeINS_12basic_stringIcNS_11char_traitsIcEENS0_IcEEEEPvEEE8max_sizeEv
__ZNSt3__1L17__libcpp_allocateEmm
__ZNSt3__122__hash_node_destructorINS_9allocatorINS_11__hash_nodeINS_12basic_stringIcNS_11char_traitsIcEENS1_IcEEEEPvEEEEEC1ERSA_b
__ZNSt3__122__hash_node_destructorINS_9allocatorINS_11__hash_nodeINS_12basic_stringIcNS_11char_traitsIcEENS1_IcEEEEPvEEEEEC2ERSA_b
__ZNSt3__110unique_ptrINS_11__hash_nodeINS_12basic_stringIcNS_11char_traitsIcEENS_9allocatorIcEEEEPvEENS_22__hash_node_destructorINS5_IS9_EEEEEC1ILb1EvEEPS9_NS_16__dependent_typeINS_27__unique_ptr_deleter_sfinaeISC_EEXT_EE20__good_rval_ref_typeE
__ZNSt3__110unique_ptrINS_11__hash_nodeINS_12basic_stringIcNS_11char_traitsIcEENS_9allocatorIcEEEEPvEENS_22__hash_node_destructorINS5_IS9_EEEEEC2ILb1EvEEPS9_NS_16__dependent_typeINS_27__unique_ptr_deleter_sfinaeISC_EEXT_EE20__good_rval_ref_typeE
__ZNSt3__1L4moveIRNS_22__hash_node_destructorINS_9allocatorINS_11__hash_nodeINS_12basic_stringIcNS_11char_traitsIcEENS2_IcEEEEPvEEEEEEEEONS_16remove_referenceIT_E4typeEOSF_
__ZNSt3__117__compressed_pairIPNS_11__hash_nodeINS_12basic_stringIcNS_11char_traitsIcEENS_9allocatorIcEEEEPvEENS_22__hash_node_destructorINS5_IS9_EEEEEC1IRSA_SD_EEOT_OT0_
__ZNSt3__117__compressed_pairIPNS_11__hash_nodeINS_12basic_stringIcNS_11char_traitsIcEENS_9allocatorIcEEEEPvEENS_22__hash_node_destructorINS5_IS9_EEEEEC2IRSA_SD_EEOT_OT0_
__ZNSt3__1L7forwardIRPNS_11__hash_nodeINS_12basic_stringIcNS_11char_traitsIcEENS_9allocatorIcEEEEPvEEEEOT_RNS_16remove_referenceISC_E4typeE
__ZNSt3__122__compressed_pair_elemIPNS_11__hash_nodeINS_12basic_stringIcNS_11char_traitsIcEENS_9allocatorIcEEEEPvEELi0ELb0EEC2IRSA_vEEOT_
__ZNSt3__1L7forwardINS_22__hash_node_destructorINS_9allocatorINS_11__hash_nodeINS_12basic_stringIcNS_11char_traitsIcEENS2_IcEEEEPvEEEEEEEEOT_RNS_16remove_referenceISD_E4typeE
__ZNSt3__122__compressed_pair_elemINS_22__hash_node_destructorINS_9allocatorINS_11__hash_nodeINS_12basic_stringIcNS_11char_traitsIcEENS2_IcEEEEPvEEEEEELi1ELb0EEC2ISC_vEEOT_
__ZNKSt3__110unique_ptrINS_11__hash_nodeINS_12basic_stringIcNS_11char_traitsIcEENS_9allocatorIcEEEEPvEENS_22__hash_node_destructorINS5_IS9_EEEEEptEv
__ZNKSt3__117__compressed_pairIPNS_11__hash_nodeINS_12basic_stringIcNS_11char_traitsIcEENS_9allocatorIcEEEEPvEENS_22__hash_node_destructorINS5_IS9_EEEEE5firstEv
__ZNKSt3__122__compressed_pair_elemIPNS_11__hash_nodeINS_12basic_stringIcNS_11char_traitsIcEENS_9allocatorIcEEEEPvEELi0ELb0EE5__getEv
__ZNSt3__122__hash_key_value_typesINS_12basic_stringIcNS_11char_traitsIcEENS_9allocatorIcEEEEE9__get_ptrERS6_
__ZNSt3__1L9addressofINS_12basic_stringIcNS_11char_traitsIcEENS_9allocatorIcEEEEEEPT_RS7_
__ZNSt3__116allocator_traitsINS_9allocatorINS_11__hash_nodeINS_12basic_stringIcNS_11char_traitsIcEENS1_IcEEEEPvEEEEE9constructIS7_JRKS7_EEEvRSA_PT_DpOT0_
__ZNSt3__116allocator_traitsINS_9allocatorINS_11__hash_nodeINS_12basic_stringIcNS_11char_traitsIcEENS1_IcEEEEPvEEEEE11__constructIS7_JRKS7_EEEvNS_17integral_constantIbLb1EEERSA_PT_DpOT0_
__ZNSt3__19allocatorINS_11__hash_nodeINS_12basic_stringIcNS_11char_traitsIcEENS0_IcEEEEPvEEE9constructIS6_JRKS6_EEEvPT_DpOT0_
__ZNSt3__110unique_ptrINS_11__hash_nodeINS_12basic_stringIcNS_11char_traitsIcEENS_9allocatorIcEEEEPvEENS_22__hash_node_destructorINS5_IS9_EEEEE11get_deleterEv
__ZNSt3__117__compressed_pairIPNS_11__hash_nodeINS_12basic_stringIcNS_11char_traitsIcEENS_9allocatorIcEEEEPvEENS_22__hash_node_destructorINS5_IS9_EEEEE6secondEv
__ZNSt3__122__compressed_pair_elemINS_22__hash_node_destructorINS_9allocatorINS_11__hash_nodeINS_12basic_stringIcNS_11char_traitsIcEENS2_IcEEEEPvEEEEEELi1ELb0EE5__getEv
__ZNSt3__112__hash_tableINS_12basic_stringIcNS_11char_traitsIcEENS_9allocatorIcEEEENS_4hashIS6_EENS_8equal_toIS6_EENS4_IS6_EEE4sizeEv
__ZNSt3__117__compressed_pairImNS_4hashINS_12basic_stringIcNS_11char_traitsIcEENS_9allocatorIcEEEEEEE5firstEv
__ZNSt3__122__compressed_pair_elemImLi0ELb0EE5__getEv
__ZNSt3__112__hash_tableINS_12basic_stringIcNS_11char_traitsIcEENS_9allocatorIcEEEENS_4hashIS6_EENS_8equal_toIS6_EENS4_IS6_EEE15max_load_factorEv
__ZNSt3__117__compressed_pairIfNS_8equal_toINS_12basic_stringIcNS_11char_traitsIcEENS_9allocatorIcEEEEEEE5firstEv
__ZNSt3__122__compressed_pair_elemIfLi0ELb0EE5__getEv
__ZNSt3__1L16__is_hash_power2Em
__ZL4ceilf
__ZNSt3__1L3maxImEERKT_S3_S3_
__ZNSt3__1L3maxImNS_6__lessImmEEEERKT_S5_S5_T0_
__ZNKSt3__16__lessImmEclERKmS3_
__ZNSt3__112__hash_tableINS_12basic_stringIcNS_11char_traitsIcEENS_9allocatorIcEEEENS_4hashIS6_EENS_8equal_toIS6_EENS4_IS6_EEE6rehashEm
__ZNSt3__112__hash_tableINS_12basic_stringIcNS_11char_traitsIcEENS_9allocatorIcEEEENS_4hashIS6_EENS_8equal_toIS6_EENS4_IS6_EEE8__rehashEm
__ZNSt3__110unique_ptrIA_PNS_16__hash_node_baseIPNS_11__hash_nodeINS_12basic_stringIcNS_11char_traitsIcEENS_9allocatorIcEEEEPvEEEENS_25__bucket_list_deallocatorINS6_ISD_EEEEE11get_deleterEv
__ZNSt3__117__compressed_pairIPPNS_16__hash_node_baseIPNS_11__hash_nodeINS_12basic_stringIcNS_11char_traitsIcEENS_9allocatorIcEEEEPvEEEENS_25__bucket_list_deallocatorINS6_ISD_EEEEE6secondEv
__ZNSt3__122__compressed_pair_elemINS_25__bucket_list_deallocatorINS_9allocatorIPNS_16__hash_node_baseIPNS_11__hash_nodeINS_12basic_stringIcNS_11char_traitsIcEENS2_IcEEEEPvEEEEEEEELi1ELb0EE5__getEv
__ZNSt3__125__bucket_list_deallocatorINS_9allocatorIPNS_16__hash_node_baseIPNS_11__hash_nodeINS_12basic_stringIcNS_11char_traitsIcEENS1_IcEEEEPvEEEEEEE7__allocEv
__ZNSt3__117__compressed_pairImNS_9allocatorIPNS_16__hash_node_baseIPNS_11__hash_nodeINS_12basic_stringIcNS_11char_traitsIcEENS1_IcEEEEPvEEEEEEE6secondEv
__ZNSt3__122__compressed_pair_elemINS_9allocatorIPNS_16__hash_node_baseIPNS_11__hash_nodeINS_12basic_stringIcNS_11char_traitsIcEENS1_IcEEEEPvEEEEEELi1ELb1EE5__getEv
__ZNSt3__116allocator_traitsINS_9allocatorIPNS_16__hash_node_baseIPNS_11__hash_nodeINS_12basic_stringIcNS_11char_traitsIcEENS1_IcEEEEPvEEEEEEE8allocateERSE_m
__ZNSt3__19allocatorIPNS_16__hash_node_baseIPNS_11__hash_nodeINS_12basic_stringIcNS_11char_traitsIcEENS0_IcEEEEPvEEEEE8allocateEmPKv
__ZNKSt3__19allocatorIPNS_16__hash_node_baseIPNS_11__hash_nodeINS_12basic_stringIcNS_11char_traitsIcEENS0_IcEEEEPvEEEEE8max_sizeEv
__ZNSt3__110unique_ptrIA_PNS_16__hash_node_baseIPNS_11__hash_nodeINS_12basic_stringIcNS_11char_traitsIcEENS_9allocatorIcEEEEPvEEEENS_25__bucket_list_deallocatorINS6_ISD_EEEEE5resetIPSD_EENS_9enable_ifIXsr28_CheckArrayPointerConversionIT_EE5valueEvE4typeESM_
__ZNSt3__117__compressed_pairIPPNS_16__hash_node_baseIPNS_11__hash_nodeINS_12basic_stringIcNS_11char_traitsIcEENS_9allocatorIcEEEEPvEEEENS_25__bucket_list_deallocatorINS6_ISD_EEEEE5firstEv
__ZNSt3__122__compressed_pair_elemIPPNS_16__hash_node_baseIPNS_11__hash_nodeINS_12basic_stringIcNS_11char_traitsIcEENS_9allocatorIcEEEEPvEEEELi0ELb0EE5__getEv
__ZNSt3__125__bucket_list_deallocatorINS_9allocatorIPNS_16__hash_node_baseIPNS_11__hash_nodeINS_12basic_stringIcNS_11char_traitsIcEENS1_IcEEEEPvEEEEEEE4sizeEv
__ZNSt3__117__compressed_pairImNS_9allocatorIPNS_16__hash_node_baseIPNS_11__hash_nodeINS_12basic_stringIcNS_11char_traitsIcEENS1_IcEEEEPvEEEEEEE5firstEv
__ZNKSt3__110unique_ptrIA_PNS_16__hash_node_baseIPNS_11__hash_nodeINS_12basic_stringIcNS_11char_traitsIcEENS_9allocatorIcEEEEPvEEEENS_25__bucket_list_deallocatorINS6_ISD_EEEEEixEm
__ZNKSt3__117__compressed_pairIPPNS_16__hash_node_baseIPNS_11__hash_nodeINS_12basic_stringIcNS_11char_traitsIcEENS_9allocatorIcEEEEPvEEEENS_25__bucket_list_deallocatorINS6_ISD_EEEEE5firstEv
__ZNKSt3__122__compressed_pair_elemIPPNS_16__hash_node_baseIPNS_11__hash_nodeINS_12basic_stringIcNS_11char_traitsIcEENS_9allocatorIcEEEEPvEEEELi0ELb0EE5__getEv
__ZNSt3__117__compressed_pairINS_16__hash_node_baseIPNS_11__hash_nodeINS_12basic_stringIcNS_11char_traitsIcEENS_9allocatorIcEEEEPvEEEENS6_ISA_EEE5firstEv
__ZNSt3__122__compressed_pair_elemINS_16__hash_node_baseIPNS_11__hash_nodeINS_12basic_stringIcNS_11char_traitsIcEENS_9allocatorIcEEEEPvEEEELi0ELb0EE5__getEv
__ZNSt3__116__hash_node_baseIPNS_11__hash_nodeINS_12basic_stringIcNS_11char_traitsIcEENS_9allocatorIcEEEEPvEEE5__ptrEv
__ZNSt3__114pointer_traitsIPNS_16__hash_node_baseIPNS_11__hash_nodeINS_12basic_stringIcNS_11char_traitsIcEENS_9allocatorIcEEEEPvEEEEE10pointer_toERSC_
__ZNSt3__1L9addressofINS_16__hash_node_baseIPNS_11__hash_nodeINS_12basic_stringIcNS_11char_traitsIcEENS_9allocatorIcEEEEPvEEEEEEPT_RSD_
__ZNSt3__1L16__constrain_hashEmm
__ZNKSt3__110unique_ptrINS_11__hash_nodeINS_12basic_stringIcNS_11char_traitsIcEENS_9allocatorIcEEEEPvEENS_22__hash_node_destructorINS5_IS9_EEEEE3getEv
__ZNSt3__110unique_ptrINS_11__hash_nodeINS_12basic_stringIcNS_11char_traitsIcEENS_9allocatorIcEEEEPvEENS_22__hash_node_destructorINS5_IS9_EEEEE7releaseEv
__ZNSt3__117__compressed_pairIPNS_11__hash_nodeINS_12basic_stringIcNS_11char_traitsIcEENS_9allocatorIcEEEEPvEENS_22__hash_node_destructorINS5_IS9_EEEEE5firstEv
__ZNSt3__122__compressed_pair_elemIPNS_11__hash_nodeINS_12basic_stringIcNS_11char_traitsIcEENS_9allocatorIcEEEEPvEELi0ELb0EE5__getEv
__ZNSt3__110unique_ptrINS_11__hash_nodeINS_12basic_stringIcNS_11char_traitsIcEENS_9allocatorIcEEEEPvEENS_22__hash_node_destructorINS5_IS9_EEEEED1Ev
__ZNSt3__110unique_ptrINS_11__hash_nodeINS_12basic_stringIcNS_11char_traitsIcEENS_9allocatorIcEEEEPvEENS_22__hash_node_destructorINS5_IS9_EEEEED2Ev
__ZNSt3__110unique_ptrINS_11__hash_nodeINS_12basic_stringIcNS_11char_traitsIcEENS_9allocatorIcEEEEPvEENS_22__hash_node_destructorINS5_IS9_EEEEE5resetEPS9_
__ZNSt3__115__hash_iteratorIPNS_11__hash_nodeINS_12basic_stringIcNS_11char_traitsIcEENS_9allocatorIcEEEEPvEEEC1EPNS_16__hash_node_baseISA_EE
__ZNSt3__115__hash_iteratorIPNS_11__hash_nodeINS_12basic_stringIcNS_11char_traitsIcEENS_9allocatorIcEEEEPvEEEC2EPNS_16__hash_node_baseISA_EE
__ZNSt3__14pairINS_15__hash_iteratorIPNS_11__hash_nodeINS_12basic_stringIcNS_11char_traitsIcEENS_9allocatorIcEEEEPvEEEEbEC1ISC_RbLb0EEEOT_OT0_
__ZNSt3__14pairINS_15__hash_iteratorIPNS_11__hash_nodeINS_12basic_stringIcNS_11char_traitsIcEENS_9allocatorIcEEEEPvEEEEbEC2ISC_RbLb0EEEOT_OT0_
__ZNSt3__1L7forwardINS_15__hash_iteratorIPNS_11__hash_nodeINS_12basic_stringIcNS_11char_traitsIcEENS_9allocatorIcEEEEPvEEEEEEOT_RNS_16remove_referenceISD_E4typeE
__ZNSt3__1L7forwardIRbEEOT_RNS_16remove_referenceIS2_E4typeE
__ZNKSt3__116__hash_node_baseIPNS_11__hash_nodeINS_12basic_stringIcNS_11char_traitsIcEENS_9allocatorIcEEEEPvEEE6__hashEv
__ZNSt3__112__hash_tableINS_12basic_stringIcNS_11char_traitsIcEENS_9allocatorIcEEEENS_4hashIS6_EENS_8equal_toIS6_EENS4_IS6_EEE6key_eqEv
__ZNSt3__117__compressed_pairIfNS_8equal_toINS_12basic_stringIcNS_11char_traitsIcEENS_9allocatorIcEEEEEEE6secondEv
__ZNSt3__122__compressed_pair_elemINS_8equal_toINS_12basic_stringIcNS_11char_traitsIcEENS_9allocatorIcEEEEEELi1ELb1EE5__getEv
__ZNSt3__116__hash_node_baseIPNS_11__hash_nodeINS_12basic_stringIcNS_11char_traitsIcEENS_9allocatorIcEEEEPvEEE8__upcastEv
__ZNKSt3__18equal_toINS_12basic_stringIcNS_11char_traitsIcEENS_9allocatorIcEEEEEclERKS6_S9_
__ZNSt3__1eqINS_9allocatorIcEEEEbRKNS_12basic_stringIcNS_11char_traitsIcEET_EES9_
__ZNSt3__125__bucket_list_deallocatorINS_9allocatorIPNS_16__hash_node_baseIPNS_11__hash_nodeINS_12basic_stringIcNS_11char_traitsIcEENS1_IcEEEEPvEEEEEEEclEPSD_
__ZNSt3__116allocator_traitsINS_9allocatorIPNS_16__hash_node_baseIPNS_11__hash_nodeINS_12basic_stringIcNS_11char_traitsIcEENS1_IcEEEEPvEEEEEEE10deallocateERSE_PSD_m
__ZNSt3__19allocatorIPNS_16__hash_node_baseIPNS_11__hash_nodeINS_12basic_stringIcNS_11char_traitsIcEENS0_IcEEEEPvEEEEE10deallocateEPSC_m
__ZNSt3__1L19__libcpp_deallocateEPvmm
__ZNSt3__117_DeallocateCaller33__do_deallocate_handle_size_alignEPvmm
__ZNSt3__117_DeallocateCaller27__do_deallocate_handle_sizeEPvm
__ZNSt3__117_DeallocateCaller9__do_callEPv
__ZNSt3__1L10__loadwordIjEET_PKv
__ZNSt3__16vectorINS_12basic_stringIcNS_11char_traitsIcEENS_9allocatorIcEEEENS4_IS6_EEE18__construct_at_endIPKS6_EENS_9enable_ifIXsr27__is_cpp17_forward_iteratorIT_EE5valueEvE4typeESD_SD_m
__ZNSt3__113__vector_baseINS_12basic_stringIcNS_11char_traitsIcEENS_9allocatorIcEEEENS4_IS6_EEE7__allocEv
__ZNSt3__117__compressed_pairIPNS_12basic_stringIcNS_11char_traitsIcEENS_9allocatorIcEEEENS4_IS6_EEE6secondEv
__ZNSt3__122__compressed_pair_elemINS_9allocatorINS_12basic_stringIcNS_11char_traitsIcEENS1_IcEEEEEELi1ELb1EE5__getEv
__ZNSt3__116allocator_traitsINS_9allocatorINS_12basic_stringIcNS_11char_traitsIcEENS1_IcEEEEEEE25__construct_range_forwardIPKS6_PS6_EEvRS7_T_SE_RT0_
__ZNSt3__1L12__to_addressINS_12basic_stringIcNS_11char_traitsIcEENS_9allocatorIcEEEEEEPT_S8_
__ZNSt3__116allocator_traitsINS_9allocatorINS_12basic_stringIcNS_11char_traitsIcEENS1_IcEEEEEEE9constructIS6_JRKS6_EEEvRS7_PT_DpOT0_
__ZNSt3__116allocator_traitsINS_9allocatorINS_12basic_stringIcNS_11char_traitsIcEENS1_IcEEEEEEE11__constructIS6_JRKS6_EEEvNS_17integral_constantIbLb1EEERS7_PT_DpOT0_
__ZNSt3__19allocatorINS_12basic_stringIcNS_11char_traitsIcEENS0_IcEEEEE9constructIS5_JRKS5_EEEvPT_DpOT0_
__ZNSt3__16vectorIiNS_9allocatorIiEEE11__vallocateEm
__ZNKSt3__16vectorIiNS_9allocatorIiEEE8max_sizeEv
__ZNKSt3__113__vector_baseIiNS_9allocatorIiEEE7__allocEv
__ZNKSt3__117__compressed_pairIPiNS_9allocatorIiEEE6secondEv
__ZNKSt3__122__compressed_pair_elemINS_9allocatorIiEELi1ELb1EE5__getEv
__ZNSt3__116allocator_traitsINS_9allocatorIiEEE8max_sizeERKS2_
__ZNSt3__116allocator_traitsINS_9allocatorIiEEE10__max_sizeENS_17integral_constantIbLb1EEERKS2_
__ZNKSt3__19allocatorIiE8max_sizeEv
__ZNSt3__114numeric_limitsIlE3maxEv
__ZNSt3__123__libcpp_numeric_limitsIlLb1EE3maxEv
__ZNSt3__1L3minImEERKT_S3_S3_
__ZNSt3__1L3minImNS_6__lessImmEEEERKT_S5_S5_T0_
__ZNSt3__113__vector_baseIiNS_9allocatorIiEEE7__allocEv
__ZNSt3__117__compressed_pairIPiNS_9allocatorIiEEE6secondEv
__ZNSt3__122__compressed_pair_elemINS_9allocatorIiEELi1ELb1EE5__getEv
__ZNSt3__116allocator_traitsINS_9allocatorIiEEE8allocateERS2_m
__ZNSt3__19allocatorIiE8allocateEmPKv
_$sSSWOr
__ZNSt3__113__vector_baseIiNS_9allocatorIiEEE9__end_capEv
__ZNSt3__117__compressed_pairIPiNS_9allocatorIiEEE5firstEv
__ZNSt3__122__compressed_pair_elemIPiLi0ELb0EE5__getEv
__ZNKSt3__16vectorIiNS_9allocatorIiEEE14__annotate_newEm
__ZNKSt3__16vectorIiNS_9allocatorIiEEE4dataEv
__ZNSt3__1L12__to_addressIiEEPT_S2_
__ZNKSt3__16vectorIiNS_9allocatorIiEEE8capacityEv
__ZNKSt3__113__vector_baseIiNS_9allocatorIiEEE8capacityEv
__ZNKSt3__113__vector_baseIiNS_9allocatorIiEEE9__end_capEv
__ZNKSt3__117__compressed_pairIPiNS_9allocatorIiEEE5firstEv
__ZNKSt3__122__compressed_pair_elemIPiLi0ELb0EE5__getEv
__ZNKSt3__16vectorIiNS_9allocatorIiEEE31__annotate_contiguous_containerEPKvS5_S5_S5_
__ZNSt3__127__tree_balance_after_insertIPNS_16__tree_node_baseIPvEEEEvT_S5_
_$s16LKCommonsLogging8LogEventVWOs
__ZNKSt3__116__tree_node_baseIPvE15__parent_unsafeEv
__ZNSt3__1L20__tree_is_left_childIPNS_16__tree_node_baseIPvEEEEbT_
__ZNSt3__119__tree_right_rotateIPNS_16__tree_node_baseIPvEEEEvT_
__ZNSt3__116__tree_node_baseIPvE12__set_parentEPS2_
__ZNSt3__118__tree_left_rotateIPNS_16__tree_node_baseIPvEEEEvT_
__ZNKSt3__112basic_stringIcNS_11char_traitsIcEENS_9allocatorIcEEE7compareINS_17basic_string_viewIcS2_EEEENS_9enable_ifIXsr33__can_be_converted_to_string_viewIcS2_T_EE5valueEiE4typeERKSA_
__ZNKSt3__117basic_string_viewIcNS_11char_traitsIcEEE4sizeEv
__ZNKSt3__117basic_string_viewIcNS_11char_traitsIcEEE4dataEv
__ZNSt3__111char_traitsIcE7compareEPKcS3_m
_$s10Foundation4DateVACs23CustomStringConvertibleAAWl
_$sSi16LKCommonsLoggingE10levelColorSSvg
_$sSi16LKCommonsLoggingE5traceSivau
_globalinit_33_A52CB5FFDA25817244A814AAFB3994E5_func4
_$sSi16LKCommonsLoggingE5debugSivau
_globalinit_33_A52CB5FFDA25817244A814AAFB3994E5_func5
_$sSDyS2SGSgWOb
_$sSDyS2SGSgWOr
_$ss5Error_pSgWOb
_$ss5Error_pSgWOr
_$ss5print_9separator10terminatoryypd_S2StFfA0_
_$ss5print_9separator10terminatoryypd_S2StFfA1_
__ZNSt3__16vectorIhNS_9allocatorIhEEE11__vallocateEm
__ZNKSt3__16vectorIhNS_9allocatorIhEEE8max_sizeEv
__ZNKSt3__113__vector_baseIhNS_9allocatorIhEEE7__allocEv
__ZNKSt3__117__compressed_pairIPhNS_9allocatorIhEEE6secondEv
__ZNKSt3__122__compressed_pair_elemINS_9allocatorIhEELi1ELb1EE5__getEv
__ZNSt3__116allocator_traitsINS_9allocatorIhEEE8max_sizeERKS2_
__ZNSt3__116allocator_traitsINS_9allocatorIhEEE10__max_sizeENS_17integral_constantIbLb1EEERKS2_
__ZNKSt3__19allocatorIhE8max_sizeEv
__ZNSt3__113__vector_baseIhNS_9allocatorIhEEE7__allocEv
__ZNSt3__117__compressed_pairIPhNS_9allocatorIhEEE6secondEv
__ZNSt3__122__compressed_pair_elemINS_9allocatorIhEELi1ELb1EE5__getEv
__ZNSt3__116allocator_traitsINS_9allocatorIhEEE8allocateERS2_m
__ZNSt3__19allocatorIhE8allocateEmPKv
__ZNSt3__113__vector_baseIhNS_9allocatorIhEEE9__end_capEv
__ZNSt3__117__compressed_pairIPhNS_9allocatorIhEEE5firstEv
__ZNSt3__122__compressed_pair_elemIPhLi0ELb0EE5__getEv
__ZNKSt3__16vectorIhNS_9allocatorIhEEE14__annotate_newEm
__ZNKSt3__16vectorIhNS_9allocatorIhEEE4dataEv
__ZNSt3__1L12__to_addressIhEEPT_S2_
__ZNKSt3__16vectorIhNS_9allocatorIhEEE8capacityEv
__ZNKSt3__113__vector_baseIhNS_9allocatorIhEEE8capacityEv
__ZNKSt3__113__vector_baseIhNS_9allocatorIhEEE9__end_capEv
__ZNKSt3__117__compressed_pairIPhNS_9allocatorIhEEE5firstEv
__ZNKSt3__122__compressed_pair_elemIPhLi0ELb0EE5__getEv
__ZNKSt3__16vectorIhNS_9allocatorIhEEE31__annotate_contiguous_containerEPKvS5_S5_S5_
_bdturing_keyboard_handler
+[BDTuringKeyboard sharedKeyboard]
___34+[BDTuringKeyboard sharedKeyboard]_block_invoke
-[BDTuringKeyboard init]
-[BDTuringKeyboard setKeyboardTop:]
-[BDTuringKeyboard setKeyboardIsShow:]
_$sSo10PencilTypeaMa
_$s8ByteView023AdvancedOptionsSettingsB10ControllerCMa
_$s8ByteView023AdvancedOptionsSettingsB10ControllerCMr
_$s8ByteView023AdvancedOptionsSettingsB5ModelCMa
_$s8ByteView023AdvancedOptionsSettingsB5ModelCMr
_$s6RustPB32Videoconference_V1_VideoChatInfoVMa
_$s6RustPB32Videoconference_V1_VideoChatInfoVMr
_$s13SwiftProtobuf14UnknownStorageVMa
_$s8ByteView16VMViewControllerCMa
___swift_instantiateGenericMetadata
_$s8ByteView16VMViewControllerCMi
_$s8ByteView16VMViewControllerCMr
_$s8ByteView04BaseB10ControllerCMa
_$s8ByteView07CallOutB10ControllerCMa
_$s8ByteView07CallOutB10ControllerCMr
_$s8ByteView07CallOutB5ModelCMa
_$s8ByteView07CallOutB5ModelCMr
_$s7RxCocoa14SharedSequenceVyAA21DriverSharingStrategyV18ByteViewFoundation10AvatarInfoOGMa
_$s7RxCocoa21DriverSharingStrategyVMa
_$s18ByteViewFoundation10AvatarInfoOMa
_$s18ByteViewFoundation10AvatarInfoOMr
_$s10Foundation3URLVSgMa
_$s7RxCocoa14SharedSequenceVMa
_$s7RxCocoa14SharedSequenceVMi
_$s7RxCocoa14SharedSequenceVyAA21DriverSharingStrategyVSSGMa
_$s7RxCocoa14SharedSequenceVyAA21DriverSharingStrategyVSSGSgMa
_$s7RxCocoa14SharedSequenceVyAA21DriverSharingStrategyVytGMa
_$s6RustPB32Videoconference_V1_VideoChatInfoVSgMa
_$s20AudioSessionScenarioAAVSgMa
_$s20AudioSessionScenarioAAVMa
_$s6RustPB37Videoconference_V1_VideoChatExtraInfoV19RingingReceivedDataVSgMa
_$s6RustPB37Videoconference_V1_VideoChatExtraInfoV19RingingReceivedDataVMa
_$s6RustPB37Videoconference_V1_VideoChatExtraInfoV19RingingReceivedDataVMr
_$s6RustPB30Videoconference_V1_ParticipantVSgMa
_$s6RustPB30Videoconference_V1_ParticipantVMa
_$s6RustPB30Videoconference_V1_ParticipantVMr
_$s8ByteView011ChatMessageB10ControllerCMa
_$s8ByteView011ChatMessageB10ControllerCMr
_$s8ByteView011ChatMessageB5ModelCMa
_$s8ByteView011ChatMessageB5ModelCMr
_$s6RustPB46Videoconference_V1_VideoChatInteractionMessageVSgMa
_$s6RustPB46Videoconference_V1_VideoChatInteractionMessageVMa
_$s6RustPB46Videoconference_V1_VideoChatInteractionMessageVMr
_$s7RxSwift17PrimitiveSequenceVyAA11SingleTraitOSSGMa
_$s7RxSwift11SingleTraitOMa
_$s7RxSwift17PrimitiveSequenceVMa
_$s7RxSwift17PrimitiveSequenceVMi
_$s7RxSwift11AnyObserverVy8ByteView011ChatMessageF5ModelC8LoadMoreVGSgMa
_$s7RxSwift11AnyObserverVy8ByteView011ChatMessageF5ModelC8LoadMoreVGMa
_$s7RxSwift11AnyObserverVMa
_$s7RxSwift11AnyObserverVMi
_$s8ByteView013ConnectFailedB10ControllerCMa
_$s8ByteView013ConnectFailedB10ControllerCMr
_$s8ByteView013ConnectFailedB5ModelCMa
_$s8ByteView013ConnectFailedB5ModelCMr
_$s8ByteView011DailyDetailB10ControllerCMa
_$s8ByteView011DailyDetailB10ControllerCMr
_$s8ByteView011DailyDetailB5ModelCMa
_$s8ByteView011DailyDetailB5ModelCMr
_$s7RxSwift11AnyObserverVyytGMa
_$s8ByteView017FloatingInMeetingB10ControllerCMa
_$s8ByteView017FloatingInMeetingB10ControllerCMr
_$s8ByteView06InMeetB5ModelCMa
_$s8ByteView06InMeetB5ModelCMr
_$s7RxCocoa14SharedSequenceVyAA21DriverSharingStrategyVSSSgGSgMa
_$s7RxCocoa14SharedSequenceVyAA21DriverSharingStrategyVSSSgGMa
_$s8ByteView20FloatingPreMeetingVCCMa
_$s8ByteView20FloatingPreMeetingVCCMr
_$s8ByteView17FloatingPreMeetVMCMa
_$s8ByteView17FloatingPreMeetVMCMr
_$s8ByteView015FollowContainerB10ControllerCMa
_$s8ByteView015FollowContainerB10ControllerCMr
_$s8ByteView012InMeetFollowB5ModelCMa
_$s8ByteView012InMeetFollowB5ModelCMr
_$s7RxCocoa14SharedSequenceVyAA21DriverSharingStrategyVSbGSgMa
_$s8ByteView21GoogleDriveFileListVCC0efG0CMa
_$s8ByteView21GoogleDriveFileListVCC0efG0CMr
_$s8ByteView21GoogleDriveFileListVMCMa
_$s8ByteView22GoogleDrivePagedListVCCMa
_$s8ByteView22GoogleDrivePagedListVCCMi
_$s8ByteView22GoogleDrivePagedListVCCMr
_$s8ByteView25GoogleDriveSearchResultVCCMa
_$s8ByteView25GoogleDriveSearchResultVCCMr
_$s8ByteView25GoogleDriveSearchResultVMCMa
_$s8ByteView011HostControlB10ControllerCMa
_$s8ByteView011HostControlB10ControllerCMr
_$s8ByteView27HostControlCellSectionModelVMa
_$s8ByteView015InMeetContainerB10ControllerCMa
_$s8ByteView015InMeetContainerB10ControllerCMr
_$s8ByteView013InMeetContentB10ControllerCMa
_$s8ByteView013InMeetContentB10ControllerCMr
_$s8ByteView010InMeetFlowB10ControllerCMa
_$s8ByteView010InMeetFlowB10ControllerCMr
_$s8ByteView012InMeetingLabB10ControllerCMa
_$s8ByteView012InMeetingLabB10ControllerCMr
_$s8ByteView012InMeetingLabB5ModelCMa
_$s8ByteView018InMeetParticipantsB10ControllerCMa
_$s8ByteView018InMeetParticipantsB10ControllerCMr
_$s8ByteView012ParticipantsB5ModelCMa
_$s8ByteView012ParticipantsB5ModelCMr
_$s8ByteView19InMeetShareScreenVCCMa
_$s8ByteView19InMeetShareScreenVCCMr
_$s8ByteView19InMeetShareScreenVMCMa
_$s8ByteView19InMeetShareScreenVMCMr
_$s8ByteView017InterpreterManageB10ControllerCMa
_$s8ByteView017InterpreterManageB10ControllerCMr
_$s8ByteView017InterpreterManageB5ModelCMa
_$s8ByteView017InterpreterManageB5ModelCMr
_$s8ByteView017InterpreterSearchB10ControllerCMa
_$s8ByteView017InterpreterSearchB10ControllerCMr
_$s8ByteView017InterpreterSearchB5ModelCMa
_$s8ByteView017InterpreterSearchB5ModelCMr
_$s8ByteView05LobbyB10ControllerCMa
_$s8ByteView05LobbyB10ControllerCMr
_$s8ByteView05LobbyB5ModelCMa
_$s8ByteView05LobbyB5ModelCMr
_$s6RustPB35Videoconference_V1_JoinMeetingLobbyVMa
_$s6RustPB35Videoconference_V1_JoinMeetingLobbyVMr
_$s8ByteView013MeetingDetailB10ControllerCMa
_$s8ByteView013MeetingDetailB10ControllerCMr
_$s8ByteView013MeetingDetailB5ModelCMa
_$s8ByteView09SpaceBaseB10ControllerCMa
_$s8ByteView09SpaceBaseB10ControllerCMi
_$s8ByteView09SpaceBaseB10ControllerCMr
_$s8ByteView09PhoneListB10ControllerCMa
_$s8ByteView09PhoneListB10ControllerCMr
_$s8ByteView09PhoneListB5ModelCMa
_$s8ByteView08ReactionB10ControllerCMa
_$s8ByteView08ReactionB10ControllerCMr
_$s8ByteView08ReactionB5ModelCMa
_$s8ByteView08ReactionB5ModelCMr
_$s6RustPB34Videoconference_V1_ParticipantRoleOMa
_$s8ByteView010SearchDocsB10ControllerCMa
_$s8ByteView010SearchDocsB10ControllerCMr
_$s8ByteView010SearchDocsB5ModelCMa
_$s8ByteView024SelectInterpreterChannelB10ControllerCMa
_$s8ByteView024SelectInterpreterChannelB10ControllerCMr
_$s8ByteView024SelectInterpreterChannelB5ModelCMa
_$s8ByteView024SelectInterpreterChannelB5ModelCMr
_$s7RxSwift11AnyObserverVy8ByteView022InterpreterChannelCellF5ModelC_10Foundation9IndexPathVtGSgMa
_$s7RxSwift11AnyObserverVy8ByteView022InterpreterChannelCellF5ModelC_10Foundation9IndexPathVtGMa
_$s8ByteView022InterpreterChannelCellB5ModelC_10Foundation9IndexPathVtMa
_$s8ByteView022InterpreterChannelCellB5ModelCMa
_$s8ByteView022InterpreterChannelCellB5ModelCMr
_$s6RustPB31Videoconference_V1_LanguageTypeVMa
_$s6RustPB31Videoconference_V1_LanguageTypeVMr
_$s8ByteView011SingleVideoB10ControllerCMa
_$s8ByteView011SingleVideoB10ControllerCMr
_$s8ByteView011SingleVideoB5ModelCMa
_$s8ByteView022SpaceAgendaDescriptionB10ControllerCMa
_$s8ByteView022SpaceAgendaDescriptionB10ControllerCMr
_$s8ByteView022SpaceAgendaDescriptionB5ModelCMa
_$s8ByteView05SpaceB10ControllerCMa
_$s8ByteView05SpaceB10ControllerCMr
_$s8ByteView05SpaceB5ModelCMa
_$s8ByteView05SpaceB5ModelCMr
_$s8ByteView16SpaceVoucherInfoVMa
_$s8ByteView16SpaceVoucherInfoVMr
_$s6RustPB25Videoconference_V1_IDTypeOMa
_$s6RustPB36Videoconference_V1_VCMeetingAbbrInfoVSgMa
_$s6RustPB36Videoconference_V1_VCMeetingAbbrInfoVMa
_$s6RustPB36Videoconference_V1_VCMeetingAbbrInfoVMr
_$s8ByteView015SubtitleHistoryB10ControllerCMa
_$s8ByteView015SubtitleHistoryB10ControllerCMr
_$s8ByteView09SubtitlesB5ModelCMa
_$s8ByteView09SubtitlesB5ModelCMr
_$s6RustPB31Videoconference_V1_ByteviewUserVSgMa
_$s6RustPB31Videoconference_V1_ByteviewUserVMa
_$s6RustPB31Videoconference_V1_ByteviewUserVMr
_$s8ByteView016SubtitleSettingsB10ControllerCMa
_$s8ByteView016SubtitleSettingsB10ControllerCMr
_$s8ByteView016SubtitleSettingsB5ModelCMa
_$s8ByteView022SuggestionParticipantsB10ControllerCMa
_$s8ByteView022SuggestionParticipantsB10ControllerCMr
_$s8ByteView011ToolBarMoreB10ControllerCMa
_$s8ByteView011ToolBarMoreB10ControllerCMr
_$s8ByteView07ToolBarB5ModelCMa
_$s8ByteView07ToolBarB5ModelCMr
_$s7RxCocoa14SharedSequenceVyAA21DriverSharingStrategyVSiGMa
_$s8ByteView010ToolBarPadB10ControllerCMa
_$s8ByteView010ToolBarPadB10ControllerCMr
_$s8ByteView07ToolBarB10ControllerCMa
_$s8ByteView07ToolBarB10ControllerCMr
_$s8ByteView012ToolBarPhoneB10ControllerCMa
_$s8ByteView012ToolBarPhoneB10ControllerCMr
_initialize
__GLOBAL__sub_I_FBAssociationManager.mm
___cxx_global_var_init
__ZNSt3__113unordered_mapIP11objc_objectPNS_13unordered_setIPvNS_4hashIS4_EENS_8equal_toIS4_EENS_9allocatorIS4_EEEENS5_IS2_EENS7_IS2_EENS9_INS_4pairIKS2_SC_EEEEEC1Ev
__ZNSt3__113unordered_mapIP11objc_objectPNS_13unordered_setIPvNS_4hashIS4_EENS_8equal_toIS4_EENS_9allocatorIS4_EEEENS5_IS2_EENS7_IS2_EENS9_INS_4pairIKS2_SC_EEEEEC2Ev
__ZNSt3__112__hash_tableINS_17__hash_value_typeIP11objc_objectPNS_13unordered_setIPvNS_4hashIS5_EENS_8equal_toIS5_EENS_9allocatorIS5_EEEEEENS_22__unordered_map_hasherIS3_SE_NS6_IS3_EELb1EEENS_21__unordered_map_equalIS3_SE_NS8_IS3_EELb1EEENSA_ISE_EEEC1Ev
__ZNSt3__112__hash_tableINS_17__hash_value_typeIP11objc_objectPNS_13unordered_setIPvNS_4hashIS5_EENS_8equal_toIS5_EENS_9allocatorIS5_EEEEEENS_22__unordered_map_hasherIS3_SE_NS6_IS3_EELb1EEENS_21__unordered_map_equalIS3_SE_NS8_IS3_EELb1EEENSA_ISE_EEEC2Ev
__ZNSt3__110unique_ptrIA_PNS_16__hash_node_baseIPNS_11__hash_nodeINS_17__hash_value_typeIP11objc_objectPNS_13unordered_setIPvNS_4hashIS7_EENS_8equal_toIS7_EENS_9allocatorIS7_EEEEEES7_EEEENS_25__bucket_list_deallocatorINSC_ISK_EEEEEC1ILb1EvEEv
__ZNSt3__110unique_ptrIA_PNS_16__hash_node_baseIPNS_11__hash_nodeINS_17__hash_value_typeIP11objc_objectPNS_13unordered_setIPvNS_4hashIS7_EENS_8equal_toIS7_EENS_9allocatorIS7_EEEEEES7_EEEENS_25__bucket_list_deallocatorINSC_ISK_EEEEEC2ILb1EvEEv
__ZNSt3__117__compressed_pairIPPNS_16__hash_node_baseIPNS_11__hash_nodeINS_17__hash_value_typeIP11objc_objectPNS_13unordered_setIPvNS_4hashIS7_EENS_8equal_toIS7_EENS_9allocatorIS7_EEEEEES7_EEEENS_25__bucket_list_deallocatorINSC_ISK_EEEEEC1ISL_NS_18__default_init_tagEEEOT_OT0_
__ZNSt3__117__compressed_pairIPPNS_16__hash_node_baseIPNS_11__hash_nodeINS_17__hash_value_typeIP11objc_objectPNS_13unordered_setIPvNS_4hashIS7_EENS_8equal_toIS7_EENS_9allocatorIS7_EEEEEES7_EEEENS_25__bucket_list_deallocatorINSC_ISK_EEEEEC2ISL_NS_18__default_init_tagEEEOT_OT0_
__ZNSt3__1L7forwardIPPNS_16__hash_node_baseIPNS_11__hash_nodeINS_17__hash_value_typeIP11objc_objectPNS_13unordered_setIPvNS_4hashIS7_EENS_8equal_toIS7_EENS_9allocatorIS7_EEEEEES7_EEEEEEOT_RNS_16remove_referenceISM_E4typeE
__ZNSt3__122__compressed_pair_elemIPPNS_16__hash_node_baseIPNS_11__hash_nodeINS_17__hash_value_typeIP11objc_objectPNS_13unordered_setIPvNS_4hashIS7_EENS_8equal_toIS7_EENS_9allocatorIS7_EEEEEES7_EEEELi0ELb0EEC2ISL_vEEOT_
__ZNSt3__122__compressed_pair_elemINS_25__bucket_list_deallocatorINS_9allocatorIPNS_16__hash_node_baseIPNS_11__hash_nodeINS_17__hash_value_typeIP11objc_objectPNS_13unordered_setIPvNS_4hashIS9_EENS_8equal_toIS9_EENS2_IS9_EEEEEES9_EEEEEEEELi1ELb0EEC2ENS_18__default_init_tagE
__ZNSt3__125__bucket_list_deallocatorINS_9allocatorIPNS_16__hash_node_baseIPNS_11__hash_nodeINS_17__hash_value_typeIP11objc_objectPNS_13unordered_setIPvNS_4hashIS8_EENS_8equal_toIS8_EENS1_IS8_EEEEEES8_EEEEEEEC1Ev
__ZNSt3__125__bucket_list_deallocatorINS_9allocatorIPNS_16__hash_node_baseIPNS_11__hash_nodeINS_17__hash_value_typeIP11objc_objectPNS_13unordered_setIPvNS_4hashIS8_EENS_8equal_toIS8_EENS1_IS8_EEEEEES8_EEEEEEEC2Ev
__ZNSt3__117__compressed_pairImNS_9allocatorIPNS_16__hash_node_baseIPNS_11__hash_nodeINS_17__hash_value_typeIP11objc_objectPNS_13unordered_setIPvNS_4hashIS8_EENS_8equal_toIS8_EENS1_IS8_EEEEEES8_EEEEEEEC1IiNS_18__default_init_tagEEEOT_OT0_
__ZNSt3__117__compressed_pairImNS_9allocatorIPNS_16__hash_node_baseIPNS_11__hash_nodeINS_17__hash_value_typeIP11objc_objectPNS_13unordered_setIPvNS_4hashIS8_EENS_8equal_toIS8_EENS1_IS8_EEEEEES8_EEEEEEEC2IiNS_18__default_init_tagEEEOT_OT0_
__ZNSt3__122__compressed_pair_elemINS_9allocatorIPNS_16__hash_node_baseIPNS_11__hash_nodeINS_17__hash_value_typeIP11objc_objectPNS_13unordered_setIPvNS_4hashIS8_EENS_8equal_toIS8_EENS1_IS8_EEEEEES8_EEEEEELi1ELb1EEC2ENS_18__default_init_tagE
__ZNSt3__19allocatorIPNS_16__hash_node_baseIPNS_11__hash_nodeINS_17__hash_value_typeIP11objc_objectPNS_13unordered_setIPvNS_4hashIS7_EENS_8equal_toIS7_EENS0_IS7_EEEEEES7_EEEEEC2Ev
__ZNSt3__117__compressed_pairINS_16__hash_node_baseIPNS_11__hash_nodeINS_17__hash_value_typeIP11objc_objectPNS_13unordered_setIPvNS_4hashIS7_EENS_8equal_toIS7_EENS_9allocatorIS7_EEEEEES7_EEEENSC_ISH_EEEC1ILb1EvEEv
__ZNSt3__117__compressed_pairINS_16__hash_node_baseIPNS_11__hash_nodeINS_17__hash_value_typeIP11objc_objectPNS_13unordered_setIPvNS_4hashIS7_EENS_8equal_toIS7_EENS_9allocatorIS7_EEEEEES7_EEEENSC_ISH_EEEC2ILb1EvEEv
__ZNSt3__122__compressed_pair_elemINS_16__hash_node_baseIPNS_11__hash_nodeINS_17__hash_value_typeIP11objc_objectPNS_13unordered_setIPvNS_4hashIS7_EENS_8equal_toIS7_EENS_9allocatorIS7_EEEEEES7_EEEELi0ELb0EEC2ENS_16__value_init_tagE
__ZNSt3__116__hash_node_baseIPNS_11__hash_nodeINS_17__hash_value_typeIP11objc_objectPNS_13unordered_setIPvNS_4hashIS6_EENS_8equal_toIS6_EENS_9allocatorIS6_EEEEEES6_EEEC1Ev
__ZNSt3__116__hash_node_baseIPNS_11__hash_nodeINS_17__hash_value_typeIP11objc_objectPNS_13unordered_setIPvNS_4hashIS6_EENS_8equal_toIS6_EENS_9allocatorIS6_EEEEEES6_EEEC2Ev
__ZNSt3__122__compressed_pair_elemINS_9allocatorINS_11__hash_nodeINS_17__hash_value_typeIP11objc_objectPNS_13unordered_setIPvNS_4hashIS7_EENS_8equal_toIS7_EENS1_IS7_EEEEEES7_EEEELi1ELb1EEC2ENS_16__value_init_tagE
__ZNSt3__19allocatorINS_11__hash_nodeINS_17__hash_value_typeIP11objc_objectPNS_13unordered_setIPvNS_4hashIS6_EENS_8equal_toIS6_EENS0_IS6_EEEEEES6_EEEC2Ev
__ZNSt3__117__compressed_pairImNS_22__unordered_map_hasherIP11objc_objectNS_17__hash_value_typeIS3_PNS_13unordered_setIPvNS_4hashIS6_EENS_8equal_toIS6_EENS_9allocatorIS6_EEEEEENS7_IS3_EELb1EEEEC1IiNS_18__default_init_tagEEEOT_OT0_
__ZNSt3__117__compressed_pairImNS_22__unordered_map_hasherIP11objc_objectNS_17__hash_value_typeIS3_PNS_13unordered_setIPvNS_4hashIS6_EENS_8equal_toIS6_EENS_9allocatorIS6_EEEEEENS7_IS3_EELb1EEEEC2IiNS_18__default_init_tagEEEOT_OT0_
__ZNSt3__122__compressed_pair_elemINS_22__unordered_map_hasherIP11objc_objectNS_17__hash_value_typeIS3_PNS_13unordered_setIPvNS_4hashIS6_EENS_8equal_toIS6_EENS_9allocatorIS6_EEEEEENS7_IS3_EELb1EEELi1ELb1EEC2ENS_18__default_init_tagE
__ZNSt3__122__unordered_map_hasherIP11objc_objectNS_17__hash_value_typeIS2_PNS_13unordered_setIPvNS_4hashIS5_EENS_8equal_toIS5_EENS_9allocatorIS5_EEEEEENS6_IS2_EELb1EEC2Ev
__ZNSt3__117__compressed_pairIfNS_21__unordered_map_equalIP11objc_objectNS_17__hash_value_typeIS3_PNS_13unordered_setIPvNS_4hashIS6_EENS_8equal_toIS6_EENS_9allocatorIS6_EEEEEENS9_IS3_EELb1EEEEC1IfNS_18__default_init_tagEEEOT_OT0_
__ZNSt3__117__compressed_pairIfNS_21__unordered_map_equalIP11objc_objectNS_17__hash_value_typeIS3_PNS_13unordered_setIPvNS_4hashIS6_EENS_8equal_toIS6_EENS_9allocatorIS6_EEEEEENS9_IS3_EELb1EEEEC2IfNS_18__default_init_tagEEEOT_OT0_
__ZNSt3__122__compressed_pair_elemINS_21__unordered_map_equalIP11objc_objectNS_17__hash_value_typeIS3_PNS_13unordered_setIPvNS_4hashIS6_EENS_8equal_toIS6_EENS_9allocatorIS6_EEEEEENS9_IS3_EELb1EEELi1ELb1EEC2ENS_18__default_init_tagE
__ZNSt3__121__unordered_map_equalIP11objc_objectNS_17__hash_value_typeIS2_PNS_13unordered_setIPvNS_4hashIS5_EENS_8equal_toIS5_EENS_9allocatorIS5_EEEEEENS8_IS2_EELb1EEC2Ev
___cxx_global_var_init.1
__ZNSt3__15mutexC1Ev
__ZNSt3__15mutexC2Ev
___cxx_global_var_init.2
_$sSo22BDUGAccountNetWorkTypeVMa
_$s11LarkAccount30SwitchVerifyCodeViewControllerCMa
_$s11LarkAccount30SwitchVerifyCodeViewControllerCMr
_$s11LarkAccount25SwitchVerifyCodeViewModelCMa
_$s11LarkAccount25SwitchVerifyCodeViewModelCMr
_$s11LarkAccount20SwitchVerifyCodeInfoCMa
_$s11LarkAccount20SwitchVerifyCodeInfoCAA06ServerF0AAWI
_$s11LarkAccount20SwitchVerifyCodeInfoCACSeAAWl
_$s11LarkAccount20SwitchVerifyCodeInfoCACSEAAWl
_$s11LarkAccount19SwitchUserViewModelCMa
_$s11LarkAccount19SwitchUserViewModelCMi
_$s11LarkAccount19SwitchUserViewModelCMr
_$s11LarkAccount11V3ViewModelCMa
_$s11LarkAccount11V3ViewModelCMr
_$s13LarkContainer8ProviderVy0A7Account14V3LoginServiceCGMa
_$s11LarkAccount14V3LoginServiceCMa
_$s11LarkAccount14V3LoginServiceCMr
_$s13LarkContainer8ProviderVy0A7Account17SwitchUserServiceCGMa
_$s11LarkAccount17SwitchUserServiceCMa
_$s11LarkAccount17SwitchUserServiceCMr
_$s13LarkContainer8ProviderVy0A7Account18EnvServiceProtocol_pGMa
_$s11LarkAccount18EnvServiceProtocol_pMa
_$s13LarkContainer8ProviderVMa
_$s13LarkContainer8ProviderVMi
_$s13LarkContainer8ProviderVy0A7Account28SwitchUserExchangeSessionAPI_pGMa
_$s11LarkAccount28SwitchUserExchangeSessionAPI_pMa
_$s13LarkContainer8ProviderVy0A7Account13SwitchUserAPICGMa
_$s11LarkAccount13SwitchUserAPICMa
_$s11LarkAccount13SwitchUserAPICMr
_$s11LarkAccount5APIV3CMa
_$s11LarkAccount5APIV3CMr
_$s13LarkContainer8ProviderVy0A7Account10HTTPClientCGMa
_$s11LarkAccount10HTTPClientCMa
_$s11LarkAccount10HTTPClientCMr
_$s13LarkContainer8ProviderVy0A7Account20PassportTokenManagerCGMa
_$s11LarkAccount20PassportTokenManagerCMa
_$s11LarkAccount20PassportTokenManagerCMr
_$s13LarkContainer8ProviderVy0A7Account18PassportDependency_pGMa
_$s11LarkAccount18PassportDependency_pMa
_$s13LarkContainer8ProviderVy0A7Account11V3APIHelperCGMa
_$s11LarkAccount11V3APIHelperCMa
_$s11LarkAccount11V3APIHelperCMr
_$s13LarkContainer8ProviderVy0A16AccountInterface13DeviceService_pGMa
_$s20LarkAccountInterface13DeviceService_pMa
_$s13LarkContainer8ProviderVy0A7Account10CaptchaAPI_pGMa
_$s11LarkAccount10CaptchaAPI_pMa
_$s13LarkContainer8ProviderVy0A7Account16SetDeviceInfoAPI_pGMa
_$s11LarkAccount16SetDeviceInfoAPI_pMa
_$s13LarkContainer8ProviderVy0A7Account29InternalDeviceServiceProtocol_pGMa
_$s11LarkAccount29InternalDeviceServiceProtocol_pMa
_$s13LarkContainer8ProviderVy0A7Account21PassportEventRegistryCGMa
_$s11LarkAccount21PassportEventRegistryCMa
_$s11LarkAccount21PassportEventRegistryCMr
_$s13LarkContainer8ProviderVy0A7Account18IDPServiceProtocol_pGMa
_$s11LarkAccount18IDPServiceProtocol_pMa
_$s13LarkContainer8ProviderVy0A7Account16SwitchEnvManagerCGMa
_$s11LarkAccount16SwitchEnvManagerCMa
_$s11LarkAccount16SwitchEnvManagerCMr
_$s11LarkAccount13SwitchEnvInfoVSgMa
_$s11LarkAccount13SwitchEnvInfoVMa
_$s11LarkAccount13SwitchEnvInfoVMr
_$s7LarkEnv0B0VMa
_$s13LarkContainer8ProviderVy0A7Account0D7ManagerCGMa
_$s11LarkAccount0B7ManagerCMa
_$s11LarkAccount0B7ManagerCMr
_$s20LarkAccountInterface0B0VSgMa
_$s20LarkAccountInterface0B0VMa
_$s13LarkContainer12InjectedLazyVy0A16AccountInterface13DeviceService_pGMa
_$s13LarkContainer12InjectedLazyVMa
_$s13LarkContainer12InjectedLazyVMi
_$s13LarkContainer12InjectedLazyVMr
_$s13LarkContainer12InjectedLazyVy0A7Account14V3LoginServiceCGMa
_$s13LarkContainer12InjectedLazyVy0A7Account8LauncherCGMa
_$s11LarkAccount8LauncherCMa
_$s11LarkAccount8LauncherCMr
_$s13LarkContainer12InjectedLazyVy0A7Account0E7ManagerCGMa
_$s13LarkContainer12InjectedLazyVy0A7Account22KaLoginInternalService_AD0fG2UI0aE9Interface0fgI0pGMa
_$s11LarkAccount22KaLoginInternalService_AA0cD2UI0aB9Interface0cdF0pMa
_$s13LarkContainer12InjectedLazyVy0A16AccountInterface14KaLoginService_pGMa
_$s20LarkAccountInterface14KaLoginService_pMa
_$s13LarkContainer8ProviderVy0A7Account24IDPBridgeServiceProtocol_AD08IDPLoginfG0pGMa
_$s11LarkAccount24IDPBridgeServiceProtocol_AA08IDPLogindE0pMa
_$s13LarkContainer12InjectedLazyVy0A16AccountInterface22ChatterManagerProtocol_pGMa
_$s20LarkAccountInterface22ChatterManagerProtocol_pMa
_$s13LarkContainer8ProviderVy0A7Account13LogoutServiceCGMa
_$s11LarkAccount13LogoutServiceCMa
_$s11LarkAccount13LogoutServiceCMr
_$s13LarkContainer8ProviderVy0A7Account16MigrationServiceCGMa
_$s11LarkAccount16MigrationServiceCMa
_$s11LarkAccount16MigrationServiceCMr
_$s7LarkEnv0B0VSgMa
_$s13LarkContainer8ProviderVy0A7Account10MigrateAPI_pGMa
_$s11LarkAccount10MigrateAPI_pMa
_$s13LarkContainer8ProviderVy0A7Account9LogoutAPI_pGMa
_$s11LarkAccount9LogoutAPI_pMa
_$s13LarkContainer8ProviderVy0A7Account8LauncherCGMa
_$s13LarkContainer8ProviderVy0A7Account07RecoverD3APICGMa
_$s11LarkAccount07RecoverB3APICMa
_$s11LarkAccount07RecoverB3APICMr
_$s13LarkContainer12InjectedLazyVy0A7Account22DisposableLoginManagerCGMa
_$s11LarkAccount22DisposableLoginManagerCMa
_$s11LarkAccount22DisposableLoginManagerCMr
_$s13LarkContainer12InjectedLazyVy0A7Account24DisposableLoginConfigAPI_pGMa
_$s11LarkAccount24DisposableLoginConfigAPI_pMa
_$s13LarkContainer12InjectedLazyVy10EEKeyValue16UserSpaceService_pGMa
_$s10EEKeyValue16UserSpaceService_pMa
_$s13LarkContainer12InjectedLazyVy0A7Account18PassportDependency_pGMa
_$s13LarkContainer8ProviderVy0A7Account18LanguageSettingAPI_pGMa
_$s11LarkAccount18LanguageSettingAPI_pMa
_$s13LarkContainer8ProviderVy0A7Account8LoginAPICGMa
_$s11LarkAccount8LoginAPICMa
_$s11LarkAccount8LoginAPICMr
_$s13LarkContainer8ProviderVy0A7Account0D7StorageCGMa
_$s11LarkAccount0B7StorageCMa
_$s11LarkAccount0B7StorageCMr
_$s13LarkContainer8ProviderVy10EEKeyValue16UserSpaceService_pGMa
_$s13LarkContainer8ProviderVy0A7Account17UnregisterUserAPI_pGMa
_$s11LarkAccount17UnregisterUserAPI_pMa
_$s13LarkContainer12InjectedLazyVy0A7Account13UnregisterAPICGMa
_$s11LarkAccount13UnregisterAPICMa
_$s11LarkAccount13UnregisterAPICMr
_$s11LarkAccount28SwitchUserBaseViewControllerCMa
_$s11LarkAccount28SwitchUserBaseViewControllerCMi
_$s11LarkAccount28SwitchUserBaseViewControllerCMr
_$s11LarkAccount18BaseViewControllerCMa
_$s11LarkAccount29SwitchVerifyPwdViewControllerCMa
_$s11LarkAccount29SwitchVerifyPwdViewControllerCMr
_$s11LarkAccount24SwitchVerifyPwdViewModelCMa
_$s11LarkAccount24SwitchVerifyPwdViewModelCMr
_$s11LarkAccount19SwitchVerifyPwdInfoCMa
_$s11LarkAccount19SwitchVerifyPwdInfoCAA06ServerF0AAWI
_$s11LarkAccount19SwitchVerifyPwdInfoCACSeAAWl
_$s11LarkAccount19SwitchVerifyPwdInfoCACSEAAWl
__GLOBAL__sub_I_app_new.cc
___cxx_global_var_init.3
___cxx_global_var_init.5
___cxx_global_var_init.7
___cxx_global_var_init.9
__ZNSt3__113unordered_mapIN4lynx4tasm13CSSPropertyIDENS1_5lepus5ValueENS_4hashIS3_EENS_8equal_toIS3_EENS_9allocatorINS_4pairIKS3_S5_EEEEEC1Ev
__ZNSt3__113unordered_mapIN4lynx4tasm13CSSPropertyIDENS1_5lepus5ValueENS_4hashIS3_EENS_8equal_toIS3_EENS_9allocatorINS_4pairIKS3_S5_EEEEEC2Ev
__ZNSt3__112__hash_tableINS_17__hash_value_typeIN4lynx4tasm13CSSPropertyIDENS2_5lepus5ValueEEENS_22__unordered_map_hasherIS4_S7_NS_4hashIS4_EELb1EEENS_21__unordered_map_equalIS4_S7_NS_8equal_toIS4_EELb1EEENS_9allocatorIS7_EEEC1Ev
__ZNSt3__112__hash_tableINS_17__hash_value_typeIN4lynx4tasm13CSSPropertyIDENS2_5lepus5ValueEEENS_22__unordered_map_hasherIS4_S7_NS_4hashIS4_EELb1EEENS_21__unordered_map_equalIS4_S7_NS_8equal_toIS4_EELb1EEENS_9allocatorIS7_EEEC2Ev
__ZNSt3__110unique_ptrIA_PNS_16__hash_node_baseIPNS_11__hash_nodeINS_17__hash_value_typeIN4lynx4tasm13CSSPropertyIDENS4_5lepus5ValueEEEPvEEEENS_25__bucket_list_deallocatorINS_9allocatorISE_EEEEEC1ILb1EvEEv
__ZNSt3__110unique_ptrIA_PNS_16__hash_node_baseIPNS_11__hash_nodeINS_17__hash_value_typeIN4lynx4tasm13CSSPropertyIDENS4_5lepus5ValueEEEPvEEEENS_25__bucket_list_deallocatorINS_9allocatorISE_EEEEEC2ILb1EvEEv
__ZNSt3__117__compressed_pairIPPNS_16__hash_node_baseIPNS_11__hash_nodeINS_17__hash_value_typeIN4lynx4tasm13CSSPropertyIDENS4_5lepus5ValueEEEPvEEEENS_25__bucket_list_deallocatorINS_9allocatorISE_EEEEEC1ISF_NS_18__default_init_tagEEEOT_OT0_
__ZNSt3__117__compressed_pairIPPNS_16__hash_node_baseIPNS_11__hash_nodeINS_17__hash_value_typeIN4lynx4tasm13CSSPropertyIDENS4_5lepus5ValueEEEPvEEEENS_25__bucket_list_deallocatorINS_9allocatorISE_EEEEEC2ISF_NS_18__default_init_tagEEEOT_OT0_
__ZNSt3__1L7forwardIPPNS_16__hash_node_baseIPNS_11__hash_nodeINS_17__hash_value_typeIN4lynx4tasm13CSSPropertyIDENS4_5lepus5ValueEEEPvEEEEEEOT_RNS_16remove_referenceISG_E4typeE
__ZNSt3__122__compressed_pair_elemIPPNS_16__hash_node_baseIPNS_11__hash_nodeINS_17__hash_value_typeIN4lynx4tasm13CSSPropertyIDENS4_5lepus5ValueEEEPvEEEELi0ELb0EEC2ISF_vEEOT_
__ZNSt3__122__compressed_pair_elemINS_25__bucket_list_deallocatorINS_9allocatorIPNS_16__hash_node_baseIPNS_11__hash_nodeINS_17__hash_value_typeIN4lynx4tasm13CSSPropertyIDENS6_5lepus5ValueEEEPvEEEEEEEELi1ELb0EEC2ENS_18__default_init_tagE
__ZNSt3__125__bucket_list_deallocatorINS_9allocatorIPNS_16__hash_node_baseIPNS_11__hash_nodeINS_17__hash_value_typeIN4lynx4tasm13CSSPropertyIDENS5_5lepus5ValueEEEPvEEEEEEEC1Ev
__ZNSt3__125__bucket_list_deallocatorINS_9allocatorIPNS_16__hash_node_baseIPNS_11__hash_nodeINS_17__hash_value_typeIN4lynx4tasm13CSSPropertyIDENS5_5lepus5ValueEEEPvEEEEEEEC2Ev
__ZNSt3__117__compressed_pairImNS_9allocatorIPNS_16__hash_node_baseIPNS_11__hash_nodeINS_17__hash_value_typeIN4lynx4tasm13CSSPropertyIDENS5_5lepus5ValueEEEPvEEEEEEEC1IiNS_18__default_init_tagEEEOT_OT0_
__ZNSt3__117__compressed_pairImNS_9allocatorIPNS_16__hash_node_baseIPNS_11__hash_nodeINS_17__hash_value_typeIN4lynx4tasm13CSSPropertyIDENS5_5lepus5ValueEEEPvEEEEEEEC2IiNS_18__default_init_tagEEEOT_OT0_
__ZNSt3__122__compressed_pair_elemINS_9allocatorIPNS_16__hash_node_baseIPNS_11__hash_nodeINS_17__hash_value_typeIN4lynx4tasm13CSSPropertyIDENS5_5lepus5ValueEEEPvEEEEEELi1ELb1EEC2ENS_18__default_init_tagE
__ZNSt3__19allocatorIPNS_16__hash_node_baseIPNS_11__hash_nodeINS_17__hash_value_typeIN4lynx4tasm13CSSPropertyIDENS4_5lepus5ValueEEEPvEEEEEC2Ev
__ZNSt3__117__compressed_pairINS_16__hash_node_baseIPNS_11__hash_nodeINS_17__hash_value_typeIN4lynx4tasm13CSSPropertyIDENS4_5lepus5ValueEEEPvEEEENS_9allocatorISB_EEEC1ILb1EvEEv
__ZNSt3__117__compressed_pairINS_16__hash_node_baseIPNS_11__hash_nodeINS_17__hash_value_typeIN4lynx4tasm13CSSPropertyIDENS4_5lepus5ValueEEEPvEEEENS_9allocatorISB_EEEC2ILb1EvEEv
__ZNSt3__122__compressed_pair_elemINS_16__hash_node_baseIPNS_11__hash_nodeINS_17__hash_value_typeIN4lynx4tasm13CSSPropertyIDENS4_5lepus5ValueEEEPvEEEELi0ELb0EEC2ENS_16__value_init_tagE
__ZNSt3__116__hash_node_baseIPNS_11__hash_nodeINS_17__hash_value_typeIN4lynx4tasm13CSSPropertyIDENS3_5lepus5ValueEEEPvEEEC1Ev
__ZNSt3__116__hash_node_baseIPNS_11__hash_nodeINS_17__hash_value_typeIN4lynx4tasm13CSSPropertyIDENS3_5lepus5ValueEEEPvEEEC2Ev
__ZNSt3__122__compressed_pair_elemINS_9allocatorINS_11__hash_nodeINS_17__hash_value_typeIN4lynx4tasm13CSSPropertyIDENS4_5lepus5ValueEEEPvEEEELi1ELb1EEC2ENS_16__value_init_tagE
__ZNSt3__19allocatorINS_11__hash_nodeINS_17__hash_value_typeIN4lynx4tasm13CSSPropertyIDENS3_5lepus5ValueEEEPvEEEC2Ev
__ZNSt3__117__compressed_pairImNS_22__unordered_map_hasherIN4lynx4tasm13CSSPropertyIDENS_17__hash_value_typeIS4_NS2_5lepus5ValueEEENS_4hashIS4_EELb1EEEEC1IiNS_18__default_init_tagEEEOT_OT0_
__ZNSt3__117__compressed_pairImNS_22__unordered_map_hasherIN4lynx4tasm13CSSPropertyIDENS_17__hash_value_typeIS4_NS2_5lepus5ValueEEENS_4hashIS4_EELb1EEEEC2IiNS_18__default_init_tagEEEOT_OT0_
__ZNSt3__122__compressed_pair_elemINS_22__unordered_map_hasherIN4lynx4tasm13CSSPropertyIDENS_17__hash_value_typeIS4_NS2_5lepus5ValueEEENS_4hashIS4_EELb1EEELi1ELb1EEC2ENS_18__default_init_tagE
__ZNSt3__122__unordered_map_hasherIN4lynx4tasm13CSSPropertyIDENS_17__hash_value_typeIS3_NS1_5lepus5ValueEEENS_4hashIS3_EELb1EEC2Ev
__ZNSt3__117__compressed_pairIfNS_21__unordered_map_equalIN4lynx4tasm13CSSPropertyIDENS_17__hash_value_typeIS4_NS2_5lepus5ValueEEENS_8equal_toIS4_EELb1EEEEC1IfNS_18__default_init_tagEEEOT_OT0_
__ZNSt3__117__compressed_pairIfNS_21__unordered_map_equalIN4lynx4tasm13CSSPropertyIDENS_17__hash_value_typeIS4_NS2_5lepus5ValueEEENS_8equal_toIS4_EELb1EEEEC2IfNS_18__default_init_tagEEEOT_OT0_
__ZNSt3__122__compressed_pair_elemINS_21__unordered_map_equalIN4lynx4tasm13CSSPropertyIDENS_17__hash_value_typeIS4_NS2_5lepus5ValueEEENS_8equal_toIS4_EELb1EEELi1ELb1EEC2ENS_18__default_init_tagE
__ZNSt3__121__unordered_map_equalIN4lynx4tasm13CSSPropertyIDENS_17__hash_value_typeIS3_NS1_5lepus5ValueEEENS_8equal_toIS3_EELb1EEC2Ev
___cxx_global_var_init.10
___cxx_global_var_init.11
___cxx_global_var_init.12
___cxx_global_var_init.13
___cxx_global_var_init.14
___cxx_global_var_init.15
___cxx_global_var_init.16
___cxx_global_var_init.17
___cxx_global_var_init.18
___cxx_global_var_init.19
___cxx_global_var_init.20
___cxx_global_var_init.21
__GLOBAL__sub_I_backtrace.cc
__ZNSt3__110unique_ptrIN4lynx6common5debug17BacktraceDelegateENS_14default_deleteIS4_EEEC1ILb1EvEEDn
__ZNSt3__110unique_ptrIN4lynx6common5debug17BacktraceDelegateENS_14default_deleteIS4_EEEC2ILb1EvEEDn
__ZNSt3__117__compressed_pairIPN4lynx6common5debug17BacktraceDelegateENS_14default_deleteIS4_EEEC1IS5_NS_18__default_init_tagEEEOT_OT0_
__ZNSt3__117__compressed_pairIPN4lynx6common5debug17BacktraceDelegateENS_14default_deleteIS4_EEEC2IS5_NS_18__default_init_tagEEEOT_OT0_
__ZNSt3__1L7forwardIPN4lynx6common5debug17BacktraceDelegateEEEOT_RNS_16remove_referenceIS6_E4typeE
__ZNSt3__122__compressed_pair_elemIPN4lynx6common5debug17BacktraceDelegateELi0ELb0EEC2IS5_vEEOT_
__ZNSt3__122__compressed_pair_elemINS_14default_deleteIN4lynx6common5debug17BacktraceDelegateEEELi1ELb1EEC2ENS_18__default_init_tagE
__GLOBAL__sub_I_box_info.cc
___cxx_global_var_init.4
___cxx_global_var_init.6
___cxx_global_var_init.8
__GLOBAL__sub_I_cache_manager.cc
__GLOBAL__sub_I_catalyzer.cc
__GLOBAL__sub_I_component_underground_hub.cc
__GLOBAL__sub_I_component_underground_hub_darwin.mm
__GLOBAL__sub_I_computed_css_style.cc
__ZNSt3__14pairIKNS_12basic_stringIcNS_11char_traitsIcEENS_9allocatorIcEEEEMN4lynx9starlight16ComputedCSSStyleEFbRS7_bEEC1ILb1ELb0EEESB_RKSD_
__ZNSt3__14pairIKNS_12basic_stringIcNS_11char_traitsIcEENS_9allocatorIcEEEEMN4lynx9starlight16ComputedCSSStyleEFbRS7_bEEC2ILb1ELb0EEESB_RKSD_
__ZNSt3__14pairIKNS_12basic_stringIcNS_11char_traitsIcEENS_9allocatorIcEEEEMN4lynx9starlight16ComputedCSSStyleEFbRS7_bEEC1IRA5_KcSD_Lb0EEEOT_OT0_
__ZNSt3__14pairIKNS_12basic_stringIcNS_11char_traitsIcEENS_9allocatorIcEEEEMN4lynx9starlight16ComputedCSSStyleEFbRS7_bEEC2IRA5_KcSD_Lb0EEEOT_OT0_
__ZNSt3__1L7forwardIRA5_KcEEOT_RNS_16remove_referenceIS4_E4typeE
__ZNSt3__1L7forwardIMN4lynx9starlight16ComputedCSSStyleEFbRKNS_12basic_stringIcNS_11char_traitsIcEENS_9allocatorIcEEEEbEEEOT_RNS_16remove_referenceISE_E4typeE
__ZNSt3__14pairIKNS_12basic_stringIcNS_11char_traitsIcEENS_9allocatorIcEEEEMN4lynx9starlight16ComputedCSSStyleEFbRS7_bEEC1IRA7_KcSD_Lb0EEEOT_OT0_
__ZNSt3__14pairIKNS_12basic_stringIcNS_11char_traitsIcEENS_9allocatorIcEEEEMN4lynx9starlight16ComputedCSSStyleEFbRS7_bEEC2IRA7_KcSD_Lb0EEEOT_OT0_
__ZNSt3__1L7forwardIRA7_KcEEOT_RNS_16remove_referenceIS4_E4typeE
__ZNSt3__14pairIKNS_12basic_stringIcNS_11char_traitsIcEENS_9allocatorIcEEEEMN4lynx9starlight16ComputedCSSStyleEFbRS7_bEEC1IRA13_KcSD_Lb0EEEOT_OT0_
__ZNSt3__14pairIKNS_12basic_stringIcNS_11char_traitsIcEENS_9allocatorIcEEEEMN4lynx9starlight16ComputedCSSStyleEFbRS7_bEEC2IRA13_KcSD_Lb0EEEOT_OT0_
__ZNSt3__1L7forwardIRA13_KcEEOT_RNS_16remove_referenceIS4_E4typeE
__ZNSt3__14pairIKNS_12basic_stringIcNS_11char_traitsIcEENS_9allocatorIcEEEEMN4lynx9starlight16ComputedCSSStyleEFbRS7_bEEC1IRA12_KcSD_Lb0EEEOT_OT0_
__ZNSt3__14pairIKNS_12basic_stringIcNS_11char_traitsIcEENS_9allocatorIcEEEEMN4lynx9starlight16ComputedCSSStyleEFbRS7_bEEC2IRA12_KcSD_Lb0EEEOT_OT0_
__ZNSt3__1L7forwardIRA12_KcEEOT_RNS_16remove_referenceIS4_E4typeE
__ZNSt3__14pairIKNS_12basic_stringIcNS_11char_traitsIcEENS_9allocatorIcEEEEMN4lynx9starlight16ComputedCSSStyleEFbRS7_bEEC1IRA11_KcSD_Lb0EEEOT_OT0_
__ZNSt3__14pairIKNS_12basic_stringIcNS_11char_traitsIcEENS_9allocatorIcEEEEMN4lynx9starlight16ComputedCSSStyleEFbRS7_bEEC2IRA11_KcSD_Lb0EEEOT_OT0_
__ZNSt3__1L7forwardIRA11_KcEEOT_RNS_16remove_referenceIS4_E4typeE
__ZNSt3__14pairIKNS_12basic_stringIcNS_11char_traitsIcEENS_9allocatorIcEEEEMN4lynx9starlight16ComputedCSSStyleEFbRS7_bEEC1IRA14_KcSD_Lb0EEEOT_OT0_
__ZNSt3__14pairIKNS_12basic_stringIcNS_11char_traitsIcEENS_9allocatorIcEEEEMN4lynx9starlight16ComputedCSSStyleEFbRS7_bEEC2IRA14_KcSD_Lb0EEEOT_OT0_
__ZNSt3__1L7forwardIRA14_KcEEOT_RNS_16remove_referenceIS4_E4typeE
__ZNSt3__113unordered_mapINS_12basic_stringIcNS_11char_traitsIcEENS_9allocatorIcEEEEMN4lynx9starlight16ComputedCSSStyleEFbRKS6_bENS_4hashIS6_EENS_8equal_toIS6_EENS4_INS_4pairISA_SD_EEEEEC1ESt16initializer_listISJ_E
__ZNSt3__113unordered_mapINS_12basic_stringIcNS_11char_traitsIcEENS_9allocatorIcEEEEMN4lynx9starlight16ComputedCSSStyleEFbRKS6_bENS_4hashIS6_EENS_8equal_toIS6_EENS4_INS_4pairISA_SD_EEEEEC2ESt16initializer_listISJ_E
__ZNSt3__112__hash_tableINS_17__hash_value_typeINS_12basic_stringIcNS_11char_traitsIcEENS_9allocatorIcEEEEMN4lynx9starlight16ComputedCSSStyleEFbRKS7_bEEENS_22__unordered_map_hasherIS7_SF_NS_4hashIS7_EELb1EEENS_21__unordered_map_equalIS7_SF_NS_8equal_toIS7_EELb1EEENS5_ISF_EEEC1Ev
__ZNSt3__112__hash_tableINS_17__hash_value_typeINS_12basic_stringIcNS_11char_traitsIcEENS_9allocatorIcEEEEMN4lynx9starlight16ComputedCSSStyleEFbRKS7_bEEENS_22__unordered_map_hasherIS7_SF_NS_4hashIS7_EELb1EEENS_21__unordered_map_equalIS7_SF_NS_8equal_toIS7_EELb1EEENS5_ISF_EEEC2Ev
__ZNSt3__110unique_ptrIA_PNS_16__hash_node_baseIPNS_11__hash_nodeINS_17__hash_value_typeINS_12basic_stringIcNS_11char_traitsIcEENS_9allocatorIcEEEEMN4lynx9starlight16ComputedCSSStyleEFbRKS9_bEEEPvEEEENS_25__bucket_list_deallocatorINS7_ISM_EEEEEC1ILb1EvEEv
__ZNSt3__110unique_ptrIA_PNS_16__hash_node_baseIPNS_11__hash_nodeINS_17__hash_value_typeINS_12basic_stringIcNS_11char_traitsIcEENS_9allocatorIcEEEEMN4lynx9starlight16ComputedCSSStyleEFbRKS9_bEEEPvEEEENS_25__bucket_list_deallocatorINS7_ISM_EEEEEC2ILb1EvEEv
__ZNSt3__117__compressed_pairIPPNS_16__hash_node_baseIPNS_11__hash_nodeINS_17__hash_value_typeINS_12basic_stringIcNS_11char_traitsIcEENS_9allocatorIcEEEEMN4lynx9starlight16ComputedCSSStyleEFbRKS9_bEEEPvEEEENS_25__bucket_list_deallocatorINS7_ISM_EEEEEC1ISN_NS_18__default_init_tagEEEOT_OT0_
__ZNSt3__117__compressed_pairIPPNS_16__hash_node_baseIPNS_11__hash_nodeINS_17__hash_value_typeINS_12basic_stringIcNS_11char_traitsIcEENS_9allocatorIcEEEEMN4lynx9starlight16ComputedCSSStyleEFbRKS9_bEEEPvEEEENS_25__bucket_list_deallocatorINS7_ISM_EEEEEC2ISN_NS_18__default_init_tagEEEOT_OT0_
__ZNSt3__1L7forwardIPPNS_16__hash_node_baseIPNS_11__hash_nodeINS_17__hash_value_typeINS_12basic_stringIcNS_11char_traitsIcEENS_9allocatorIcEEEEMN4lynx9starlight16ComputedCSSStyleEFbRKS9_bEEEPvEEEEEEOT_RNS_16remove_referenceISO_E4typeE
__ZNSt3__122__compressed_pair_elemIPPNS_16__hash_node_baseIPNS_11__hash_nodeINS_17__hash_value_typeINS_12basic_stringIcNS_11char_traitsIcEENS_9allocatorIcEEEEMN4lynx9starlight16ComputedCSSStyleEFbRKS9_bEEEPvEEEELi0ELb0EEC2ISN_vEEOT_
__ZNSt3__122__compressed_pair_elemINS_25__bucket_list_deallocatorINS_9allocatorIPNS_16__hash_node_baseIPNS_11__hash_nodeINS_17__hash_value_typeINS_12basic_stringIcNS_11char_traitsIcEENS2_IcEEEEMN4lynx9starlight16ComputedCSSStyleEFbRKSA_bEEEPvEEEEEEEELi1ELb0EEC2ENS_18__default_init_tagE
__ZNSt3__125__bucket_list_deallocatorINS_9allocatorIPNS_16__hash_node_baseIPNS_11__hash_nodeINS_17__hash_value_typeINS_12basic_stringIcNS_11char_traitsIcEENS1_IcEEEEMN4lynx9starlight16ComputedCSSStyleEFbRKS9_bEEEPvEEEEEEEC1Ev
__ZNSt3__125__bucket_list_deallocatorINS_9allocatorIPNS_16__hash_node_baseIPNS_11__hash_nodeINS_17__hash_value_typeINS_12basic_stringIcNS_11char_traitsIcEENS1_IcEEEEMN4lynx9starlight16ComputedCSSStyleEFbRKS9_bEEEPvEEEEEEEC2Ev
__ZNSt3__117__compressed_pairImNS_9allocatorIPNS_16__hash_node_baseIPNS_11__hash_nodeINS_17__hash_value_typeINS_12basic_stringIcNS_11char_traitsIcEENS1_IcEEEEMN4lynx9starlight16ComputedCSSStyleEFbRKS9_bEEEPvEEEEEEEC1IiNS_18__default_init_tagEEEOT_OT0_
__ZNSt3__117__compressed_pairImNS_9allocatorIPNS_16__hash_node_baseIPNS_11__hash_nodeINS_17__hash_value_typeINS_12basic_stringIcNS_11char_traitsIcEENS1_IcEEEEMN4lynx9starlight16ComputedCSSStyleEFbRKS9_bEEEPvEEEEEEEC2IiNS_18__default_init_tagEEEOT_OT0_
__ZNSt3__122__compressed_pair_elemINS_9allocatorIPNS_16__hash_node_baseIPNS_11__hash_nodeINS_17__hash_value_typeINS_12basic_stringIcNS_11char_traitsIcEENS1_IcEEEEMN4lynx9starlight16ComputedCSSStyleEFbRKS9_bEEEPvEEEEEELi1ELb1EEC2ENS_18__default_init_tagE
__ZNSt3__19allocatorIPNS_16__hash_node_baseIPNS_11__hash_nodeINS_17__hash_value_typeINS_12basic_stringIcNS_11char_traitsIcEENS0_IcEEEEMN4lynx9starlight16ComputedCSSStyleEFbRKS8_bEEEPvEEEEEC2Ev
__ZNSt3__117__compressed_pairINS_16__hash_node_baseIPNS_11__hash_nodeINS_17__hash_value_typeINS_12basic_stringIcNS_11char_traitsIcEENS_9allocatorIcEEEEMN4lynx9starlight16ComputedCSSStyleEFbRKS9_bEEEPvEEEENS7_ISJ_EEEC1ILb1EvEEv
__ZNSt3__117__compressed_pairINS_16__hash_node_baseIPNS_11__hash_nodeINS_17__hash_value_typeINS_12basic_stringIcNS_11char_traitsIcEENS_9allocatorIcEEEEMN4lynx9starlight16ComputedCSSStyleEFbRKS9_bEEEPvEEEENS7_ISJ_EEEC2ILb1EvEEv
__ZNSt3__122__compressed_pair_elemINS_16__hash_node_baseIPNS_11__hash_nodeINS_17__hash_value_typeINS_12basic_stringIcNS_11char_traitsIcEENS_9allocatorIcEEEEMN4lynx9starlight16ComputedCSSStyleEFbRKS9_bEEEPvEEEELi0ELb0EEC2ENS_16__value_init_tagE
__ZNSt3__116__hash_node_baseIPNS_11__hash_nodeINS_17__hash_value_typeINS_12basic_stringIcNS_11char_traitsIcEENS_9allocatorIcEEEEMN4lynx9starlight16ComputedCSSStyleEFbRKS8_bEEEPvEEEC1Ev
__ZNSt3__116__hash_node_baseIPNS_11__hash_nodeINS_17__hash_value_typeINS_12basic_stringIcNS_11char_traitsIcEENS_9allocatorIcEEEEMN4lynx9starlight16ComputedCSSStyleEFbRKS8_bEEEPvEEEC2Ev
__ZNSt3__122__compressed_pair_elemINS_9allocatorINS_11__hash_nodeINS_17__hash_value_typeINS_12basic_stringIcNS_11char_traitsIcEENS1_IcEEEEMN4lynx9starlight16ComputedCSSStyleEFbRKS8_bEEEPvEEEELi1ELb1EEC2ENS_16__value_init_tagE
__ZNSt3__19allocatorINS_11__hash_nodeINS_17__hash_value_typeINS_12basic_stringIcNS_11char_traitsIcEENS0_IcEEEEMN4lynx9starlight16ComputedCSSStyleEFbRKS7_bEEEPvEEEC2Ev
__ZNSt3__117__compressed_pairImNS_22__unordered_map_hasherINS_12basic_stringIcNS_11char_traitsIcEENS_9allocatorIcEEEENS_17__hash_value_typeIS7_MN4lynx9starlight16ComputedCSSStyleEFbRKS7_bEEENS_4hashIS7_EELb1EEEEC1IiNS_18__default_init_tagEEEOT_OT0_
__ZNSt3__117__compressed_pairImNS_22__unordered_map_hasherINS_12basic_stringIcNS_11char_traitsIcEENS_9allocatorIcEEEENS_17__hash_value_typeIS7_MN4lynx9starlight16ComputedCSSStyleEFbRKS7_bEEENS_4hashIS7_EELb1EEEEC2IiNS_18__default_init_tagEEEOT_OT0_
__ZNSt3__122__compressed_pair_elemINS_22__unordered_map_hasherINS_12basic_stringIcNS_11char_traitsIcEENS_9allocatorIcEEEENS_17__hash_value_typeIS7_MN4lynx9starlight16ComputedCSSStyleEFbRKS7_bEEENS_4hashIS7_EELb1EEELi1ELb1EEC2ENS_18__default_init_tagE
__ZNSt3__122__unordered_map_hasherINS_12basic_stringIcNS_11char_traitsIcEENS_9allocatorIcEEEENS_17__hash_value_typeIS6_MN4lynx9starlight16ComputedCSSStyleEFbRKS6_bEEENS_4hashIS6_EELb1EEC2Ev
__ZNSt3__117__compressed_pairIfNS_21__unordered_map_equalINS_12basic_stringIcNS_11char_traitsIcEENS_9allocatorIcEEEENS_17__hash_value_typeIS7_MN4lynx9starlight16ComputedCSSStyleEFbRKS7_bEEENS_8equal_toIS7_EELb1EEEEC1IfNS_18__default_init_tagEEEOT_OT0_
__ZNSt3__117__compressed_pairIfNS_21__unordered_map_equalINS_12basic_stringIcNS_11char_traitsIcEENS_9allocatorIcEEEENS_17__hash_value_typeIS7_MN4lynx9starlight16ComputedCSSStyleEFbRKS7_bEEENS_8equal_toIS7_EELb1EEEEC2IfNS_18__default_init_tagEEEOT_OT0_
__ZNSt3__122__compressed_pair_elemINS_21__unordered_map_equalINS_12basic_stringIcNS_11char_traitsIcEENS_9allocatorIcEEEENS_17__hash_value_typeIS7_MN4lynx9starlight16ComputedCSSStyleEFbRKS7_bEEENS_8equal_toIS7_EELb1EEELi1ELb1EEC2ENS_18__default_init_tagE
__ZNSt3__121__unordered_map_equalINS_12basic_stringIcNS_11char_traitsIcEENS_9allocatorIcEEEENS_17__hash_value_typeIS6_MN4lynx9starlight16ComputedCSSStyleEFbRKS6_bEEENS_8equal_toIS6_EELb1EEC2Ev
__ZNKSt16initializer_listINSt3__14pairIKNS0_12basic_stringIcNS0_11char_traitsIcEENS0_9allocatorIcEEEEMN4lynx9starlight16ComputedCSSStyleEFbRS8_bEEEE5beginEv
__ZNKSt16initializer_listINSt3__14pairIKNS0_12basic_stringIcNS0_11char_traitsIcEENS0_9allocatorIcEEEEMN4lynx9starlight16ComputedCSSStyleEFbRS8_bEEEE3endEv
__ZNSt3__113unordered_mapINS_12basic_stringIcNS_11char_traitsIcEENS_9allocatorIcEEEEMN4lynx9starlight16ComputedCSSStyleEFbRKS6_bENS_4hashIS6_EENS_8equal_toIS6_EENS4_INS_4pairISA_SD_EEEEE6insertIPKSJ_EEvT_SP_
__ZNSt3__112__hash_tableINS_17__hash_value_typeINS_12basic_stringIcNS_11char_traitsIcEENS_9allocatorIcEEEEMN4lynx9starlight16ComputedCSSStyleEFbRKS7_bEEENS_22__unordered_map_hasherIS7_SF_NS_4hashIS7_EELb1EEENS_21__unordered_map_equalIS7_SF_NS_8equal_toIS7_EELb1EEENS5_ISF_EEE15__insert_uniqueERKNS_4pairISB_SE_EE
__ZNSt3__122__hash_key_value_typesINS_17__hash_value_typeINS_12basic_stringIcNS_11char_traitsIcEENS_9allocatorIcEEEEMN4lynx9starlight16ComputedCSSStyleEFbRKS7_bEEEE9__get_keyERKNS_4pairISB_SE_EE
__ZNSt3__112__hash_tableINS_17__hash_value_typeINS_12basic_stringIcNS_11char_traitsIcEENS_9allocatorIcEEEEMN4lynx9starlight16ComputedCSSStyleEFbRKS7_bEEENS_22__unordered_map_hasherIS7_SF_NS_4hashIS7_EELb1EEENS_21__unordered_map_equalIS7_SF_NS_8equal_toIS7_EELb1EEENS5_ISF_EEE25__emplace_unique_key_argsIS7_JRKNS_4pairISB_SE_EEEEENSR_INS_15__hash_iteratorIPNS_11__hash_nodeISF_PvEEEEbEERKT_DpOT0_
__ZNSt3__112__hash_tableINS_17__hash_value_typeINS_12basic_stringIcNS_11char_traitsIcEENS_9allocatorIcEEEEMN4lynx9starlight16ComputedCSSStyleEFbRKS7_bEEENS_22__unordered_map_hasherIS7_SF_NS_4hashIS7_EELb1EEENS_21__unordered_map_equalIS7_SF_NS_8equal_toIS7_EELb1EEENS5_ISF_EEE13hash_functionEv
__ZNSt3__117__compressed_pairImNS_22__unordered_map_hasherINS_12basic_stringIcNS_11char_traitsIcEENS_9allocatorIcEEEENS_17__hash_value_typeIS7_MN4lynx9starlight16ComputedCSSStyleEFbRKS7_bEEENS_4hashIS7_EELb1EEEE6secondEv
__ZNSt3__122__compressed_pair_elemINS_22__unordered_map_hasherINS_12basic_stringIcNS_11char_traitsIcEENS_9allocatorIcEEEENS_17__hash_value_typeIS7_MN4lynx9starlight16ComputedCSSStyleEFbRKS7_bEEENS_4hashIS7_EELb1EEELi1ELb1EE5__getEv
__ZNKSt3__122__unordered_map_hasherINS_12basic_stringIcNS_11char_traitsIcEENS_9allocatorIcEEEENS_17__hash_value_typeIS6_MN4lynx9starlight16ComputedCSSStyleEFbRKS6_bEEENS_4hashIS6_EELb1EEclESC_
__ZNKSt3__112__hash_tableINS_17__hash_value_typeINS_12basic_stringIcNS_11char_traitsIcEENS_9allocatorIcEEEEMN4lynx9starlight16ComputedCSSStyleEFbRKS7_bEEENS_22__unordered_map_hasherIS7_SF_NS_4hashIS7_EELb1EEENS_21__unordered_map_equalIS7_SF_NS_8equal_toIS7_EELb1EEENS5_ISF_EEE12bucket_countEv
__ZNKSt3__110unique_ptrIA_PNS_16__hash_node_baseIPNS_11__hash_nodeINS_17__hash_value_typeINS_12basic_stringIcNS_11char_traitsIcEENS_9allocatorIcEEEEMN4lynx9starlight16ComputedCSSStyleEFbRKS9_bEEEPvEEEENS_25__bucket_list_deallocatorINS7_ISM_EEEEE11get_deleterEv
__ZNKSt3__117__compressed_pairIPPNS_16__hash_node_baseIPNS_11__hash_nodeINS_17__hash_value_typeINS_12basic_stringIcNS_11char_traitsIcEENS_9allocatorIcEEEEMN4lynx9starlight16ComputedCSSStyleEFbRKS9_bEEEPvEEEENS_25__bucket_list_deallocatorINS7_ISM_EEEEE6secondEv
__ZNKSt3__122__compressed_pair_elemINS_25__bucket_list_deallocatorINS_9allocatorIPNS_16__hash_node_baseIPNS_11__hash_nodeINS_17__hash_value_typeINS_12basic_stringIcNS_11char_traitsIcEENS2_IcEEEEMN4lynx9starlight16ComputedCSSStyleEFbRKSA_bEEEPvEEEEEEEELi1ELb0EE5__getEv
__ZNKSt3__125__bucket_list_deallocatorINS_9allocatorIPNS_16__hash_node_baseIPNS_11__hash_nodeINS_17__hash_value_typeINS_12basic_stringIcNS_11char_traitsIcEENS1_IcEEEEMN4lynx9starlight16ComputedCSSStyleEFbRKS9_bEEEPvEEEEEEE4sizeEv
__ZNKSt3__117__compressed_pairImNS_9allocatorIPNS_16__hash_node_baseIPNS_11__hash_nodeINS_17__hash_value_typeINS_12basic_stringIcNS_11char_traitsIcEENS1_IcEEEEMN4lynx9starlight16ComputedCSSStyleEFbRKS9_bEEEPvEEEEEEE5firstEv
__ZNSt3__1L7forwardIRKNS_4pairIKNS_12basic_stringIcNS_11char_traitsIcEENS_9allocatorIcEEEEMN4lynx9starlight16ComputedCSSStyleEFbRS8_bEEEEEOT_RNS_16remove_referenceISI_E4typeE
__ZNSt3__112__hash_tableINS_17__hash_value_typeINS_12basic_stringIcNS_11char_traitsIcEENS_9allocatorIcEEEEMN4lynx9starlight16ComputedCSSStyleEFbRKS7_bEEENS_22__unordered_map_hasherIS7_SF_NS_4hashIS7_EELb1EEENS_21__unordered_map_equalIS7_SF_NS_8equal_toIS7_EELb1EEENS5_ISF_EEE21__construct_node_hashIRKNS_4pairISB_SE_EEJEEENS_10unique_ptrINS_11__hash_nodeISF_PvEENS_22__hash_node_destructorINS5_ISY_EEEEEEmOT_DpOT0_
__ZNSt3__112__hash_tableINS_17__hash_value_typeINS_12basic_stringIcNS_11char_traitsIcEENS_9allocatorIcEEEEMN4lynx9starlight16ComputedCSSStyleEFbRKS7_bEEENS_22__unordered_map_hasherIS7_SF_NS_4hashIS7_EELb1EEENS_21__unordered_map_equalIS7_SF_NS_8equal_toIS7_EELb1EEENS5_ISF_EEE12__node_allocEv
__ZNSt3__117__compressed_pairINS_16__hash_node_baseIPNS_11__hash_nodeINS_17__hash_value_typeINS_12basic_stringIcNS_11char_traitsIcEENS_9allocatorIcEEEEMN4lynx9starlight16ComputedCSSStyleEFbRKS9_bEEEPvEEEENS7_ISJ_EEE6secondEv
__ZNSt3__122__compressed_pair_elemINS_9allocatorINS_11__hash_nodeINS_17__hash_value_typeINS_12basic_stringIcNS_11char_traitsIcEENS1_IcEEEEMN4lynx9starlight16ComputedCSSStyleEFbRKS8_bEEEPvEEEELi1ELb1EE5__getEv
__ZNSt3__116allocator_traitsINS_9allocatorINS_11__hash_nodeINS_17__hash_value_typeINS_12basic_stringIcNS_11char_traitsIcEENS1_IcEEEEMN4lynx9starlight16ComputedCSSStyleEFbRKS8_bEEEPvEEEEE8allocateERSJ_m
__ZNSt3__19allocatorINS_11__hash_nodeINS_17__hash_value_typeINS_12basic_stringIcNS_11char_traitsIcEENS0_IcEEEEMN4lynx9starlight16ComputedCSSStyleEFbRKS7_bEEEPvEEE8allocateEmPKv
__ZNKSt3__19allocatorINS_11__hash_nodeINS_17__hash_value_typeINS_12basic_stringIcNS_11char_traitsIcEENS0_IcEEEEMN4lynx9starlight16ComputedCSSStyleEFbRKS7_bEEEPvEEE8max_sizeEv
__ZNSt3__122__hash_node_destructorINS_9allocatorINS_11__hash_nodeINS_17__hash_value_typeINS_12basic_stringIcNS_11char_traitsIcEENS1_IcEEEEMN4lynx9starlight16ComputedCSSStyleEFbRKS8_bEEEPvEEEEEC1ERSJ_b
__ZNSt3__122__hash_node_destructorINS_9allocatorINS_11__hash_nodeINS_17__hash_value_typeINS_12basic_stringIcNS_11char_traitsIcEENS1_IcEEEEMN4lynx9starlight16ComputedCSSStyleEFbRKS8_bEEEPvEEEEEC2ERSJ_b
__ZNSt3__110unique_ptrINS_11__hash_nodeINS_17__hash_value_typeINS_12basic_stringIcNS_11char_traitsIcEENS_9allocatorIcEEEEMN4lynx9starlight16ComputedCSSStyleEFbRKS8_bEEEPvEENS_22__hash_node_destructorINS6_ISI_EEEEEC1ILb1EvEEPSI_NS_16__dependent_typeINS_27__unique_ptr_deleter_sfinaeISL_EEXT_EE20__good_rval_ref_typeE
__ZNSt3__110unique_ptrINS_11__hash_nodeINS_17__hash_value_typeINS_12basic_stringIcNS_11char_traitsIcEENS_9allocatorIcEEEEMN4lynx9starlight16ComputedCSSStyleEFbRKS8_bEEEPvEENS_22__hash_node_destructorINS6_ISI_EEEEEC2ILb1EvEEPSI_NS_16__dependent_typeINS_27__unique_ptr_deleter_sfinaeISL_EEXT_EE20__good_rval_ref_typeE
__ZNSt3__1L4moveIRNS_22__hash_node_destructorINS_9allocatorINS_11__hash_nodeINS_17__hash_value_typeINS_12basic_stringIcNS_11char_traitsIcEENS2_IcEEEEMN4lynx9starlight16ComputedCSSStyleEFbRKS9_bEEEPvEEEEEEEEONS_16remove_referenceIT_E4typeEOSO_
__ZNSt3__117__compressed_pairIPNS_11__hash_nodeINS_17__hash_value_typeINS_12basic_stringIcNS_11char_traitsIcEENS_9allocatorIcEEEEMN4lynx9starlight16ComputedCSSStyleEFbRKS8_bEEEPvEENS_22__hash_node_destructorINS6_ISI_EEEEEC1IRSJ_SM_EEOT_OT0_
__ZNSt3__117__compressed_pairIPNS_11__hash_nodeINS_17__hash_value_typeINS_12basic_stringIcNS_11char_traitsIcEENS_9allocatorIcEEEEMN4lynx9starlight16ComputedCSSStyleEFbRKS8_bEEEPvEENS_22__hash_node_destructorINS6_ISI_EEEEEC2IRSJ_SM_EEOT_OT0_
__ZNSt3__1L7forwardIRPNS_11__hash_nodeINS_17__hash_value_typeINS_12basic_stringIcNS_11char_traitsIcEENS_9allocatorIcEEEEMN4lynx9starlight16ComputedCSSStyleEFbRKS8_bEEEPvEEEEOT_RNS_16remove_referenceISL_E4typeE
__ZNSt3__122__compressed_pair_elemIPNS_11__hash_nodeINS_17__hash_value_typeINS_12basic_stringIcNS_11char_traitsIcEENS_9allocatorIcEEEEMN4lynx9starlight16ComputedCSSStyleEFbRKS8_bEEEPvEELi0ELb0EEC2IRSJ_vEEOT_
__ZNSt3__1L7forwardINS_22__hash_node_destructorINS_9allocatorINS_11__hash_nodeINS_17__hash_value_typeINS_12basic_stringIcNS_11char_traitsIcEENS2_IcEEEEMN4lynx9starlight16ComputedCSSStyleEFbRKS9_bEEEPvEEEEEEEEOT_RNS_16remove_referenceISM_E4typeE
__ZNSt3__122__compressed_pair_elemINS_22__hash_node_destructorINS_9allocatorINS_11__hash_nodeINS_17__hash_value_typeINS_12basic_stringIcNS_11char_traitsIcEENS2_IcEEEEMN4lynx9starlight16ComputedCSSStyleEFbRKS9_bEEEPvEEEEEELi1ELb0EEC2ISL_vEEOT_
__ZNKSt3__110unique_ptrINS_11__hash_nodeINS_17__hash_value_typeINS_12basic_stringIcNS_11char_traitsIcEENS_9allocatorIcEEEEMN4lynx9starlight16ComputedCSSStyleEFbRKS8_bEEEPvEENS_22__hash_node_destructorINS6_ISI_EEEEEptEv
__ZNKSt3__117__compressed_pairIPNS_11__hash_nodeINS_17__hash_value_typeINS_12basic_stringIcNS_11char_traitsIcEENS_9allocatorIcEEEEMN4lynx9starlight16ComputedCSSStyleEFbRKS8_bEEEPvEENS_22__hash_node_destructorINS6_ISI_EEEEE5firstEv
__ZNKSt3__122__compressed_pair_elemIPNS_11__hash_nodeINS_17__hash_value_typeINS_12basic_stringIcNS_11char_traitsIcEENS_9allocatorIcEEEEMN4lynx9starlight16ComputedCSSStyleEFbRKS8_bEEEPvEELi0ELb0EE5__getEv
__ZNSt3__122__hash_key_value_typesINS_17__hash_value_typeINS_12basic_stringIcNS_11char_traitsIcEENS_9allocatorIcEEEEMN4lynx9starlight16ComputedCSSStyleEFbRKS7_bEEEE9__get_ptrERSF_
__ZNSt3__117__hash_value_typeINS_12basic_stringIcNS_11char_traitsIcEENS_9allocatorIcEEEEMN4lynx9starlight16ComputedCSSStyleEFbRKS6_bEE11__get_valueEv
__ZNSt3__1L9addressofINS_4pairIKNS_12basic_stringIcNS_11char_traitsIcEENS_9allocatorIcEEEEMN4lynx9starlight16ComputedCSSStyleEFbRS8_bEEEEEPT_RSG_
__ZNSt3__116allocator_traitsINS_9allocatorINS_11__hash_nodeINS_17__hash_value_typeINS_12basic_stringIcNS_11char_traitsIcEENS1_IcEEEEMN4lynx9starlight16ComputedCSSStyleEFbRKS8_bEEEPvEEEEE9constructINS_4pairISC_SF_EEJRKSN_EEEvRSJ_PT_DpOT0_
__ZNSt3__116allocator_traitsINS_9allocatorINS_11__hash_nodeINS_17__hash_value_typeINS_12basic_stringIcNS_11char_traitsIcEENS1_IcEEEEMN4lynx9starlight16ComputedCSSStyleEFbRKS8_bEEEPvEEEEE11__constructINS_4pairISC_SF_EEJRKSN_EEEvNS_17integral_constantIbLb1EEERSJ_PT_DpOT0_
__ZNSt3__19allocatorINS_11__hash_nodeINS_17__hash_value_typeINS_12basic_stringIcNS_11char_traitsIcEENS0_IcEEEEMN4lynx9starlight16ComputedCSSStyleEFbRKS7_bEEEPvEEE9constructINS_4pairISB_SE_EEJRKSL_EEEvPT_DpOT0_
__ZNSt3__14pairIKNS_12basic_stringIcNS_11char_traitsIcEENS_9allocatorIcEEEEMN4lynx9starlight16ComputedCSSStyleEFbRS7_bEEC1ERKSE_
__ZNSt3__14pairIKNS_12basic_stringIcNS_11char_traitsIcEENS_9allocatorIcEEEEMN4lynx9starlight16ComputedCSSStyleEFbRS7_bEEC2ERKSE_
__ZNSt3__110unique_ptrINS_11__hash_nodeINS_17__hash_value_typeINS_12basic_stringIcNS_11char_traitsIcEENS_9allocatorIcEEEEMN4lynx9starlight16ComputedCSSStyleEFbRKS8_bEEEPvEENS_22__hash_node_destructorINS6_ISI_EEEEE11get_deleterEv
__ZNSt3__117__compressed_pairIPNS_11__hash_nodeINS_17__hash_value_typeINS_12basic_stringIcNS_11char_traitsIcEENS_9allocatorIcEEEEMN4lynx9starlight16ComputedCSSStyleEFbRKS8_bEEEPvEENS_22__hash_node_destructorINS6_ISI_EEEEE6secondEv
__ZNSt3__122__compressed_pair_elemINS_22__hash_node_destructorINS_9allocatorINS_11__hash_nodeINS_17__hash_value_typeINS_12basic_stringIcNS_11char_traitsIcEENS2_IcEEEEMN4lynx9starlight16ComputedCSSStyleEFbRKS9_bEEEPvEEEEEELi1ELb0EE5__getEv
__ZNSt3__112__hash_tableINS_17__hash_value_typeINS_12basic_stringIcNS_11char_traitsIcEENS_9allocatorIcEEEEMN4lynx9starlight16ComputedCSSStyleEFbRKS7_bEEENS_22__unordered_map_hasherIS7_SF_NS_4hashIS7_EELb1EEENS_21__unordered_map_equalIS7_SF_NS_8equal_toIS7_EELb1EEENS5_ISF_EEE4sizeEv
__ZNSt3__117__compressed_pairImNS_22__unordered_map_hasherINS_12basic_stringIcNS_11char_traitsIcEENS_9allocatorIcEEEENS_17__hash_value_typeIS7_MN4lynx9starlight16ComputedCSSStyleEFbRKS7_bEEENS_4hashIS7_EELb1EEEE5firstEv
__ZNSt3__112__hash_tableINS_17__hash_value_typeINS_12basic_stringIcNS_11char_traitsIcEENS_9allocatorIcEEEEMN4lynx9starlight16ComputedCSSStyleEFbRKS7_bEEENS_22__unordered_map_hasherIS7_SF_NS_4hashIS7_EELb1EEENS_21__unordered_map_equalIS7_SF_NS_8equal_toIS7_EELb1EEENS5_ISF_EEE15max_load_factorEv
__ZNSt3__117__compressed_pairIfNS_21__unordered_map_equalINS_12basic_stringIcNS_11char_traitsIcEENS_9allocatorIcEEEENS_17__hash_value_typeIS7_MN4lynx9starlight16ComputedCSSStyleEFbRKS7_bEEENS_8equal_toIS7_EELb1EEEE5firstEv
__ZNSt3__112__hash_tableINS_17__hash_value_typeINS_12basic_stringIcNS_11char_traitsIcEENS_9allocatorIcEEEEMN4lynx9starlight16ComputedCSSStyleEFbRKS7_bEEENS_22__unordered_map_hasherIS7_SF_NS_4hashIS7_EELb1EEENS_21__unordered_map_equalIS7_SF_NS_8equal_toIS7_EELb1EEENS5_ISF_EEE6rehashEm
__ZNSt3__112__hash_tableINS_17__hash_value_typeINS_12basic_stringIcNS_11char_traitsIcEENS_9allocatorIcEEEEMN4lynx9starlight16ComputedCSSStyleEFbRKS7_bEEENS_22__unordered_map_hasherIS7_SF_NS_4hashIS7_EELb1EEENS_21__unordered_map_equalIS7_SF_NS_8equal_toIS7_EELb1EEENS5_ISF_EEE8__rehashEm
__ZNSt3__110unique_ptrIA_PNS_16__hash_node_baseIPNS_11__hash_nodeINS_17__hash_value_typeINS_12basic_stringIcNS_11char_traitsIcEENS_9allocatorIcEEEEMN4lynx9starlight16ComputedCSSStyleEFbRKS9_bEEEPvEEEENS_25__bucket_list_deallocatorINS7_ISM_EEEEE11get_deleterEv
__ZNSt3__117__compressed_pairIPPNS_16__hash_node_baseIPNS_11__hash_nodeINS_17__hash_value_typeINS_12basic_stringIcNS_11char_traitsIcEENS_9allocatorIcEEEEMN4lynx9starlight16ComputedCSSStyleEFbRKS9_bEEEPvEEEENS_25__bucket_list_deallocatorINS7_ISM_EEEEE6secondEv
__ZNSt3__122__compressed_pair_elemINS_25__bucket_list_deallocatorINS_9allocatorIPNS_16__hash_node_baseIPNS_11__hash_nodeINS_17__hash_value_typeINS_12basic_stringIcNS_11char_traitsIcEENS2_IcEEEEMN4lynx9starlight16ComputedCSSStyleEFbRKSA_bEEEPvEEEEEEEELi1ELb0EE5__getEv
__ZNSt3__125__bucket_list_deallocatorINS_9allocatorIPNS_16__hash_node_baseIPNS_11__hash_nodeINS_17__hash_value_typeINS_12basic_stringIcNS_11char_traitsIcEENS1_IcEEEEMN4lynx9starlight16ComputedCSSStyleEFbRKS9_bEEEPvEEEEEEE7__allocEv
__ZNSt3__117__compressed_pairImNS_9allocatorIPNS_16__hash_node_baseIPNS_11__hash_nodeINS_17__hash_value_typeINS_12basic_stringIcNS_11char_traitsIcEENS1_IcEEEEMN4lynx9starlight16ComputedCSSStyleEFbRKS9_bEEEPvEEEEEEE6secondEv
__ZNSt3__122__compressed_pair_elemINS_9allocatorIPNS_16__hash_node_baseIPNS_11__hash_nodeINS_17__hash_value_typeINS_12basic_stringIcNS_11char_traitsIcEENS1_IcEEEEMN4lynx9starlight16ComputedCSSStyleEFbRKS9_bEEEPvEEEEEELi1ELb1EE5__getEv
__ZNSt3__116allocator_traitsINS_9allocatorIPNS_16__hash_node_baseIPNS_11__hash_nodeINS_17__hash_value_typeINS_12basic_stringIcNS_11char_traitsIcEENS1_IcEEEEMN4lynx9starlight16ComputedCSSStyleEFbRKS9_bEEEPvEEEEEEE8allocateERSN_m
__ZNSt3__19allocatorIPNS_16__hash_node_baseIPNS_11__hash_nodeINS_17__hash_value_typeINS_12basic_stringIcNS_11char_traitsIcEENS0_IcEEEEMN4lynx9starlight16ComputedCSSStyleEFbRKS8_bEEEPvEEEEE8allocateEmPKv
__ZNKSt3__19allocatorIPNS_16__hash_node_baseIPNS_11__hash_nodeINS_17__hash_value_typeINS_12basic_stringIcNS_11char_traitsIcEENS0_IcEEEEMN4lynx9starlight16ComputedCSSStyleEFbRKS8_bEEEPvEEEEE8max_sizeEv
__ZNSt3__110unique_ptrIA_PNS_16__hash_node_baseIPNS_11__hash_nodeINS_17__hash_value_typeINS_12basic_stringIcNS_11char_traitsIcEENS_9allocatorIcEEEEMN4lynx9starlight16ComputedCSSStyleEFbRKS9_bEEEPvEEEENS_25__bucket_list_deallocatorINS7_ISM_EEEEE5resetIPSM_EENS_9enable_ifIXsr28_CheckArrayPointerConversionIT_EE5valueEvE4typeESV_
__ZNSt3__117__compressed_pairIPPNS_16__hash_node_baseIPNS_11__hash_nodeINS_17__hash_value_typeINS_12basic_stringIcNS_11char_traitsIcEENS_9allocatorIcEEEEMN4lynx9starlight16ComputedCSSStyleEFbRKS9_bEEEPvEEEENS_25__bucket_list_deallocatorINS7_ISM_EEEEE5firstEv
__ZNSt3__122__compressed_pair_elemIPPNS_16__hash_node_baseIPNS_11__hash_nodeINS_17__hash_value_typeINS_12basic_stringIcNS_11char_traitsIcEENS_9allocatorIcEEEEMN4lynx9starlight16ComputedCSSStyleEFbRKS9_bEEEPvEEEELi0ELb0EE5__getEv
__ZNSt3__125__bucket_list_deallocatorINS_9allocatorIPNS_16__hash_node_baseIPNS_11__hash_nodeINS_17__hash_value_typeINS_12basic_stringIcNS_11char_traitsIcEENS1_IcEEEEMN4lynx9starlight16ComputedCSSStyleEFbRKS9_bEEEPvEEEEEEE4sizeEv
__ZNSt3__117__compressed_pairImNS_9allocatorIPNS_16__hash_node_baseIPNS_11__hash_nodeINS_17__hash_value_typeINS_12basic_stringIcNS_11char_traitsIcEENS1_IcEEEEMN4lynx9starlight16ComputedCSSStyleEFbRKS9_bEEEPvEEEEEEE5firstEv
__ZNKSt3__110unique_ptrIA_PNS_16__hash_node_baseIPNS_11__hash_nodeINS_17__hash_value_typeINS_12basic_stringIcNS_11char_traitsIcEENS_9allocatorIcEEEEMN4lynx9starlight16ComputedCSSStyleEFbRKS9_bEEEPvEEEENS_25__bucket_list_deallocatorINS7_ISM_EEEEEixEm
__ZNKSt3__117__compressed_pairIPPNS_16__hash_node_baseIPNS_11__hash_nodeINS_17__hash_value_typeINS_12basic_stringIcNS_11char_traitsIcEENS_9allocatorIcEEEEMN4lynx9starlight16ComputedCSSStyleEFbRKS9_bEEEPvEEEENS_25__bucket_list_deallocatorINS7_ISM_EEEEE5firstEv
__ZNKSt3__122__compressed_pair_elemIPPNS_16__hash_node_baseIPNS_11__hash_nodeINS_17__hash_value_typeINS_12basic_stringIcNS_11char_traitsIcEENS_9allocatorIcEEEEMN4lynx9starlight16ComputedCSSStyleEFbRKS9_bEEEPvEEEELi0ELb0EE5__getEv
__ZNSt3__117__compressed_pairINS_16__hash_node_baseIPNS_11__hash_nodeINS_17__hash_value_typeINS_12basic_stringIcNS_11char_traitsIcEENS_9allocatorIcEEEEMN4lynx9starlight16ComputedCSSStyleEFbRKS9_bEEEPvEEEENS7_ISJ_EEE5firstEv
__ZNSt3__122__compressed_pair_elemINS_16__hash_node_baseIPNS_11__hash_nodeINS_17__hash_value_typeINS_12basic_stringIcNS_11char_traitsIcEENS_9allocatorIcEEEEMN4lynx9starlight16ComputedCSSStyleEFbRKS9_bEEEPvEEEELi0ELb0EE5__getEv
__ZNSt3__116__hash_node_baseIPNS_11__hash_nodeINS_17__hash_value_typeINS_12basic_stringIcNS_11char_traitsIcEENS_9allocatorIcEEEEMN4lynx9starlight16ComputedCSSStyleEFbRKS8_bEEEPvEEE5__ptrEv
__ZNSt3__114pointer_traitsIPNS_16__hash_node_baseIPNS_11__hash_nodeINS_17__hash_value_typeINS_12basic_stringIcNS_11char_traitsIcEENS_9allocatorIcEEEEMN4lynx9starlight16ComputedCSSStyleEFbRKS9_bEEEPvEEEEE10pointer_toERSL_
__ZNSt3__1L9addressofINS_16__hash_node_baseIPNS_11__hash_nodeINS_17__hash_value_typeINS_12basic_stringIcNS_11char_traitsIcEENS_9allocatorIcEEEEMN4lynx9starlight16ComputedCSSStyleEFbRKS9_bEEEPvEEEEEEPT_RSM_
__ZNKSt3__110unique_ptrINS_11__hash_nodeINS_17__hash_value_typeINS_12basic_stringIcNS_11char_traitsIcEENS_9allocatorIcEEEEMN4lynx9starlight16ComputedCSSStyleEFbRKS8_bEEEPvEENS_22__hash_node_destructorINS6_ISI_EEEEE3getEv
__ZNSt3__110unique_ptrINS_11__hash_nodeINS_17__hash_value_typeINS_12basic_stringIcNS_11char_traitsIcEENS_9allocatorIcEEEEMN4lynx9starlight16ComputedCSSStyleEFbRKS8_bEEEPvEENS_22__hash_node_destructorINS6_ISI_EEEEE7releaseEv
__ZNSt3__117__compressed_pairIPNS_11__hash_nodeINS_17__hash_value_typeINS_12basic_stringIcNS_11char_traitsIcEENS_9allocatorIcEEEEMN4lynx9starlight16ComputedCSSStyleEFbRKS8_bEEEPvEENS_22__hash_node_destructorINS6_ISI_EEEEE5firstEv
__ZNSt3__122__compressed_pair_elemIPNS_11__hash_nodeINS_17__hash_value_typeINS_12basic_stringIcNS_11char_traitsIcEENS_9allocatorIcEEEEMN4lynx9starlight16ComputedCSSStyleEFbRKS8_bEEEPvEELi0ELb0EE5__getEv
__ZNSt3__110unique_ptrINS_11__hash_nodeINS_17__hash_value_typeINS_12basic_stringIcNS_11char_traitsIcEENS_9allocatorIcEEEEMN4lynx9starlight16ComputedCSSStyleEFbRKS8_bEEEPvEENS_22__hash_node_destructorINS6_ISI_EEEEED1Ev
__ZNSt3__110unique_ptrINS_11__hash_nodeINS_17__hash_value_typeINS_12basic_stringIcNS_11char_traitsIcEENS_9allocatorIcEEEEMN4lynx9starlight16ComputedCSSStyleEFbRKS8_bEEEPvEENS_22__hash_node_destructorINS6_ISI_EEEEED2Ev
__ZNSt3__110unique_ptrINS_11__hash_nodeINS_17__hash_value_typeINS_12basic_stringIcNS_11char_traitsIcEENS_9allocatorIcEEEEMN4lynx9starlight16ComputedCSSStyleEFbRKS8_bEEEPvEENS_22__hash_node_destructorINS6_ISI_EEEEE5resetEPSI_
__ZNSt3__115__hash_iteratorIPNS_11__hash_nodeINS_17__hash_value_typeINS_12basic_stringIcNS_11char_traitsIcEENS_9allocatorIcEEEEMN4lynx9starlight16ComputedCSSStyleEFbRKS8_bEEEPvEEEC1EPNS_16__hash_node_baseISJ_EE
__ZNSt3__115__hash_iteratorIPNS_11__hash_nodeINS_17__hash_value_typeINS_12basic_stringIcNS_11char_traitsIcEENS_9allocatorIcEEEEMN4lynx9starlight16ComputedCSSStyleEFbRKS8_bEEEPvEEEC2EPNS_16__hash_node_baseISJ_EE
__ZNSt3__14pairINS_15__hash_iteratorIPNS_11__hash_nodeINS_17__hash_value_typeINS_12basic_stringIcNS_11char_traitsIcEENS_9allocatorIcEEEEMN4lynx9starlight16ComputedCSSStyleEFbRKS9_bEEEPvEEEEbEC1ISL_RbLb0EEEOT_OT0_
__ZNSt3__14pairINS_15__hash_iteratorIPNS_11__hash_nodeINS_17__hash_value_typeINS_12basic_stringIcNS_11char_traitsIcEENS_9allocatorIcEEEEMN4lynx9starlight16ComputedCSSStyleEFbRKS9_bEEEPvEEEEbEC2ISL_RbLb0EEEOT_OT0_
__ZNSt3__1L7forwardINS_15__hash_iteratorIPNS_11__hash_nodeINS_17__hash_value_typeINS_12basic_stringIcNS_11char_traitsIcEENS_9allocatorIcEEEEMN4lynx9starlight16ComputedCSSStyleEFbRKS9_bEEEPvEEEEEEOT_RNS_16remove_referenceISM_E4typeE
__ZNKSt3__116__hash_node_baseIPNS_11__hash_nodeINS_17__hash_value_typeINS_12basic_stringIcNS_11char_traitsIcEENS_9allocatorIcEEEEMN4lynx9starlight16ComputedCSSStyleEFbRKS8_bEEEPvEEE6__hashEv
__ZNSt3__112__hash_tableINS_17__hash_value_typeINS_12basic_stringIcNS_11char_traitsIcEENS_9allocatorIcEEEEMN4lynx9starlight16ComputedCSSStyleEFbRKS7_bEEENS_22__unordered_map_hasherIS7_SF_NS_4hashIS7_EELb1EEENS_21__unordered_map_equalIS7_SF_NS_8equal_toIS7_EELb1EEENS5_ISF_EEE6key_eqEv
__ZNSt3__117__compressed_pairIfNS_21__unordered_map_equalINS_12basic_stringIcNS_11char_traitsIcEENS_9allocatorIcEEEENS_17__hash_value_typeIS7_MN4lynx9starlight16ComputedCSSStyleEFbRKS7_bEEENS_8equal_toIS7_EELb1EEEE6secondEv
__ZNSt3__122__compressed_pair_elemINS_21__unordered_map_equalINS_12basic_stringIcNS_11char_traitsIcEENS_9allocatorIcEEEENS_17__hash_value_typeIS7_MN4lynx9starlight16ComputedCSSStyleEFbRKS7_bEEENS_8equal_toIS7_EELb1EEELi1ELb1EE5__getEv
__ZNSt3__116__hash_node_baseIPNS_11__hash_nodeINS_17__hash_value_typeINS_12basic_stringIcNS_11char_traitsIcEENS_9allocatorIcEEEEMN4lynx9starlight16ComputedCSSStyleEFbRKS8_bEEEPvEEE8__upcastEv
__ZNKSt3__121__unordered_map_equalINS_12basic_stringIcNS_11char_traitsIcEENS_9allocatorIcEEEENS_17__hash_value_typeIS6_MN4lynx9starlight16ComputedCSSStyleEFbRKS6_bEEENS_8equal_toIS6_EELb1EEclERKSF_SC_
__ZNKSt3__117__hash_value_typeINS_12basic_stringIcNS_11char_traitsIcEENS_9allocatorIcEEEEMN4lynx9starlight16ComputedCSSStyleEFbRKS6_bEE11__get_valueEv
__ZNSt3__125__bucket_list_deallocatorINS_9allocatorIPNS_16__hash_node_baseIPNS_11__hash_nodeINS_17__hash_value_typeINS_12basic_stringIcNS_11char_traitsIcEENS1_IcEEEEMN4lynx9starlight16ComputedCSSStyleEFbRKS9_bEEEPvEEEEEEEclEPSM_
__ZNSt3__116allocator_traitsINS_9allocatorIPNS_16__hash_node_baseIPNS_11__hash_nodeINS_17__hash_value_typeINS_12basic_stringIcNS_11char_traitsIcEENS1_IcEEEEMN4lynx9starlight16ComputedCSSStyleEFbRKS9_bEEEPvEEEEEEE10deallocateERSN_PSM_m
__ZNSt3__19allocatorIPNS_16__hash_node_baseIPNS_11__hash_nodeINS_17__hash_value_typeINS_12basic_stringIcNS_11char_traitsIcEENS0_IcEEEEMN4lynx9starlight16ComputedCSSStyleEFbRKS8_bEEEPvEEEEE10deallocateEPSL_m
__ZNSt3__121__murmur2_or_cityhashImLm64EE11__shift_mixEm
__ZNKSt3__121__unordered_map_equalINS_12basic_stringIcNS_11char_traitsIcEENS_9allocatorIcEEEENS_17__hash_value_typeIS6_MN4lynx9starlight16ComputedCSSStyleEFbRKS6_bEEENS_8equal_toIS6_EELb1EEclERKSF_SK_
__ZNSt3__121__murmur2_or_cityhashImLm64EE19__hash_len_17_to_32EPKcm
__ZNSt3__121__murmur2_or_cityhashImLm64EE8__rotateEmi
__ZNSt3__14pairIKNS_12basic_stringIcNS_11char_traitsIcEENS_9allocatorIcEEEEMN4lynx9starlight16ComputedCSSStyleEFbRS7_bEED1Ev
__ZNSt3__14pairIKNS_12basic_stringIcNS_11char_traitsIcEENS_9allocatorIcEEEEMN4lynx9starlight16ComputedCSSStyleEFbRS7_bEED2Ev
__GLOBAL__sub_I_content_data.cc
__ZN4lynx5lepus5ValueC1Ev
__ZN4lynx5lepus5ValueC2Ev
__GLOBAL__sub_I_css_color.cc
__ZN4lynx4tasm8CSSColorC1Ehhhf
__ZN4lynx4tasm8CSSColorC2Ehhhf
__GLOBAL__sub_I_css_font_face_token.cc
__GLOBAL__sub_I_css_fragment.cc
__GLOBAL__sub_I_css_parser_token.cc
__GLOBAL__sub_I_css_patching.cc
__GLOBAL__sub_I_css_property.cc
__ZNSt3__14pairIKNS_12basic_stringIcNS_11char_traitsIcEENS_9allocatorIcEEEES6_EC1IRA4_KcRA5_SA_Lb0EEEOT_OT0_
__ZNSt3__14pairIKNS_12basic_stringIcNS_11char_traitsIcEENS_9allocatorIcEEEES6_EC2IRA4_KcRA5_SA_Lb0EEEOT_OT0_
__ZNSt3__1L7forwardIRA4_KcEEOT_RNS_16remove_referenceIS4_E4typeE
__ZNSt3__14pairIKNS_12basic_stringIcNS_11char_traitsIcEENS_9allocatorIcEEEES6_EC1IRA5_KcSC_Lb0EEEOT_OT0_
__ZNSt3__14pairIKNS_12basic_stringIcNS_11char_traitsIcEENS_9allocatorIcEEEES6_EC2IRA5_KcSC_Lb0EEEOT_OT0_
__ZNSt3__14pairIKNS_12basic_stringIcNS_11char_traitsIcEENS_9allocatorIcEEEES6_EC1IRA6_KcRA5_SA_Lb0EEEOT_OT0_
__ZNSt3__14pairIKNS_12basic_stringIcNS_11char_traitsIcEENS_9allocatorIcEEEES6_EC2IRA6_KcRA5_SA_Lb0EEEOT_OT0_
__ZNSt3__1L7forwardIRA6_KcEEOT_RNS_16remove_referenceIS4_E4typeE
__ZNSt3__14pairIKNS_12basic_stringIcNS_11char_traitsIcEENS_9allocatorIcEEEES6_EC1IRA7_KcRA5_SA_Lb0EEEOT_OT0_
__ZNSt3__14pairIKNS_12basic_stringIcNS_11char_traitsIcEENS_9allocatorIcEEEES6_EC2IRA7_KcRA5_SA_Lb0EEEOT_OT0_
__ZNSt3__14pairIKNS_12basic_stringIcNS_11char_traitsIcEENS_9allocatorIcEEEES6_EC1IRA9_KcSC_Lb0EEEOT_OT0_
__ZNSt3__14pairIKNS_12basic_stringIcNS_11char_traitsIcEENS_9allocatorIcEEEES6_EC2IRA9_KcSC_Lb0EEEOT_OT0_
__ZNSt3__1L7forwardIRA9_KcEEOT_RNS_16remove_referenceIS4_E4typeE
__ZNSt3__14pairIKNS_12basic_stringIcNS_11char_traitsIcEENS_9allocatorIcEEEES6_EC1IRA11_KcSC_Lb0EEEOT_OT0_
__ZNSt3__14pairIKNS_12basic_stringIcNS_11char_traitsIcEENS_9allocatorIcEEEES6_EC2IRA11_KcSC_Lb0EEEOT_OT0_
__ZNSt3__14pairIKNS_12basic_stringIcNS_11char_traitsIcEENS_9allocatorIcEEEES6_EC1IRA17_KcRA12_SA_Lb0EEEOT_OT0_
__ZNSt3__14pairIKNS_12basic_stringIcNS_11char_traitsIcEENS_9allocatorIcEEEES6_EC2IRA17_KcRA12_SA_Lb0EEEOT_OT0_
__ZNSt3__1L7forwardIRA17_KcEEOT_RNS_16remove_referenceIS4_E4typeE
__ZNSt3__14pairIKNS_12basic_stringIcNS_11char_traitsIcEENS_9allocatorIcEEEES6_EC1IRA18_KcRA6_SA_Lb0EEEOT_OT0_
__ZNSt3__14pairIKNS_12basic_stringIcNS_11char_traitsIcEENS_9allocatorIcEEEES6_EC2IRA18_KcRA6_SA_Lb0EEEOT_OT0_
__ZNSt3__1L7forwardIRA18_KcEEOT_RNS_16remove_referenceIS4_E4typeE
__ZNSt3__14pairIKNS_12basic_stringIcNS_11char_traitsIcEENS_9allocatorIcEEEES6_EC1IRA19_KcRA6_SA_Lb0EEEOT_OT0_
__ZNSt3__14pairIKNS_12basic_stringIcNS_11char_traitsIcEENS_9allocatorIcEEEES6_EC2IRA19_KcRA6_SA_Lb0EEEOT_OT0_
__ZNSt3__1L7forwardIRA19_KcEEOT_RNS_16remove_referenceIS4_E4typeE
__ZNSt3__14pairIKNS_12basic_stringIcNS_11char_traitsIcEENS_9allocatorIcEEEES6_EC1IRA17_KcRA6_SA_Lb0EEEOT_OT0_
__ZNSt3__14pairIKNS_12basic_stringIcNS_11char_traitsIcEENS_9allocatorIcEEEES6_EC2IRA17_KcRA6_SA_Lb0EEEOT_OT0_
__ZNSt3__14pairIKNS_12basic_stringIcNS_11char_traitsIcEENS_9allocatorIcEEEES6_EC1IRA20_KcRA6_SA_Lb0EEEOT_OT0_
__ZNSt3__14pairIKNS_12basic_stringIcNS_11char_traitsIcEENS_9allocatorIcEEEES6_EC2IRA20_KcRA6_SA_Lb0EEEOT_OT0_
__ZNSt3__1L7forwardIRA20_KcEEOT_RNS_16remove_referenceIS4_E4typeE
__ZNSt3__14pairIKNS_12basic_stringIcNS_11char_traitsIcEENS_9allocatorIcEEEES6_EC1IRA14_KcRA4_SA_Lb0EEEOT_OT0_
__ZNSt3__14pairIKNS_12basic_stringIcNS_11char_traitsIcEENS_9allocatorIcEEEES6_EC2IRA14_KcRA4_SA_Lb0EEEOT_OT0_
__ZNSt3__14pairIKNS_12basic_stringIcNS_11char_traitsIcEENS_9allocatorIcEEEES6_EC1IRA23_KcRA4_SA_Lb0EEEOT_OT0_
__ZNSt3__14pairIKNS_12basic_stringIcNS_11char_traitsIcEENS_9allocatorIcEEEES6_EC2IRA23_KcRA4_SA_Lb0EEEOT_OT0_
__ZNSt3__1L7forwardIRA23_KcEEOT_RNS_16remove_referenceIS4_E4typeE
__ZNSt3__14pairIKNS_12basic_stringIcNS_11char_traitsIcEENS_9allocatorIcEEEES6_EC1IRA26_KcRA4_SA_Lb0EEEOT_OT0_
__ZNSt3__14pairIKNS_12basic_stringIcNS_11char_traitsIcEENS_9allocatorIcEEEES6_EC2IRA26_KcRA4_SA_Lb0EEEOT_OT0_
__ZNSt3__1L7forwardIRA26_KcEEOT_RNS_16remove_referenceIS4_E4typeE
__ZNSt3__14pairIKNS_12basic_stringIcNS_11char_traitsIcEENS_9allocatorIcEEEES6_EC1IRA24_KcRA4_SA_Lb0EEEOT_OT0_
__ZNSt3__14pairIKNS_12basic_stringIcNS_11char_traitsIcEENS_9allocatorIcEEEES6_EC2IRA24_KcRA4_SA_Lb0EEEOT_OT0_
__ZNSt3__1L7forwardIRA24_KcEEOT_RNS_16remove_referenceIS4_E4typeE
__ZNSt3__14pairIKNS_12basic_stringIcNS_11char_traitsIcEENS_9allocatorIcEEEES6_EC1IRA27_KcRA4_SA_Lb0EEEOT_OT0_
__ZNSt3__14pairIKNS_12basic_stringIcNS_11char_traitsIcEENS_9allocatorIcEEEES6_EC2IRA27_KcRA4_SA_Lb0EEEOT_OT0_
__ZNSt3__1L7forwardIRA27_KcEEOT_RNS_16remove_referenceIS4_E4typeE
__ZNSt3__14pairIKNS_12basic_stringIcNS_11char_traitsIcEENS_9allocatorIcEEEES6_EC1IRA13_KcRA4_SA_Lb0EEEOT_OT0_
__ZNSt3__14pairIKNS_12basic_stringIcNS_11char_traitsIcEENS_9allocatorIcEEEES6_EC2IRA13_KcRA4_SA_Lb0EEEOT_OT0_
__ZNSt3__14pairIKNS_12basic_stringIcNS_11char_traitsIcEENS_9allocatorIcEEEES6_EC1IRA18_KcRA4_SA_Lb0EEEOT_OT0_
__ZNSt3__14pairIKNS_12basic_stringIcNS_11char_traitsIcEENS_9allocatorIcEEEES6_EC2IRA18_KcRA4_SA_Lb0EEEOT_OT0_
__ZNSt3__14pairIKNS_12basic_stringIcNS_11char_traitsIcEENS_9allocatorIcEEEES6_EC1IRA19_KcRA4_SA_Lb0EEEOT_OT0_
__ZNSt3__14pairIKNS_12basic_stringIcNS_11char_traitsIcEENS_9allocatorIcEEEES6_EC2IRA19_KcRA4_SA_Lb0EEEOT_OT0_
__ZNSt3__14pairIKNS_12basic_stringIcNS_11char_traitsIcEENS_9allocatorIcEEEES6_EC1IRA17_KcRA4_SA_Lb0EEEOT_OT0_
__ZNSt3__14pairIKNS_12basic_stringIcNS_11char_traitsIcEENS_9allocatorIcEEEES6_EC2IRA17_KcRA4_SA_Lb0EEEOT_OT0_
__ZNSt3__14pairIKNS_12basic_stringIcNS_11char_traitsIcEENS_9allocatorIcEEEES6_EC1IRA20_KcRA4_SA_Lb0EEEOT_OT0_
__ZNSt3__14pairIKNS_12basic_stringIcNS_11char_traitsIcEENS_9allocatorIcEEEES6_EC2IRA20_KcRA4_SA_Lb0EEEOT_OT0_
__ZNSt3__14pairIKNS_12basic_stringIcNS_11char_traitsIcEENS_9allocatorIcEEEES6_EC1IRA6_KcSC_Lb0EEEOT_OT0_
__ZNSt3__14pairIKNS_12basic_stringIcNS_11char_traitsIcEENS_9allocatorIcEEEES6_EC2IRA6_KcSC_Lb0EEEOT_OT0_
__ZNSt3__14pairIKNS_12basic_stringIcNS_11char_traitsIcEENS_9allocatorIcEEEES6_EC1IRA8_KcRA2_SA_Lb0EEEOT_OT0_
__ZNSt3__14pairIKNS_12basic_stringIcNS_11char_traitsIcEENS_9allocatorIcEEEES6_EC2IRA8_KcRA2_SA_Lb0EEEOT_OT0_
__ZNSt3__1L7forwardIRA8_KcEEOT_RNS_16remove_referenceIS4_E4typeE
__ZNSt3__1L7forwardIRA2_KcEEOT_RNS_16remove_referenceIS4_E4typeE
__ZNSt3__14pairIKNS_12basic_stringIcNS_11char_traitsIcEENS_9allocatorIcEEEES6_EC1IRA8_KcRA5_SA_Lb0EEEOT_OT0_
__ZNSt3__14pairIKNS_12basic_stringIcNS_11char_traitsIcEENS_9allocatorIcEEEES6_EC2IRA8_KcRA5_SA_Lb0EEEOT_OT0_
__ZNSt3__14pairIKNS_12basic_stringIcNS_11char_traitsIcEENS_9allocatorIcEEEES6_EC1IRA9_KcRA7_SA_Lb0EEEOT_OT0_
__ZNSt3__14pairIKNS_12basic_stringIcNS_11char_traitsIcEENS_9allocatorIcEEEES6_EC2IRA9_KcRA7_SA_Lb0EEEOT_OT0_
__ZNSt3__14pairIKNS_12basic_stringIcNS_11char_traitsIcEENS_9allocatorIcEEEES6_EC1IRA10_KcRA5_SA_Lb0EEEOT_OT0_
__ZNSt3__14pairIKNS_12basic_stringIcNS_11char_traitsIcEENS_9allocatorIcEEEES6_EC2IRA10_KcRA5_SA_Lb0EEEOT_OT0_
__ZNSt3__1L7forwardIRA10_KcEEOT_RNS_16remove_referenceIS4_E4typeE
__ZNSt3__14pairIKNS_12basic_stringIcNS_11char_traitsIcEENS_9allocatorIcEEEES6_EC1IRA10_KcRA4_SA_Lb0EEEOT_OT0_
__ZNSt3__14pairIKNS_12basic_stringIcNS_11char_traitsIcEENS_9allocatorIcEEEES6_EC2IRA10_KcRA4_SA_Lb0EEEOT_OT0_
__ZNSt3__14pairIKNS_12basic_stringIcNS_11char_traitsIcEENS_9allocatorIcEEEES6_EC1IRA11_KcRA5_SA_Lb0EEEOT_OT0_
__ZNSt3__14pairIKNS_12basic_stringIcNS_11char_traitsIcEENS_9allocatorIcEEEES6_EC2IRA11_KcRA5_SA_Lb0EEEOT_OT0_
__ZNSt3__14pairIKNS_12basic_stringIcNS_11char_traitsIcEENS_9allocatorIcEEEES6_EC1IRA11_KcRA4_SA_Lb0EEEOT_OT0_
__ZNSt3__14pairIKNS_12basic_stringIcNS_11char_traitsIcEENS_9allocatorIcEEEES6_EC2IRA11_KcRA4_SA_Lb0EEEOT_OT0_
__ZNSt3__14pairIKNS_12basic_stringIcNS_11char_traitsIcEENS_9allocatorIcEEEES6_EC1IRA8_KcRA4_SA_Lb0EEEOT_OT0_
__ZNSt3__14pairIKNS_12basic_stringIcNS_11char_traitsIcEENS_9allocatorIcEEEES6_EC2IRA8_KcRA4_SA_Lb0EEEOT_OT0_
__ZNSt3__14pairIKNS_12basic_stringIcNS_11char_traitsIcEENS_9allocatorIcEEEES6_EC1IRA12_KcRA4_SA_Lb0EEEOT_OT0_
__ZNSt3__14pairIKNS_12basic_stringIcNS_11char_traitsIcEENS_9allocatorIcEEEES6_EC2IRA12_KcRA4_SA_Lb0EEEOT_OT0_
__ZNSt3__14pairIKNS_12basic_stringIcNS_11char_traitsIcEENS_9allocatorIcEEEES6_EC1IRA15_KcRA4_SA_Lb0EEEOT_OT0_
__ZNSt3__14pairIKNS_12basic_stringIcNS_11char_traitsIcEENS_9allocatorIcEEEES6_EC2IRA15_KcRA4_SA_Lb0EEEOT_OT0_
__ZNSt3__1L7forwardIRA15_KcEEOT_RNS_16remove_referenceIS4_E4typeE
__ZNSt3__14pairIKNS_12basic_stringIcNS_11char_traitsIcEENS_9allocatorIcEEEES6_EC1IRA7_KcRA4_SA_Lb0EEEOT_OT0_
__ZNSt3__14pairIKNS_12basic_stringIcNS_11char_traitsIcEENS_9allocatorIcEEEES6_EC2IRA7_KcRA4_SA_Lb0EEEOT_OT0_
__ZNSt3__14pairIKNS_12basic_stringIcNS_11char_traitsIcEENS_9allocatorIcEEEES6_EC1IRA12_KcRA7_SA_Lb0EEEOT_OT0_
__ZNSt3__14pairIKNS_12basic_stringIcNS_11char_traitsIcEENS_9allocatorIcEEEES6_EC2IRA12_KcRA7_SA_Lb0EEEOT_OT0_
__ZNSt3__14pairIKNS_12basic_stringIcNS_11char_traitsIcEENS_9allocatorIcEEEES6_EC1IRA12_KcRA1_SA_Lb0EEEOT_OT0_
__ZNSt3__14pairIKNS_12basic_stringIcNS_11char_traitsIcEENS_9allocatorIcEEEES6_EC2IRA12_KcRA1_SA_Lb0EEEOT_OT0_
__ZNSt3__1L7forwardIRA1_KcEEOT_RNS_16remove_referenceIS4_E4typeE
__ZNSt3__14pairIKNS_12basic_stringIcNS_11char_traitsIcEENS_9allocatorIcEEEES6_EC1IRA14_KcRA5_SA_Lb0EEEOT_OT0_
__ZNSt3__14pairIKNS_12basic_stringIcNS_11char_traitsIcEENS_9allocatorIcEEEES6_EC2IRA14_KcRA5_SA_Lb0EEEOT_OT0_
__ZNSt3__14pairIKNS_12basic_stringIcNS_11char_traitsIcEENS_9allocatorIcEEEES6_EC1IRA10_KcRA7_SA_Lb0EEEOT_OT0_
__ZNSt3__14pairIKNS_12basic_stringIcNS_11char_traitsIcEENS_9allocatorIcEEEES6_EC2IRA10_KcRA7_SA_Lb0EEEOT_OT0_
__ZNSt3__14pairIKNS_12basic_stringIcNS_11char_traitsIcEENS_9allocatorIcEEEES6_EC1IRA5_KcRA2_SA_Lb0EEEOT_OT0_
__ZNSt3__14pairIKNS_12basic_stringIcNS_11char_traitsIcEENS_9allocatorIcEEEES6_EC2IRA5_KcRA2_SA_Lb0EEEOT_OT0_
__ZNSt3__14pairIKNS_12basic_stringIcNS_11char_traitsIcEENS_9allocatorIcEEEES6_EC1IRA10_KcRA2_SA_Lb0EEEOT_OT0_
__ZNSt3__14pairIKNS_12basic_stringIcNS_11char_traitsIcEENS_9allocatorIcEEEES6_EC2IRA10_KcRA2_SA_Lb0EEEOT_OT0_
__ZNSt3__14pairIKNS_12basic_stringIcNS_11char_traitsIcEENS_9allocatorIcEEEES6_EC1IRA12_KcRA2_SA_Lb0EEEOT_OT0_
__ZNSt3__14pairIKNS_12basic_stringIcNS_11char_traitsIcEENS_9allocatorIcEEEES6_EC2IRA12_KcRA2_SA_Lb0EEEOT_OT0_
__ZNSt3__14pairIKNS_12basic_stringIcNS_11char_traitsIcEENS_9allocatorIcEEEES6_EC1IRA11_KcRA8_SA_Lb0EEEOT_OT0_
__ZNSt3__14pairIKNS_12basic_stringIcNS_11char_traitsIcEENS_9allocatorIcEEEES6_EC2IRA11_KcRA8_SA_Lb0EEEOT_OT0_
__ZNSt3__14pairIKNS_12basic_stringIcNS_11char_traitsIcEENS_9allocatorIcEEEES6_EC1IRA14_KcRA7_SA_Lb0EEEOT_OT0_
__ZNSt3__14pairIKNS_12basic_stringIcNS_11char_traitsIcEENS_9allocatorIcEEEES6_EC2IRA14_KcRA7_SA_Lb0EEEOT_OT0_
__ZNSt3__14pairIKNS_12basic_stringIcNS_11char_traitsIcEENS_9allocatorIcEEEES6_EC1IRA16_KcRA11_SA_Lb0EEEOT_OT0_
__ZNSt3__14pairIKNS_12basic_stringIcNS_11char_traitsIcEENS_9allocatorIcEEEES6_EC2IRA16_KcRA11_SA_Lb0EEEOT_OT0_
__ZNSt3__1L7forwardIRA16_KcEEOT_RNS_16remove_referenceIS4_E4typeE
__ZNSt3__14pairIKNS_12basic_stringIcNS_11char_traitsIcEENS_9allocatorIcEEEES6_EC1IRA11_KcRA25_SA_Lb0EEEOT_OT0_
__ZNSt3__14pairIKNS_12basic_stringIcNS_11char_traitsIcEENS_9allocatorIcEEEES6_EC2IRA11_KcRA25_SA_Lb0EEEOT_OT0_
__ZNSt3__1L7forwardIRA25_KcEEOT_RNS_16remove_referenceIS4_E4typeE
__ZNSt3__14pairIKNS_12basic_stringIcNS_11char_traitsIcEENS_9allocatorIcEEEES6_EC1IRA13_KcRA6_SA_Lb0EEEOT_OT0_
__ZNSt3__14pairIKNS_12basic_stringIcNS_11char_traitsIcEENS_9allocatorIcEEEES6_EC2IRA13_KcRA6_SA_Lb0EEEOT_OT0_
__ZNSt3__14pairIKNS_12basic_stringIcNS_11char_traitsIcEENS_9allocatorIcEEEES6_EC1IRA11_KcRA7_SA_Lb0EEEOT_OT0_
__ZNSt3__14pairIKNS_12basic_stringIcNS_11char_traitsIcEENS_9allocatorIcEEEES6_EC2IRA11_KcRA7_SA_Lb0EEEOT_OT0_
__ZNSt3__14pairIKNS_12basic_stringIcNS_11char_traitsIcEENS_9allocatorIcEEEES6_EC1IRA10_KcRA1_SA_Lb0EEEOT_OT0_
__ZNSt3__14pairIKNS_12basic_stringIcNS_11char_traitsIcEENS_9allocatorIcEEEES6_EC2IRA10_KcRA1_SA_Lb0EEEOT_OT0_
__ZNSt3__14pairIKNS_12basic_stringIcNS_11char_traitsIcEENS_9allocatorIcEEEES6_EC1IRA15_KcRA1_SA_Lb0EEEOT_OT0_
__ZNSt3__14pairIKNS_12basic_stringIcNS_11char_traitsIcEENS_9allocatorIcEEEES6_EC2IRA15_KcRA1_SA_Lb0EEEOT_OT0_
__ZNSt3__14pairIKNS_12basic_stringIcNS_11char_traitsIcEENS_9allocatorIcEEEES6_EC1IRA19_KcRA1_SA_Lb0EEEOT_OT0_
__ZNSt3__14pairIKNS_12basic_stringIcNS_11char_traitsIcEENS_9allocatorIcEEEES6_EC2IRA19_KcRA1_SA_Lb0EEEOT_OT0_
__ZNSt3__14pairIKNS_12basic_stringIcNS_11char_traitsIcEENS_9allocatorIcEEEES6_EC1IRA26_KcRA1_SA_Lb0EEEOT_OT0_
__ZNSt3__14pairIKNS_12basic_stringIcNS_11char_traitsIcEENS_9allocatorIcEEEES6_EC2IRA26_KcRA1_SA_Lb0EEEOT_OT0_
__ZNSt3__14pairIKNS_12basic_stringIcNS_11char_traitsIcEENS_9allocatorIcEEEES6_EC1IRA16_KcRA1_SA_Lb0EEEOT_OT0_
__ZNSt3__14pairIKNS_12basic_stringIcNS_11char_traitsIcEENS_9allocatorIcEEEES6_EC2IRA16_KcRA1_SA_Lb0EEEOT_OT0_
__ZNSt3__14pairIKNS_12basic_stringIcNS_11char_traitsIcEENS_9allocatorIcEEEES6_EC1IRA20_KcRA1_SA_Lb0EEEOT_OT0_
__ZNSt3__14pairIKNS_12basic_stringIcNS_11char_traitsIcEENS_9allocatorIcEEEES6_EC2IRA20_KcRA1_SA_Lb0EEEOT_OT0_
__ZNSt3__14pairIKNS_12basic_stringIcNS_11char_traitsIcEENS_9allocatorIcEEEES6_EC1IRA21_KcRA1_SA_Lb0EEEOT_OT0_
__ZNSt3__14pairIKNS_12basic_stringIcNS_11char_traitsIcEENS_9allocatorIcEEEES6_EC2IRA21_KcRA1_SA_Lb0EEEOT_OT0_
__ZNSt3__1L7forwardIRA21_KcEEOT_RNS_16remove_referenceIS4_E4typeE
__ZNSt3__14pairIKNS_12basic_stringIcNS_11char_traitsIcEENS_9allocatorIcEEEES6_EC1IRA6_KcRA2_SA_Lb0EEEOT_OT0_
__ZNSt3__14pairIKNS_12basic_stringIcNS_11char_traitsIcEENS_9allocatorIcEEEES6_EC2IRA6_KcRA2_SA_Lb0EEEOT_OT0_
__ZNSt3__14pairIKNS_12basic_stringIcNS_11char_traitsIcEENS_9allocatorIcEEEES6_EC1IRA11_KcRA1_SA_Lb0EEEOT_OT0_
__ZNSt3__14pairIKNS_12basic_stringIcNS_11char_traitsIcEENS_9allocatorIcEEEES6_EC2IRA11_KcRA1_SA_Lb0EEEOT_OT0_
__ZNSt3__14pairIKNS_12basic_stringIcNS_11char_traitsIcEENS_9allocatorIcEEEES6_EC1IRA17_KcRA1_SA_Lb0EEEOT_OT0_
__ZNSt3__14pairIKNS_12basic_stringIcNS_11char_traitsIcEENS_9allocatorIcEEEES6_EC2IRA17_KcRA1_SA_Lb0EEEOT_OT0_
__ZNSt3__14pairIKNS_12basic_stringIcNS_11char_traitsIcEENS_9allocatorIcEEEES6_EC1IRA19_KcRA9_SA_Lb0EEEOT_OT0_
__ZNSt3__14pairIKNS_12basic_stringIcNS_11char_traitsIcEENS_9allocatorIcEEEES6_EC2IRA19_KcRA9_SA_Lb0EEEOT_OT0_
__ZNSt3__14pairIKNS_12basic_stringIcNS_11char_traitsIcEENS_9allocatorIcEEEES6_EC1IRA18_KcRA2_SA_Lb0EEEOT_OT0_
__ZNSt3__14pairIKNS_12basic_stringIcNS_11char_traitsIcEENS_9allocatorIcEEEES6_EC2IRA18_KcRA2_SA_Lb0EEEOT_OT0_
__ZNSt3__14pairIKNS_12basic_stringIcNS_11char_traitsIcEENS_9allocatorIcEEEES6_EC1IRA14_KcRA2_SA_Lb0EEEOT_OT0_
__ZNSt3__14pairIKNS_12basic_stringIcNS_11char_traitsIcEENS_9allocatorIcEEEES6_EC2IRA14_KcRA2_SA_Lb0EEEOT_OT0_
__ZNSt3__14pairIKNS_12basic_stringIcNS_11char_traitsIcEENS_9allocatorIcEEEES6_EC1IRA15_KcRA5_SA_Lb0EEEOT_OT0_
__ZNSt3__14pairIKNS_12basic_stringIcNS_11char_traitsIcEENS_9allocatorIcEEEES6_EC2IRA15_KcRA5_SA_Lb0EEEOT_OT0_
__ZNSt3__14pairIKNS_12basic_stringIcNS_11char_traitsIcEENS_9allocatorIcEEEES6_EC1IRA22_KcRA5_SA_Lb0EEEOT_OT0_
__ZNSt3__14pairIKNS_12basic_stringIcNS_11char_traitsIcEENS_9allocatorIcEEEES6_EC2IRA22_KcRA5_SA_Lb0EEEOT_OT0_
__ZNSt3__1L7forwardIRA22_KcEEOT_RNS_16remove_referenceIS4_E4typeE
__ZNSt3__14pairIKNS_12basic_stringIcNS_11char_traitsIcEENS_9allocatorIcEEEES6_EC1IRA33_KcRA2_SA_Lb0EEEOT_OT0_
__ZNSt3__14pairIKNS_12basic_stringIcNS_11char_traitsIcEENS_9allocatorIcEEEES6_EC2IRA33_KcRA2_SA_Lb0EEEOT_OT0_
__ZNSt3__1L7forwardIRA33_KcEEOT_RNS_16remove_referenceIS4_E4typeE
__ZNSt3__14pairIKNS_12basic_stringIcNS_11char_traitsIcEENS_9allocatorIcEEEES6_EC1IRA40_KcRA7_SA_Lb0EEEOT_OT0_
__ZNSt3__14pairIKNS_12basic_stringIcNS_11char_traitsIcEENS_9allocatorIcEEEES6_EC2IRA40_KcRA7_SA_Lb0EEEOT_OT0_
__ZNSt3__1L7forwardIRA40_KcEEOT_RNS_16remove_referenceIS4_E4typeE
__ZNSt3__14pairIKNS_12basic_stringIcNS_11char_traitsIcEENS_9allocatorIcEEEES6_EC1IRA30_KcRA2_SA_Lb0EEEOT_OT0_
__ZNSt3__14pairIKNS_12basic_stringIcNS_11char_traitsIcEENS_9allocatorIcEEEES6_EC2IRA30_KcRA2_SA_Lb0EEEOT_OT0_
__ZNSt3__1L7forwardIRA30_KcEEOT_RNS_16remove_referenceIS4_E4typeE
__ZNSt3__14pairIKNS_12basic_stringIcNS_11char_traitsIcEENS_9allocatorIcEEEES6_EC1IRA33_KcRA8_SA_Lb0EEEOT_OT0_
__ZNSt3__14pairIKNS_12basic_stringIcNS_11char_traitsIcEENS_9allocatorIcEEEES6_EC2IRA33_KcRA8_SA_Lb0EEEOT_OT0_
__ZNSt3__14pairIKNS_12basic_stringIcNS_11char_traitsIcEENS_9allocatorIcEEEES6_EC1IRA16_KcRA2_SA_Lb0EEEOT_OT0_
__ZNSt3__14pairIKNS_12basic_stringIcNS_11char_traitsIcEENS_9allocatorIcEEEES6_EC2IRA16_KcRA2_SA_Lb0EEEOT_OT0_
__ZNSt3__14pairIKNS_12basic_stringIcNS_11char_traitsIcEENS_9allocatorIcEEEES6_EC1IRA13_KcRA1_SA_Lb0EEEOT_OT0_
__ZNSt3__14pairIKNS_12basic_stringIcNS_11char_traitsIcEENS_9allocatorIcEEEES6_EC2IRA13_KcRA1_SA_Lb0EEEOT_OT0_
__ZNSt3__14pairIKNS_12basic_stringIcNS_11char_traitsIcEENS_9allocatorIcEEEES6_EC1IRA18_KcRA1_SA_Lb0EEEOT_OT0_
__ZNSt3__14pairIKNS_12basic_stringIcNS_11char_traitsIcEENS_9allocatorIcEEEES6_EC2IRA18_KcRA1_SA_Lb0EEEOT_OT0_
__ZNSt3__14pairIKNS_12basic_stringIcNS_11char_traitsIcEENS_9allocatorIcEEEES6_EC1IRA7_KcRA16_SA_Lb0EEEOT_OT0_
__ZNSt3__14pairIKNS_12basic_stringIcNS_11char_traitsIcEENS_9allocatorIcEEEES6_EC2IRA7_KcRA16_SA_Lb0EEEOT_OT0_
__ZNSt3__14pairIKNS_12basic_stringIcNS_11char_traitsIcEENS_9allocatorIcEEEES6_EC1IRA13_KcRA16_SA_Lb0EEEOT_OT0_
__ZNSt3__14pairIKNS_12basic_stringIcNS_11char_traitsIcEENS_9allocatorIcEEEES6_EC2IRA13_KcRA16_SA_Lb0EEEOT_OT0_
__ZNSt3__14pairIKNS_12basic_stringIcNS_11char_traitsIcEENS_9allocatorIcEEEES6_EC1IRA12_KcRA16_SA_Lb0EEEOT_OT0_
__ZNSt3__14pairIKNS_12basic_stringIcNS_11char_traitsIcEENS_9allocatorIcEEEES6_EC2IRA12_KcRA16_SA_Lb0EEEOT_OT0_
__ZNSt3__14pairIKNS_12basic_stringIcNS_11char_traitsIcEENS_9allocatorIcEEEES6_EC1IRA11_KcRA16_SA_Lb0EEEOT_OT0_
__ZNSt3__14pairIKNS_12basic_stringIcNS_11char_traitsIcEENS_9allocatorIcEEEES6_EC2IRA11_KcRA16_SA_Lb0EEEOT_OT0_
__ZNSt3__14pairIKNS_12basic_stringIcNS_11char_traitsIcEENS_9allocatorIcEEEES6_EC1IRA14_KcRA16_SA_Lb0EEEOT_OT0_
__ZNSt3__14pairIKNS_12basic_stringIcNS_11char_traitsIcEENS_9allocatorIcEEEES6_EC2IRA14_KcRA16_SA_Lb0EEEOT_OT0_
__ZNSt3__14pairIKNS_12basic_stringIcNS_11char_traitsIcEENS_9allocatorIcEEEES6_EC1IRA27_KcRA1_SA_Lb0EEEOT_OT0_
__ZNSt3__14pairIKNS_12basic_stringIcNS_11char_traitsIcEENS_9allocatorIcEEEES6_EC2IRA27_KcRA1_SA_Lb0EEEOT_OT0_
__ZNSt3__14pairIKNS_12basic_stringIcNS_11char_traitsIcEENS_9allocatorIcEEEES6_EC1IRA8_KcRA1_SA_Lb0EEEOT_OT0_
__ZNSt3__14pairIKNS_12basic_stringIcNS_11char_traitsIcEENS_9allocatorIcEEEES6_EC2IRA8_KcRA1_SA_Lb0EEEOT_OT0_
__ZNSt3__14pairIKNS_12basic_stringIcNS_11char_traitsIcEENS_9allocatorIcEEEES6_EC1IRA11_KcRA10_SA_Lb0EEEOT_OT0_
__ZNSt3__14pairIKNS_12basic_stringIcNS_11char_traitsIcEENS_9allocatorIcEEEES6_EC2IRA11_KcRA10_SA_Lb0EEEOT_OT0_
__ZNSt3__14pairIKNS_12basic_stringIcNS_11char_traitsIcEENS_9allocatorIcEEEES6_EC1IRA8_KcRA18_SA_Lb0EEEOT_OT0_
__ZNSt3__14pairIKNS_12basic_stringIcNS_11char_traitsIcEENS_9allocatorIcEEEES6_EC2IRA8_KcRA18_SA_Lb0EEEOT_OT0_
__ZNSt3__14pairIKNS_12basic_stringIcNS_11char_traitsIcEENS_9allocatorIcEEEES6_EC1IRA14_KcRA6_SA_Lb0EEEOT_OT0_
__ZNSt3__14pairIKNS_12basic_stringIcNS_11char_traitsIcEENS_9allocatorIcEEEES6_EC2IRA14_KcRA6_SA_Lb0EEEOT_OT0_
__ZNSt3__14pairIKNS_12basic_stringIcNS_11char_traitsIcEENS_9allocatorIcEEEES6_EC1IRA15_KcRA9_SA_Lb0EEEOT_OT0_
__ZNSt3__14pairIKNS_12basic_stringIcNS_11char_traitsIcEENS_9allocatorIcEEEES6_EC2IRA15_KcRA9_SA_Lb0EEEOT_OT0_
__ZNSt3__14pairIKNS_12basic_stringIcNS_11char_traitsIcEENS_9allocatorIcEEEES6_EC1IRA12_KcRA5_SA_Lb0EEEOT_OT0_
__ZNSt3__14pairIKNS_12basic_stringIcNS_11char_traitsIcEENS_9allocatorIcEEEES6_EC2IRA12_KcRA5_SA_Lb0EEEOT_OT0_
__ZNSt3__14pairIKNS_12basic_stringIcNS_11char_traitsIcEENS_9allocatorIcEEEES6_EC1IRA12_KcRA3_SA_Lb0EEEOT_OT0_
__ZNSt3__14pairIKNS_12basic_stringIcNS_11char_traitsIcEENS_9allocatorIcEEEES6_EC2IRA12_KcRA3_SA_Lb0EEEOT_OT0_
__ZNSt3__1L7forwardIRA3_KcEEOT_RNS_16remove_referenceIS4_E4typeE
__ZNSt3__14pairIKNS_12basic_stringIcNS_11char_traitsIcEENS_9allocatorIcEEEES6_EC1IRA19_KcRA3_SA_Lb0EEEOT_OT0_
__ZNSt3__14pairIKNS_12basic_stringIcNS_11char_traitsIcEENS_9allocatorIcEEEES6_EC2IRA19_KcRA3_SA_Lb0EEEOT_OT0_
__ZNSt3__14pairIKNS_12basic_stringIcNS_11char_traitsIcEENS_9allocatorIcEEEES6_EC1IRA21_KcRA3_SA_Lb0EEEOT_OT0_
__ZNSt3__14pairIKNS_12basic_stringIcNS_11char_traitsIcEENS_9allocatorIcEEEES6_EC2IRA21_KcRA3_SA_Lb0EEEOT_OT0_
__ZNSt3__14pairIKNS_12basic_stringIcNS_11char_traitsIcEENS_9allocatorIcEEEES6_EC1IRA22_KcRA3_SA_Lb0EEEOT_OT0_
__ZNSt3__14pairIKNS_12basic_stringIcNS_11char_traitsIcEENS_9allocatorIcEEEES6_EC2IRA22_KcRA3_SA_Lb0EEEOT_OT0_
__ZNSt3__14pairIKNS_12basic_stringIcNS_11char_traitsIcEENS_9allocatorIcEEEES6_EC1IRA20_KcRA3_SA_Lb0EEEOT_OT0_
__ZNSt3__14pairIKNS_12basic_stringIcNS_11char_traitsIcEENS_9allocatorIcEEEES6_EC2IRA20_KcRA3_SA_Lb0EEEOT_OT0_
__ZNSt3__14pairIKNS_12basic_stringIcNS_11char_traitsIcEENS_9allocatorIcEEEES6_EC1IRA16_KcRA3_SA_Lb0EEEOT_OT0_
__ZNSt3__14pairIKNS_12basic_stringIcNS_11char_traitsIcEENS_9allocatorIcEEEES6_EC2IRA16_KcRA3_SA_Lb0EEEOT_OT0_
__ZNSt3__14pairIKNS_12basic_stringIcNS_11char_traitsIcEENS_9allocatorIcEEEES6_EC1IRA18_KcRA3_SA_Lb0EEEOT_OT0_
__ZNSt3__14pairIKNS_12basic_stringIcNS_11char_traitsIcEENS_9allocatorIcEEEES6_EC2IRA18_KcRA3_SA_Lb0EEEOT_OT0_
__ZNSt3__14pairIKNS_12basic_stringIcNS_11char_traitsIcEENS_9allocatorIcEEEES6_EC1IRA17_KcRA3_SA_Lb0EEEOT_OT0_
__ZNSt3__14pairIKNS_12basic_stringIcNS_11char_traitsIcEENS_9allocatorIcEEEES6_EC2IRA17_KcRA3_SA_Lb0EEEOT_OT0_
__ZNSt3__14pairIKNS_12basic_stringIcNS_11char_traitsIcEENS_9allocatorIcEEEES6_EC1IRA21_KcRA5_SA_Lb0EEEOT_OT0_
__ZNSt3__14pairIKNS_12basic_stringIcNS_11char_traitsIcEENS_9allocatorIcEEEES6_EC2IRA21_KcRA5_SA_Lb0EEEOT_OT0_
__ZNSt3__14pairIKNS_12basic_stringIcNS_11char_traitsIcEENS_9allocatorIcEEEES6_EC1IRA16_KcRA5_SA_Lb0EEEOT_OT0_
__ZNSt3__14pairIKNS_12basic_stringIcNS_11char_traitsIcEENS_9allocatorIcEEEES6_EC2IRA16_KcRA5_SA_Lb0EEEOT_OT0_
__ZNSt3__14pairIKNS_12basic_stringIcNS_11char_traitsIcEENS_9allocatorIcEEEES6_EC1IRA22_KcRA1_SA_Lb0EEEOT_OT0_
__ZNSt3__14pairIKNS_12basic_stringIcNS_11char_traitsIcEENS_9allocatorIcEEEES6_EC2IRA22_KcRA1_SA_Lb0EEEOT_OT0_
__ZNSt3__14pairIKNS_12basic_stringIcNS_11char_traitsIcEENS_9allocatorIcEEEES6_EC1IRA23_KcRA1_SA_Lb0EEEOT_OT0_
__ZNSt3__14pairIKNS_12basic_stringIcNS_11char_traitsIcEENS_9allocatorIcEEEES6_EC2IRA23_KcRA1_SA_Lb0EEEOT_OT0_
__ZNSt3__14pairIKNS_12basic_stringIcNS_11char_traitsIcEENS_9allocatorIcEEEES6_EC1IRA1_KcSC_Lb0EEEOT_OT0_
__ZNSt3__14pairIKNS_12basic_stringIcNS_11char_traitsIcEENS_9allocatorIcEEEES6_EC2IRA1_KcSC_Lb0EEEOT_OT0_
__ZNSt3__113unordered_mapINS_12basic_stringIcNS_11char_traitsIcEENS_9allocatorIcEEEES6_NS_4hashIS6_EENS_8equal_toIS6_EENS4_INS_4pairIKS6_S6_EEEEEC1ESt16initializer_listISD_E
__ZNSt3__113unordered_mapINS_12basic_stringIcNS_11char_traitsIcEENS_9allocatorIcEEEES6_NS_4hashIS6_EENS_8equal_toIS6_EENS4_INS_4pairIKS6_S6_EEEEEC2ESt16initializer_listISD_E
__ZNSt3__112__hash_tableINS_17__hash_value_typeINS_12basic_stringIcNS_11char_traitsIcEENS_9allocatorIcEEEES7_EENS_22__unordered_map_hasherIS7_S8_NS_4hashIS7_EELb1EEENS_21__unordered_map_equalIS7_S8_NS_8equal_toIS7_EELb1EEENS5_IS8_EEEC1Ev
__ZNSt3__112__hash_tableINS_17__hash_value_typeINS_12basic_stringIcNS_11char_traitsIcEENS_9allocatorIcEEEES7_EENS_22__unordered_map_hasherIS7_S8_NS_4hashIS7_EELb1EEENS_21__unordered_map_equalIS7_S8_NS_8equal_toIS7_EELb1EEENS5_IS8_EEEC2Ev
__ZNSt3__110unique_ptrIA_PNS_16__hash_node_baseIPNS_11__hash_nodeINS_17__hash_value_typeINS_12basic_stringIcNS_11char_traitsIcEENS_9allocatorIcEEEES9_EEPvEEEENS_25__bucket_list_deallocatorINS7_ISF_EEEEEC1ILb1EvEEv
__ZNSt3__110unique_ptrIA_PNS_16__hash_node_baseIPNS_11__hash_nodeINS_17__hash_value_typeINS_12basic_stringIcNS_11char_traitsIcEENS_9allocatorIcEEEES9_EEPvEEEENS_25__bucket_list_deallocatorINS7_ISF_EEEEEC2ILb1EvEEv
__ZNSt3__117__compressed_pairIPPNS_16__hash_node_baseIPNS_11__hash_nodeINS_17__hash_value_typeINS_12basic_stringIcNS_11char_traitsIcEENS_9allocatorIcEEEES9_EEPvEEEENS_25__bucket_list_deallocatorINS7_ISF_EEEEEC1ISG_NS_18__default_init_tagEEEOT_OT0_
__ZNSt3__117__compressed_pairIPPNS_16__hash_node_baseIPNS_11__hash_nodeINS_17__hash_value_typeINS_12basic_stringIcNS_11char_traitsIcEENS_9allocatorIcEEEES9_EEPvEEEENS_25__bucket_list_deallocatorINS7_ISF_EEEEEC2ISG_NS_18__default_init_tagEEEOT_OT0_
__ZNSt3__1L7forwardIPPNS_16__hash_node_baseIPNS_11__hash_nodeINS_17__hash_value_typeINS_12basic_stringIcNS_11char_traitsIcEENS_9allocatorIcEEEES9_EEPvEEEEEEOT_RNS_16remove_referenceISH_E4typeE
__ZNSt3__122__compressed_pair_elemIPPNS_16__hash_node_baseIPNS_11__hash_nodeINS_17__hash_value_typeINS_12basic_stringIcNS_11char_traitsIcEENS_9allocatorIcEEEES9_EEPvEEEELi0ELb0EEC2ISG_vEEOT_
__ZNSt3__122__compressed_pair_elemINS_25__bucket_list_deallocatorINS_9allocatorIPNS_16__hash_node_baseIPNS_11__hash_nodeINS_17__hash_value_typeINS_12basic_stringIcNS_11char_traitsIcEENS2_IcEEEESA_EEPvEEEEEEEELi1ELb0EEC2ENS_18__default_init_tagE
__ZNSt3__125__bucket_list_deallocatorINS_9allocatorIPNS_16__hash_node_baseIPNS_11__hash_nodeINS_17__hash_value_typeINS_12basic_stringIcNS_11char_traitsIcEENS1_IcEEEES9_EEPvEEEEEEEC1Ev
__ZNSt3__125__bucket_list_deallocatorINS_9allocatorIPNS_16__hash_node_baseIPNS_11__hash_nodeINS_17__hash_value_typeINS_12basic_stringIcNS_11char_traitsIcEENS1_IcEEEES9_EEPvEEEEEEEC2Ev
__ZNSt3__117__compressed_pairImNS_9allocatorIPNS_16__hash_node_baseIPNS_11__hash_nodeINS_17__hash_value_typeINS_12basic_stringIcNS_11char_traitsIcEENS1_IcEEEES9_EEPvEEEEEEEC1IiNS_18__default_init_tagEEEOT_OT0_
__ZNSt3__117__compressed_pairImNS_9allocatorIPNS_16__hash_node_baseIPNS_11__hash_nodeINS_17__hash_value_typeINS_12basic_stringIcNS_11char_traitsIcEENS1_IcEEEES9_EEPvEEEEEEEC2IiNS_18__default_init_tagEEEOT_OT0_
__ZNSt3__122__compressed_pair_elemINS_9allocatorIPNS_16__hash_node_baseIPNS_11__hash_nodeINS_17__hash_value_typeINS_12basic_stringIcNS_11char_traitsIcEENS1_IcEEEES9_EEPvEEEEEELi1ELb1EEC2ENS_18__default_init_tagE
__ZNSt3__19allocatorIPNS_16__hash_node_baseIPNS_11__hash_nodeINS_17__hash_value_typeINS_12basic_stringIcNS_11char_traitsIcEENS0_IcEEEES8_EEPvEEEEEC2Ev
__ZNSt3__117__compressed_pairINS_16__hash_node_baseIPNS_11__hash_nodeINS_17__hash_value_typeINS_12basic_stringIcNS_11char_traitsIcEENS_9allocatorIcEEEES9_EEPvEEEENS7_ISC_EEEC1ILb1EvEEv
__ZNSt3__117__compressed_pairINS_16__hash_node_baseIPNS_11__hash_nodeINS_17__hash_value_typeINS_12basic_stringIcNS_11char_traitsIcEENS_9allocatorIcEEEES9_EEPvEEEENS7_ISC_EEEC2ILb1EvEEv
__ZNSt3__122__compressed_pair_elemINS_16__hash_node_baseIPNS_11__hash_nodeINS_17__hash_value_typeINS_12basic_stringIcNS_11char_traitsIcEENS_9allocatorIcEEEES9_EEPvEEEELi0ELb0EEC2ENS_16__value_init_tagE
__ZNSt3__116__hash_node_baseIPNS_11__hash_nodeINS_17__hash_value_typeINS_12basic_stringIcNS_11char_traitsIcEENS_9allocatorIcEEEES8_EEPvEEEC1Ev
__ZNSt3__116__hash_node_baseIPNS_11__hash_nodeINS_17__hash_value_typeINS_12basic_stringIcNS_11char_traitsIcEENS_9allocatorIcEEEES8_EEPvEEEC2Ev
__ZNSt3__122__compressed_pair_elemINS_9allocatorINS_11__hash_nodeINS_17__hash_value_typeINS_12basic_stringIcNS_11char_traitsIcEENS1_IcEEEES8_EEPvEEEELi1ELb1EEC2ENS_16__value_init_tagE
__ZNSt3__19allocatorINS_11__hash_nodeINS_17__hash_value_typeINS_12basic_stringIcNS_11char_traitsIcEENS0_IcEEEES7_EEPvEEEC2Ev
__ZNSt3__117__compressed_pairImNS_22__unordered_map_hasherINS_12basic_stringIcNS_11char_traitsIcEENS_9allocatorIcEEEENS_17__hash_value_typeIS7_S7_EENS_4hashIS7_EELb1EEEEC1IiNS_18__default_init_tagEEEOT_OT0_
__ZNSt3__117__compressed_pairImNS_22__unordered_map_hasherINS_12basic_stringIcNS_11char_traitsIcEENS_9allocatorIcEEEENS_17__hash_value_typeIS7_S7_EENS_4hashIS7_EELb1EEEEC2IiNS_18__default_init_tagEEEOT_OT0_
__ZNSt3__122__compressed_pair_elemINS_22__unordered_map_hasherINS_12basic_stringIcNS_11char_traitsIcEENS_9allocatorIcEEEENS_17__hash_value_typeIS7_S7_EENS_4hashIS7_EELb1EEELi1ELb1EEC2ENS_18__default_init_tagE
__ZNSt3__122__unordered_map_hasherINS_12basic_stringIcNS_11char_traitsIcEENS_9allocatorIcEEEENS_17__hash_value_typeIS6_S6_EENS_4hashIS6_EELb1EEC2Ev
__ZNSt3__117__compressed_pairIfNS_21__unordered_map_equalINS_12basic_stringIcNS_11char_traitsIcEENS_9allocatorIcEEEENS_17__hash_value_typeIS7_S7_EENS_8equal_toIS7_EELb1EEEEC1IfNS_18__default_init_tagEEEOT_OT0_
__ZNSt3__117__compressed_pairIfNS_21__unordered_map_equalINS_12basic_stringIcNS_11char_traitsIcEENS_9allocatorIcEEEENS_17__hash_value_typeIS7_S7_EENS_8equal_toIS7_EELb1EEEEC2IfNS_18__default_init_tagEEEOT_OT0_
__ZNSt3__122__compressed_pair_elemINS_21__unordered_map_equalINS_12basic_stringIcNS_11char_traitsIcEENS_9allocatorIcEEEENS_17__hash_value_typeIS7_S7_EENS_8equal_toIS7_EELb1EEELi1ELb1EEC2ENS_18__default_init_tagE
__ZNSt3__121__unordered_map_equalINS_12basic_stringIcNS_11char_traitsIcEENS_9allocatorIcEEEENS_17__hash_value_typeIS6_S6_EENS_8equal_toIS6_EELb1EEC2Ev
__ZNKSt16initializer_listINSt3__14pairIKNS0_12basic_stringIcNS0_11char_traitsIcEENS0_9allocatorIcEEEES7_EEE5beginEv
__ZNKSt16initializer_listINSt3__14pairIKNS0_12basic_stringIcNS0_11char_traitsIcEENS0_9allocatorIcEEEES7_EEE3endEv
__ZNSt3__113unordered_mapINS_12basic_stringIcNS_11char_traitsIcEENS_9allocatorIcEEEES6_NS_4hashIS6_EENS_8equal_toIS6_EENS4_INS_4pairIKS6_S6_EEEEE6insertIPKSD_EEvT_SJ_
__ZNSt3__112__hash_tableINS_17__hash_value_typeINS_12basic_stringIcNS_11char_traitsIcEENS_9allocatorIcEEEES7_EENS_22__unordered_map_hasherIS7_S8_NS_4hashIS7_EELb1EEENS_21__unordered_map_equalIS7_S8_NS_8equal_toIS7_EELb1EEENS5_IS8_EEE15__insert_uniqueERKNS_4pairIKS7_S7_EE
__ZNSt3__122__hash_key_value_typesINS_17__hash_value_typeINS_12basic_stringIcNS_11char_traitsIcEENS_9allocatorIcEEEES7_EEE9__get_keyERKNS_4pairIKS7_S7_EE
__ZNSt3__112__hash_tableINS_17__hash_value_typeINS_12basic_stringIcNS_11char_traitsIcEENS_9allocatorIcEEEES7_EENS_22__unordered_map_hasherIS7_S8_NS_4hashIS7_EELb1EEENS_21__unordered_map_equalIS7_S8_NS_8equal_toIS7_EELb1EEENS5_IS8_EEE25__emplace_unique_key_argsIS7_JRKNS_4pairIKS7_S7_EEEEENSK_INS_15__hash_iteratorIPNS_11__hash_nodeIS8_PvEEEEbEERKT_DpOT0_
__ZNSt3__112__hash_tableINS_17__hash_value_typeINS_12basic_stringIcNS_11char_traitsIcEENS_9allocatorIcEEEES7_EENS_22__unordered_map_hasherIS7_S8_NS_4hashIS7_EELb1EEENS_21__unordered_map_equalIS7_S8_NS_8equal_toIS7_EELb1EEENS5_IS8_EEE13hash_functionEv
__ZNSt3__117__compressed_pairImNS_22__unordered_map_hasherINS_12basic_stringIcNS_11char_traitsIcEENS_9allocatorIcEEEENS_17__hash_value_typeIS7_S7_EENS_4hashIS7_EELb1EEEE6secondEv
__ZNSt3__122__compressed_pair_elemINS_22__unordered_map_hasherINS_12basic_stringIcNS_11char_traitsIcEENS_9allocatorIcEEEENS_17__hash_value_typeIS7_S7_EENS_4hashIS7_EELb1EEELi1ELb1EE5__getEv
__ZNKSt3__122__unordered_map_hasherINS_12basic_stringIcNS_11char_traitsIcEENS_9allocatorIcEEEENS_17__hash_value_typeIS6_S6_EENS_4hashIS6_EELb1EEclERKS6_
__ZNKSt3__112__hash_tableINS_17__hash_value_typeINS_12basic_stringIcNS_11char_traitsIcEENS_9allocatorIcEEEES7_EENS_22__unordered_map_hasherIS7_S8_NS_4hashIS7_EELb1EEENS_21__unordered_map_equalIS7_S8_NS_8equal_toIS7_EELb1EEENS5_IS8_EEE12bucket_countEv
__ZNKSt3__110unique_ptrIA_PNS_16__hash_node_baseIPNS_11__hash_nodeINS_17__hash_value_typeINS_12basic_stringIcNS_11char_traitsIcEENS_9allocatorIcEEEES9_EEPvEEEENS_25__bucket_list_deallocatorINS7_ISF_EEEEE11get_deleterEv
__ZNKSt3__117__compressed_pairIPPNS_16__hash_node_baseIPNS_11__hash_nodeINS_17__hash_value_typeINS_12basic_stringIcNS_11char_traitsIcEENS_9allocatorIcEEEES9_EEPvEEEENS_25__bucket_list_deallocatorINS7_ISF_EEEEE6secondEv
__ZNKSt3__122__compressed_pair_elemINS_25__bucket_list_deallocatorINS_9allocatorIPNS_16__hash_node_baseIPNS_11__hash_nodeINS_17__hash_value_typeINS_12basic_stringIcNS_11char_traitsIcEENS2_IcEEEESA_EEPvEEEEEEEELi1ELb0EE5__getEv
__ZNKSt3__125__bucket_list_deallocatorINS_9allocatorIPNS_16__hash_node_baseIPNS_11__hash_nodeINS_17__hash_value_typeINS_12basic_stringIcNS_11char_traitsIcEENS1_IcEEEES9_EEPvEEEEEEE4sizeEv
__ZNKSt3__117__compressed_pairImNS_9allocatorIPNS_16__hash_node_baseIPNS_11__hash_nodeINS_17__hash_value_typeINS_12basic_stringIcNS_11char_traitsIcEENS1_IcEEEES9_EEPvEEEEEEE5firstEv
__ZNSt3__1L7forwardIRKNS_4pairIKNS_12basic_stringIcNS_11char_traitsIcEENS_9allocatorIcEEEES7_EEEEOT_RNS_16remove_referenceISC_E4typeE
__ZNSt3__112__hash_tableINS_17__hash_value_typeINS_12basic_stringIcNS_11char_traitsIcEENS_9allocatorIcEEEES7_EENS_22__unordered_map_hasherIS7_S8_NS_4hashIS7_EELb1EEENS_21__unordered_map_equalIS7_S8_NS_8equal_toIS7_EELb1EEENS5_IS8_EEE21__construct_node_hashIRKNS_4pairIKS7_S7_EEJEEENS_10unique_ptrINS_11__hash_nodeIS8_PvEENS_22__hash_node_destructorINS5_ISS_EEEEEEmOT_DpOT0_
__ZNSt3__112__hash_tableINS_17__hash_value_typeINS_12basic_stringIcNS_11char_traitsIcEENS_9allocatorIcEEEES7_EENS_22__unordered_map_hasherIS7_S8_NS_4hashIS7_EELb1EEENS_21__unordered_map_equalIS7_S8_NS_8equal_toIS7_EELb1EEENS5_IS8_EEE12__node_allocEv
__ZNSt3__117__compressed_pairINS_16__hash_node_baseIPNS_11__hash_nodeINS_17__hash_value_typeINS_12basic_stringIcNS_11char_traitsIcEENS_9allocatorIcEEEES9_EEPvEEEENS7_ISC_EEE6secondEv
__ZNSt3__122__compressed_pair_elemINS_9allocatorINS_11__hash_nodeINS_17__hash_value_typeINS_12basic_stringIcNS_11char_traitsIcEENS1_IcEEEES8_EEPvEEEELi1ELb1EE5__getEv
__ZNSt3__116allocator_traitsINS_9allocatorINS_11__hash_nodeINS_17__hash_value_typeINS_12basic_stringIcNS_11char_traitsIcEENS1_IcEEEES8_EEPvEEEEE8allocateERSC_m
__ZNSt3__19allocatorINS_11__hash_nodeINS_17__hash_value_typeINS_12basic_stringIcNS_11char_traitsIcEENS0_IcEEEES7_EEPvEEE8allocateEmPKv
__ZNKSt3__19allocatorINS_11__hash_nodeINS_17__hash_value_typeINS_12basic_stringIcNS_11char_traitsIcEENS0_IcEEEES7_EEPvEEE8max_sizeEv
__ZNSt3__122__hash_node_destructorINS_9allocatorINS_11__hash_nodeINS_17__hash_value_typeINS_12basic_stringIcNS_11char_traitsIcEENS1_IcEEEES8_EEPvEEEEEC1ERSC_b
__ZNSt3__122__hash_node_destructorINS_9allocatorINS_11__hash_nodeINS_17__hash_value_typeINS_12basic_stringIcNS_11char_traitsIcEENS1_IcEEEES8_EEPvEEEEEC2ERSC_b
__ZNSt3__110unique_ptrINS_11__hash_nodeINS_17__hash_value_typeINS_12basic_stringIcNS_11char_traitsIcEENS_9allocatorIcEEEES8_EEPvEENS_22__hash_node_destructorINS6_ISB_EEEEEC1ILb1EvEEPSB_NS_16__dependent_typeINS_27__unique_ptr_deleter_sfinaeISE_EEXT_EE20__good_rval_ref_typeE
__ZNSt3__110unique_ptrINS_11__hash_nodeINS_17__hash_value_typeINS_12basic_stringIcNS_11char_traitsIcEENS_9allocatorIcEEEES8_EEPvEENS_22__hash_node_destructorINS6_ISB_EEEEEC2ILb1EvEEPSB_NS_16__dependent_typeINS_27__unique_ptr_deleter_sfinaeISE_EEXT_EE20__good_rval_ref_typeE
__ZNSt3__1L4moveIRNS_22__hash_node_destructorINS_9allocatorINS_11__hash_nodeINS_17__hash_value_typeINS_12basic_stringIcNS_11char_traitsIcEENS2_IcEEEES9_EEPvEEEEEEEEONS_16remove_referenceIT_E4typeEOSH_
__ZNSt3__117__compressed_pairIPNS_11__hash_nodeINS_17__hash_value_typeINS_12basic_stringIcNS_11char_traitsIcEENS_9allocatorIcEEEES8_EEPvEENS_22__hash_node_destructorINS6_ISB_EEEEEC1IRSC_SF_EEOT_OT0_
__ZNSt3__117__compressed_pairIPNS_11__hash_nodeINS_17__hash_value_typeINS_12basic_stringIcNS_11char_traitsIcEENS_9allocatorIcEEEES8_EEPvEENS_22__hash_node_destructorINS6_ISB_EEEEEC2IRSC_SF_EEOT_OT0_
__ZNSt3__1L7forwardIRPNS_11__hash_nodeINS_17__hash_value_typeINS_12basic_stringIcNS_11char_traitsIcEENS_9allocatorIcEEEES8_EEPvEEEEOT_RNS_16remove_referenceISE_E4typeE
__ZNSt3__122__compressed_pair_elemIPNS_11__hash_nodeINS_17__hash_value_typeINS_12basic_stringIcNS_11char_traitsIcEENS_9allocatorIcEEEES8_EEPvEELi0ELb0EEC2IRSC_vEEOT_
__ZNSt3__1L7forwardINS_22__hash_node_destructorINS_9allocatorINS_11__hash_nodeINS_17__hash_value_typeINS_12basic_stringIcNS_11char_traitsIcEENS2_IcEEEES9_EEPvEEEEEEEEOT_RNS_16remove_referenceISF_E4typeE
__ZNSt3__122__compressed_pair_elemINS_22__hash_node_destructorINS_9allocatorINS_11__hash_nodeINS_17__hash_value_typeINS_12basic_stringIcNS_11char_traitsIcEENS2_IcEEEES9_EEPvEEEEEELi1ELb0EEC2ISE_vEEOT_
__ZNKSt3__110unique_ptrINS_11__hash_nodeINS_17__hash_value_typeINS_12basic_stringIcNS_11char_traitsIcEENS_9allocatorIcEEEES8_EEPvEENS_22__hash_node_destructorINS6_ISB_EEEEEptEv
__ZNKSt3__117__compressed_pairIPNS_11__hash_nodeINS_17__hash_value_typeINS_12basic_stringIcNS_11char_traitsIcEENS_9allocatorIcEEEES8_EEPvEENS_22__hash_node_destructorINS6_ISB_EEEEE5firstEv
__ZNKSt3__122__compressed_pair_elemIPNS_11__hash_nodeINS_17__hash_value_typeINS_12basic_stringIcNS_11char_traitsIcEENS_9allocatorIcEEEES8_EEPvEELi0ELb0EE5__getEv
__ZNSt3__122__hash_key_value_typesINS_17__hash_value_typeINS_12basic_stringIcNS_11char_traitsIcEENS_9allocatorIcEEEES7_EEE9__get_ptrERS8_
__ZNSt3__117__hash_value_typeINS_12basic_stringIcNS_11char_traitsIcEENS_9allocatorIcEEEES6_E11__get_valueEv
__ZNSt3__1L9addressofINS_4pairIKNS_12basic_stringIcNS_11char_traitsIcEENS_9allocatorIcEEEES7_EEEEPT_RSA_
__ZNSt3__116allocator_traitsINS_9allocatorINS_11__hash_nodeINS_17__hash_value_typeINS_12basic_stringIcNS_11char_traitsIcEENS1_IcEEEES8_EEPvEEEEE9constructINS_4pairIKS8_S8_EEJRKSH_EEEvRSC_PT_DpOT0_
__ZNSt3__116allocator_traitsINS_9allocatorINS_11__hash_nodeINS_17__hash_value_typeINS_12basic_stringIcNS_11char_traitsIcEENS1_IcEEEES8_EEPvEEEEE11__constructINS_4pairIKS8_S8_EEJRKSH_EEEvNS_17integral_constantIbLb1EEERSC_PT_DpOT0_
__ZNSt3__19allocatorINS_11__hash_nodeINS_17__hash_value_typeINS_12basic_stringIcNS_11char_traitsIcEENS0_IcEEEES7_EEPvEEE9constructINS_4pairIKS7_S7_EEJRKSF_EEEvPT_DpOT0_
__ZNSt3__14pairIKNS_12basic_stringIcNS_11char_traitsIcEENS_9allocatorIcEEEES6_EC1ERKS8_
__ZNSt3__14pairIKNS_12basic_stringIcNS_11char_traitsIcEENS_9allocatorIcEEEES6_EC2ERKS8_
__ZNSt3__110unique_ptrINS_11__hash_nodeINS_17__hash_value_typeINS_12basic_stringIcNS_11char_traitsIcEENS_9allocatorIcEEEES8_EEPvEENS_22__hash_node_destructorINS6_ISB_EEEEE11get_deleterEv
__ZNSt3__117__compressed_pairIPNS_11__hash_nodeINS_17__hash_value_typeINS_12basic_stringIcNS_11char_traitsIcEENS_9allocatorIcEEEES8_EEPvEENS_22__hash_node_destructorINS6_ISB_EEEEE6secondEv
__ZNSt3__122__compressed_pair_elemINS_22__hash_node_destructorINS_9allocatorINS_11__hash_nodeINS_17__hash_value_typeINS_12basic_stringIcNS_11char_traitsIcEENS2_IcEEEES9_EEPvEEEEEELi1ELb0EE5__getEv
__ZNSt3__112__hash_tableINS_17__hash_value_typeINS_12basic_stringIcNS_11char_traitsIcEENS_9allocatorIcEEEES7_EENS_22__unordered_map_hasherIS7_S8_NS_4hashIS7_EELb1EEENS_21__unordered_map_equalIS7_S8_NS_8equal_toIS7_EELb1EEENS5_IS8_EEE4sizeEv
__ZNSt3__117__compressed_pairImNS_22__unordered_map_hasherINS_12basic_stringIcNS_11char_traitsIcEENS_9allocatorIcEEEENS_17__hash_value_typeIS7_S7_EENS_4hashIS7_EELb1EEEE5firstEv
__ZNSt3__112__hash_tableINS_17__hash_value_typeINS_12basic_stringIcNS_11char_traitsIcEENS_9allocatorIcEEEES7_EENS_22__unordered_map_hasherIS7_S8_NS_4hashIS7_EELb1EEENS_21__unordered_map_equalIS7_S8_NS_8equal_toIS7_EELb1EEENS5_IS8_EEE15max_load_factorEv
__ZNSt3__117__compressed_pairIfNS_21__unordered_map_equalINS_12basic_stringIcNS_11char_traitsIcEENS_9allocatorIcEEEENS_17__hash_value_typeIS7_S7_EENS_8equal_toIS7_EELb1EEEE5firstEv
__ZNSt3__112__hash_tableINS_17__hash_value_typeINS_12basic_stringIcNS_11char_traitsIcEENS_9allocatorIcEEEES7_EENS_22__unordered_map_hasherIS7_S8_NS_4hashIS7_EELb1EEENS_21__unordered_map_equalIS7_S8_NS_8equal_toIS7_EELb1EEENS5_IS8_EEE6rehashEm
__ZNSt3__112__hash_tableINS_17__hash_value_typeINS_12basic_stringIcNS_11char_traitsIcEENS_9allocatorIcEEEES7_EENS_22__unordered_map_hasherIS7_S8_NS_4hashIS7_EELb1EEENS_21__unordered_map_equalIS7_S8_NS_8equal_toIS7_EELb1EEENS5_IS8_EEE8__rehashEm
__ZNSt3__110unique_ptrIA_PNS_16__hash_node_baseIPNS_11__hash_nodeINS_17__hash_value_typeINS_12basic_stringIcNS_11char_traitsIcEENS_9allocatorIcEEEES9_EEPvEEEENS_25__bucket_list_deallocatorINS7_ISF_EEEEE11get_deleterEv
__ZNSt3__117__compressed_pairIPPNS_16__hash_node_baseIPNS_11__hash_nodeINS_17__hash_value_typeINS_12basic_stringIcNS_11char_traitsIcEENS_9allocatorIcEEEES9_EEPvEEEENS_25__bucket_list_deallocatorINS7_ISF_EEEEE6secondEv
__ZNSt3__122__compressed_pair_elemINS_25__bucket_list_deallocatorINS_9allocatorIPNS_16__hash_node_baseIPNS_11__hash_nodeINS_17__hash_value_typeINS_12basic_stringIcNS_11char_traitsIcEENS2_IcEEEESA_EEPvEEEEEEEELi1ELb0EE5__getEv
__ZNSt3__125__bucket_list_deallocatorINS_9allocatorIPNS_16__hash_node_baseIPNS_11__hash_nodeINS_17__hash_value_typeINS_12basic_stringIcNS_11char_traitsIcEENS1_IcEEEES9_EEPvEEEEEEE7__allocEv
__ZNSt3__117__compressed_pairImNS_9allocatorIPNS_16__hash_node_baseIPNS_11__hash_nodeINS_17__hash_value_typeINS_12basic_stringIcNS_11char_traitsIcEENS1_IcEEEES9_EEPvEEEEEEE6secondEv
__ZNSt3__122__compressed_pair_elemINS_9allocatorIPNS_16__hash_node_baseIPNS_11__hash_nodeINS_17__hash_value_typeINS_12basic_stringIcNS_11char_traitsIcEENS1_IcEEEES9_EEPvEEEEEELi1ELb1EE5__getEv
__ZNSt3__116allocator_traitsINS_9allocatorIPNS_16__hash_node_baseIPNS_11__hash_nodeINS_17__hash_value_typeINS_12basic_stringIcNS_11char_traitsIcEENS1_IcEEEES9_EEPvEEEEEEE8allocateERSG_m
__ZNSt3__19allocatorIPNS_16__hash_node_baseIPNS_11__hash_nodeINS_17__hash_value_typeINS_12basic_stringIcNS_11char_traitsIcEENS0_IcEEEES8_EEPvEEEEE8allocateEmPKv
__ZNKSt3__19allocatorIPNS_16__hash_node_baseIPNS_11__hash_nodeINS_17__hash_value_typeINS_12basic_stringIcNS_11char_traitsIcEENS0_IcEEEES8_EEPvEEEEE8max_sizeEv
__ZNSt3__110unique_ptrIA_PNS_16__hash_node_baseIPNS_11__hash_nodeINS_17__hash_value_typeINS_12basic_stringIcNS_11char_traitsIcEENS_9allocatorIcEEEES9_EEPvEEEENS_25__bucket_list_deallocatorINS7_ISF_EEEEE5resetIPSF_EENS_9enable_ifIXsr28_CheckArrayPointerConversionIT_EE5valueEvE4typeESO_
__ZNSt3__117__compressed_pairIPPNS_16__hash_node_baseIPNS_11__hash_nodeINS_17__hash_value_typeINS_12basic_stringIcNS_11char_traitsIcEENS_9allocatorIcEEEES9_EEPvEEEENS_25__bucket_list_deallocatorINS7_ISF_EEEEE5firstEv
__ZNSt3__122__compressed_pair_elemIPPNS_16__hash_node_baseIPNS_11__hash_nodeINS_17__hash_value_typeINS_12basic_stringIcNS_11char_traitsIcEENS_9allocatorIcEEEES9_EEPvEEEELi0ELb0EE5__getEv
__ZNSt3__125__bucket_list_deallocatorINS_9allocatorIPNS_16__hash_node_baseIPNS_11__hash_nodeINS_17__hash_value_typeINS_12basic_stringIcNS_11char_traitsIcEENS1_IcEEEES9_EEPvEEEEEEE4sizeEv
__ZNSt3__117__compressed_pairImNS_9allocatorIPNS_16__hash_node_baseIPNS_11__hash_nodeINS_17__hash_value_typeINS_12basic_stringIcNS_11char_traitsIcEENS1_IcEEEES9_EEPvEEEEEEE5firstEv
__ZNKSt3__110unique_ptrIA_PNS_16__hash_node_baseIPNS_11__hash_nodeINS_17__hash_value_typeINS_12basic_stringIcNS_11char_traitsIcEENS_9allocatorIcEEEES9_EEPvEEEENS_25__bucket_list_deallocatorINS7_ISF_EEEEEixEm
__ZNKSt3__117__compressed_pairIPPNS_16__hash_node_baseIPNS_11__hash_nodeINS_17__hash_value_typeINS_12basic_stringIcNS_11char_traitsIcEENS_9allocatorIcEEEES9_EEPvEEEENS_25__bucket_list_deallocatorINS7_ISF_EEEEE5firstEv
__ZNKSt3__122__compressed_pair_elemIPPNS_16__hash_node_baseIPNS_11__hash_nodeINS_17__hash_value_typeINS_12basic_stringIcNS_11char_traitsIcEENS_9allocatorIcEEEES9_EEPvEEEELi0ELb0EE5__getEv
__ZNSt3__117__compressed_pairINS_16__hash_node_baseIPNS_11__hash_nodeINS_17__hash_value_typeINS_12basic_stringIcNS_11char_traitsIcEENS_9allocatorIcEEEES9_EEPvEEEENS7_ISC_EEE5firstEv
__ZNSt3__122__compressed_pair_elemINS_16__hash_node_baseIPNS_11__hash_nodeINS_17__hash_value_typeINS_12basic_stringIcNS_11char_traitsIcEENS_9allocatorIcEEEES9_EEPvEEEELi0ELb0EE5__getEv
__ZNSt3__116__hash_node_baseIPNS_11__hash_nodeINS_17__hash_value_typeINS_12basic_stringIcNS_11char_traitsIcEENS_9allocatorIcEEEES8_EEPvEEE5__ptrEv
__ZNSt3__114pointer_traitsIPNS_16__hash_node_baseIPNS_11__hash_nodeINS_17__hash_value_typeINS_12basic_stringIcNS_11char_traitsIcEENS_9allocatorIcEEEES9_EEPvEEEEE10pointer_toERSE_
__ZNSt3__1L9addressofINS_16__hash_node_baseIPNS_11__hash_nodeINS_17__hash_value_typeINS_12basic_stringIcNS_11char_traitsIcEENS_9allocatorIcEEEES9_EEPvEEEEEEPT_RSF_
__ZNKSt3__110unique_ptrINS_11__hash_nodeINS_17__hash_value_typeINS_12basic_stringIcNS_11char_traitsIcEENS_9allocatorIcEEEES8_EEPvEENS_22__hash_node_destructorINS6_ISB_EEEEE3getEv
__ZNSt3__110unique_ptrINS_11__hash_nodeINS_17__hash_value_typeINS_12basic_stringIcNS_11char_traitsIcEENS_9allocatorIcEEEES8_EEPvEENS_22__hash_node_destructorINS6_ISB_EEEEE7releaseEv
__ZNSt3__117__compressed_pairIPNS_11__hash_nodeINS_17__hash_value_typeINS_12basic_stringIcNS_11char_traitsIcEENS_9allocatorIcEEEES8_EEPvEENS_22__hash_node_destructorINS6_ISB_EEEEE5firstEv
__ZNSt3__122__compressed_pair_elemIPNS_11__hash_nodeINS_17__hash_value_typeINS_12basic_stringIcNS_11char_traitsIcEENS_9allocatorIcEEEES8_EEPvEELi0ELb0EE5__getEv
__ZNSt3__110unique_ptrINS_11__hash_nodeINS_17__hash_value_typeINS_12basic_stringIcNS_11char_traitsIcEENS_9allocatorIcEEEES8_EEPvEENS_22__hash_node_destructorINS6_ISB_EEEEED1Ev
__ZNSt3__110unique_ptrINS_11__hash_nodeINS_17__hash_value_typeINS_12basic_stringIcNS_11char_traitsIcEENS_9allocatorIcEEEES8_EEPvEENS_22__hash_node_destructorINS6_ISB_EEEEED2Ev
__ZNSt3__110unique_ptrINS_11__hash_nodeINS_17__hash_value_typeINS_12basic_stringIcNS_11char_traitsIcEENS_9allocatorIcEEEES8_EEPvEENS_22__hash_node_destructorINS6_ISB_EEEEE5resetEPSB_
__ZNSt3__115__hash_iteratorIPNS_11__hash_nodeINS_17__hash_value_typeINS_12basic_stringIcNS_11char_traitsIcEENS_9allocatorIcEEEES8_EEPvEEEC1EPNS_16__hash_node_baseISC_EE
__ZNSt3__115__hash_iteratorIPNS_11__hash_nodeINS_17__hash_value_typeINS_12basic_stringIcNS_11char_traitsIcEENS_9allocatorIcEEEES8_EEPvEEEC2EPNS_16__hash_node_baseISC_EE
__ZNSt3__14pairINS_15__hash_iteratorIPNS_11__hash_nodeINS_17__hash_value_typeINS_12basic_stringIcNS_11char_traitsIcEENS_9allocatorIcEEEES9_EEPvEEEEbEC1ISE_RbLb0EEEOT_OT0_
__ZNSt3__14pairINS_15__hash_iteratorIPNS_11__hash_nodeINS_17__hash_value_typeINS_12basic_stringIcNS_11char_traitsIcEENS_9allocatorIcEEEES9_EEPvEEEEbEC2ISE_RbLb0EEEOT_OT0_
__ZNSt3__1L7forwardINS_15__hash_iteratorIPNS_11__hash_nodeINS_17__hash_value_typeINS_12basic_stringIcNS_11char_traitsIcEENS_9allocatorIcEEEES9_EEPvEEEEEEOT_RNS_16remove_referenceISF_E4typeE
__ZNKSt3__116__hash_node_baseIPNS_11__hash_nodeINS_17__hash_value_typeINS_12basic_stringIcNS_11char_traitsIcEENS_9allocatorIcEEEES8_EEPvEEE6__hashEv
__ZNSt3__112__hash_tableINS_17__hash_value_typeINS_12basic_stringIcNS_11char_traitsIcEENS_9allocatorIcEEEES7_EENS_22__unordered_map_hasherIS7_S8_NS_4hashIS7_EELb1EEENS_21__unordered_map_equalIS7_S8_NS_8equal_toIS7_EELb1EEENS5_IS8_EEE6key_eqEv
__ZNSt3__117__compressed_pairIfNS_21__unordered_map_equalINS_12basic_stringIcNS_11char_traitsIcEENS_9allocatorIcEEEENS_17__hash_value_typeIS7_S7_EENS_8equal_toIS7_EELb1EEEE6secondEv
__ZNSt3__122__compressed_pair_elemINS_21__unordered_map_equalINS_12basic_stringIcNS_11char_traitsIcEENS_9allocatorIcEEEENS_17__hash_value_typeIS7_S7_EENS_8equal_toIS7_EELb1EEELi1ELb1EE5__getEv
__ZNSt3__116__hash_node_baseIPNS_11__hash_nodeINS_17__hash_value_typeINS_12basic_stringIcNS_11char_traitsIcEENS_9allocatorIcEEEES8_EEPvEEE8__upcastEv
__ZNKSt3__121__unordered_map_equalINS_12basic_stringIcNS_11char_traitsIcEENS_9allocatorIcEEEENS_17__hash_value_typeIS6_S6_EENS_8equal_toIS6_EELb1EEclERKS8_RKS6_
__ZNKSt3__117__hash_value_typeINS_12basic_stringIcNS_11char_traitsIcEENS_9allocatorIcEEEES6_E11__get_valueEv
__ZNSt3__125__bucket_list_deallocatorINS_9allocatorIPNS_16__hash_node_baseIPNS_11__hash_nodeINS_17__hash_value_typeINS_12basic_stringIcNS_11char_traitsIcEENS1_IcEEEES9_EEPvEEEEEEEclEPSF_
__ZNSt3__116allocator_traitsINS_9allocatorIPNS_16__hash_node_baseIPNS_11__hash_nodeINS_17__hash_value_typeINS_12basic_stringIcNS_11char_traitsIcEENS1_IcEEEES9_EEPvEEEEEEE10deallocateERSG_PSF_m
__ZNSt3__19allocatorIPNS_16__hash_node_baseIPNS_11__hash_nodeINS_17__hash_value_typeINS_12basic_stringIcNS_11char_traitsIcEENS0_IcEEEES8_EEPvEEEEE10deallocateEPSE_m
__ZNKSt3__121__unordered_map_equalINS_12basic_stringIcNS_11char_traitsIcEENS_9allocatorIcEEEENS_17__hash_value_typeIS6_S6_EENS_8equal_toIS6_EELb1EEclERKS8_SD_
__ZNKSt3__112basic_stringIcNS_11char_traitsIcEENS_9allocatorIcEEE18__get_long_pointerEv
__ZNKSt3__112basic_stringIcNS_11char_traitsIcEENS_9allocatorIcEEE15__get_long_sizeEv
__ZNSt3__121__murmur2_or_cityhashImLm64EE19__hash_len_33_to_64EPKcm
__ZNSt3__14pairIKNS_12basic_stringIcNS_11char_traitsIcEENS_9allocatorIcEEEES6_ED1Ev
__ZNSt3__14pairIKNS_12basic_stringIcNS_11char_traitsIcEENS_9allocatorIcEEEES6_ED2Ev
__GLOBAL__sub_I_css_style_sheet_manager.cc
__GLOBAL__sub_I_css_style_utils.cc
__GLOBAL__sub_I_diff_element.cc
__GLOBAL__sub_I_differentiator.cc
__GLOBAL__sub_I_dynamic_virtual_component.cc
__GLOBAL__sub_I_element.cc
__GLOBAL__sub_I_element_cache.cc
__GLOBAL__sub_I_element_manager.cc
__GLOBAL__sub_I_flex_layout_algorithm.cc
__GLOBAL__sub_I_js_thread_pool.cc
__ZN4lynx6common4LockC1Ev
__ZN4lynx6common4LockC2Ev
__GLOBAL__sub_I_jsi_executor.cc
__GLOBAL__sub_I_JSModule.mm
__GLOBAL__sub_I_layout_algorithm.cc
__GLOBAL__sub_I_layout_context.cc
__GLOBAL__sub_I_layout_context_darwin.mm
__GLOBAL__sub_I_layout_node.cc
__GLOBAL__sub_I_layout_object.cc
__GLOBAL__sub_I_lazy_load_helper.cc
__GLOBAL__sub_I_length.cc
__GLOBAL__sub_I_lepus_date_api.cc
__ZNSt3__14pairIKNS_12basic_stringIcNS_11char_traitsIcEENS_9allocatorIcEEEEiEC1IRA6_KciLb0EEEOT_OT0_
__ZNSt3__14pairIKNS_12basic_stringIcNS_11char_traitsIcEENS_9allocatorIcEEEEiEC2IRA6_KciLb0EEEOT_OT0_
__ZNSt3__14pairIKNS_12basic_stringIcNS_11char_traitsIcEENS_9allocatorIcEEEEiEC1IRA3_KciLb0EEEOT_OT0_
__ZNSt3__14pairIKNS_12basic_stringIcNS_11char_traitsIcEENS_9allocatorIcEEEEiEC2IRA3_KciLb0EEEOT_OT0_
__ZNSt3__13mapINS_12basic_stringIcNS_11char_traitsIcEENS_9allocatorIcEEEEiNS_4lessIS6_EENS4_INS_4pairIKS6_iEEEEEC1ESt16initializer_listISB_ERKS8_
__ZNSt3__13mapINS_12basic_stringIcNS_11char_traitsIcEENS_9allocatorIcEEEEiNS_4lessIS6_EENS4_INS_4pairIKS6_iEEEEEC2ESt16initializer_listISB_ERKS8_
__ZNSt3__119__map_value_compareINS_12basic_stringIcNS_11char_traitsIcEENS_9allocatorIcEEEENS_12__value_typeIS6_iEENS_4lessIS6_EELb1EEC1ESA_
__ZNSt3__119__map_value_compareINS_12basic_stringIcNS_11char_traitsIcEENS_9allocatorIcEEEENS_12__value_typeIS6_iEENS_4lessIS6_EELb1EEC2ESA_
__ZNSt3__16__treeINS_12__value_typeINS_12basic_stringIcNS_11char_traitsIcEENS_9allocatorIcEEEEiEENS_19__map_value_compareIS7_S8_NS_4lessIS7_EELb1EEENS5_IS8_EEEC1ERKSC_
__ZNSt3__16__treeINS_12__value_typeINS_12basic_stringIcNS_11char_traitsIcEENS_9allocatorIcEEEEiEENS_19__map_value_compareIS7_S8_NS_4lessIS7_EELb1EEENS5_IS8_EEEC2ERKSC_
__ZNSt3__117__compressed_pairINS_15__tree_end_nodeIPNS_16__tree_node_baseIPvEEEENS_9allocatorINS_11__tree_nodeINS_12__value_typeINS_12basic_stringIcNS_11char_traitsIcEENS7_IcEEEEiEES3_EEEEEC1ILb1EvEEv
__ZNSt3__117__compressed_pairINS_15__tree_end_nodeIPNS_16__tree_node_baseIPvEEEENS_9allocatorINS_11__tree_nodeINS_12__value_typeINS_12basic_stringIcNS_11char_traitsIcEENS7_IcEEEEiEES3_EEEEEC2ILb1EvEEv
__ZNSt3__122__compressed_pair_elemINS_15__tree_end_nodeIPNS_16__tree_node_baseIPvEEEELi0ELb0EEC2ENS_16__value_init_tagE
__ZNSt3__115__tree_end_nodeIPNS_16__tree_node_baseIPvEEEC1Ev
__ZNSt3__115__tree_end_nodeIPNS_16__tree_node_baseIPvEEEC2Ev
__ZNSt3__122__compressed_pair_elemINS_9allocatorINS_11__tree_nodeINS_12__value_typeINS_12basic_stringIcNS_11char_traitsIcEENS1_IcEEEEiEEPvEEEELi1ELb1EEC2ENS_16__value_init_tagE
__ZNSt3__19allocatorINS_11__tree_nodeINS_12__value_typeINS_12basic_stringIcNS_11char_traitsIcEENS0_IcEEEEiEEPvEEEC2Ev
__ZNSt3__117__compressed_pairImNS_19__map_value_compareINS_12basic_stringIcNS_11char_traitsIcEENS_9allocatorIcEEEENS_12__value_typeIS7_iEENS_4lessIS7_EELb1EEEEC1IiRKSC_EEOT_OT0_
__ZNSt3__117__compressed_pairImNS_19__map_value_compareINS_12basic_stringIcNS_11char_traitsIcEENS_9allocatorIcEEEENS_12__value_typeIS7_iEENS_4lessIS7_EELb1EEEEC2IiRKSC_EEOT_OT0_
__ZNSt3__1L7forwardIRKNS_19__map_value_compareINS_12basic_stringIcNS_11char_traitsIcEENS_9allocatorIcEEEENS_12__value_typeIS7_iEENS_4lessIS7_EELb1EEEEEOT_RNS_16remove_referenceISF_E4typeE
__ZNSt3__122__compressed_pair_elemINS_19__map_value_compareINS_12basic_stringIcNS_11char_traitsIcEENS_9allocatorIcEEEENS_12__value_typeIS7_iEENS_4lessIS7_EELb1EEELi1ELb1EEC2IRKSC_vEEOT_
__ZNSt3__16__treeINS_12__value_typeINS_12basic_stringIcNS_11char_traitsIcEENS_9allocatorIcEEEEiEENS_19__map_value_compareIS7_S8_NS_4lessIS7_EELb1EEENS5_IS8_EEE10__end_nodeEv
__ZNSt3__117__compressed_pairINS_15__tree_end_nodeIPNS_16__tree_node_baseIPvEEEENS_9allocatorINS_11__tree_nodeINS_12__value_typeINS_12basic_stringIcNS_11char_traitsIcEENS7_IcEEEEiEES3_EEEEE5firstEv
__ZNSt3__122__compressed_pair_elemINS_15__tree_end_nodeIPNS_16__tree_node_baseIPvEEEELi0ELb0EE5__getEv
__ZNSt3__114pointer_traitsIPNS_15__tree_end_nodeIPNS_16__tree_node_baseIPvEEEEE10pointer_toERS6_
__ZNSt3__1L9addressofINS_15__tree_end_nodeIPNS_16__tree_node_baseIPvEEEEEEPT_RS7_
__ZNSt3__16__treeINS_12__value_typeINS_12basic_stringIcNS_11char_traitsIcEENS_9allocatorIcEEEEiEENS_19__map_value_compareIS7_S8_NS_4lessIS7_EELb1EEENS5_IS8_EEE12__begin_nodeEv
__ZNKSt16initializer_listINSt3__14pairIKNS0_12basic_stringIcNS0_11char_traitsIcEENS0_9allocatorIcEEEEiEEE5beginEv
__ZNKSt16initializer_listINSt3__14pairIKNS0_12basic_stringIcNS0_11char_traitsIcEENS0_9allocatorIcEEEEiEEE3endEv
__ZNSt3__13mapINS_12basic_stringIcNS_11char_traitsIcEENS_9allocatorIcEEEEiNS_4lessIS6_EENS4_INS_4pairIKS6_iEEEEE6insertIPKSB_EEvT_SH_
__ZNKSt3__13mapINS_12basic_stringIcNS_11char_traitsIcEENS_9allocatorIcEEEEiNS_4lessIS6_EENS4_INS_4pairIKS6_iEEEEE4cendEv
__ZNKSt3__13mapINS_12basic_stringIcNS_11char_traitsIcEENS_9allocatorIcEEEEiNS_4lessIS6_EENS4_INS_4pairIKS6_iEEEEE3endEv
__ZNKSt3__16__treeINS_12__value_typeINS_12basic_stringIcNS_11char_traitsIcEENS_9allocatorIcEEEEiEENS_19__map_value_compareIS7_S8_NS_4lessIS7_EELb1EEENS5_IS8_EEE3endEv
__ZNKSt3__16__treeINS_12__value_typeINS_12basic_stringIcNS_11char_traitsIcEENS_9allocatorIcEEEEiEENS_19__map_value_compareIS7_S8_NS_4lessIS7_EELb1EEENS5_IS8_EEE10__end_nodeEv
__ZNKSt3__117__compressed_pairINS_15__tree_end_nodeIPNS_16__tree_node_baseIPvEEEENS_9allocatorINS_11__tree_nodeINS_12__value_typeINS_12basic_stringIcNS_11char_traitsIcEENS7_IcEEEEiEES3_EEEEE5firstEv
__ZNKSt3__122__compressed_pair_elemINS_15__tree_end_nodeIPNS_16__tree_node_baseIPvEEEELi0ELb0EE5__getEv
__ZNSt3__121__tree_const_iteratorINS_12__value_typeINS_12basic_stringIcNS_11char_traitsIcEENS_9allocatorIcEEEEiEEPNS_11__tree_nodeIS8_PvEElEC1EPNS_15__tree_end_nodeIPNS_16__tree_node_baseISA_EEEE
__ZNSt3__121__tree_const_iteratorINS_12__value_typeINS_12basic_stringIcNS_11char_traitsIcEENS_9allocatorIcEEEEiEEPNS_11__tree_nodeIS8_PvEElEC2EPNS_15__tree_end_nodeIPNS_16__tree_node_baseISA_EEEE
__ZNSt3__120__map_const_iteratorINS_21__tree_const_iteratorINS_12__value_typeINS_12basic_stringIcNS_11char_traitsIcEENS_9allocatorIcEEEEiEEPNS_11__tree_nodeIS9_PvEElEEEC1ESE_
__ZNSt3__120__map_const_iteratorINS_21__tree_const_iteratorINS_12__value_typeINS_12basic_stringIcNS_11char_traitsIcEENS_9allocatorIcEEEEiEEPNS_11__tree_nodeIS9_PvEElEEEC2ESE_
__ZNSt3__13mapINS_12basic_stringIcNS_11char_traitsIcEENS_9allocatorIcEEEEiNS_4lessIS6_EENS4_INS_4pairIKS6_iEEEEE6insertENS_20__map_const_iteratorINS_21__tree_const_iteratorINS_12__value_typeIS6_iEEPNS_11__tree_nodeISH_PvEElEEEERKSB_
__ZNSt3__16__treeINS_12__value_typeINS_12basic_stringIcNS_11char_traitsIcEENS_9allocatorIcEEEEiEENS_19__map_value_compareIS7_S8_NS_4lessIS7_EELb1EEENS5_IS8_EEE15__insert_uniqueENS_21__tree_const_iteratorIS8_PNS_11__tree_nodeIS8_PvEElEERKNS_4pairIKS7_iEE
__ZNSt3__122__tree_key_value_typesINS_12__value_typeINS_12basic_stringIcNS_11char_traitsIcEENS_9allocatorIcEEEEiEEE9__get_keyIKNS_4pairIKS7_iEEEENS_9enable_ifIXsr17__is_same_uncvrefIT_SD_EE5valueERSC_E4typeERSG_
__ZNSt3__16__treeINS_12__value_typeINS_12basic_stringIcNS_11char_traitsIcEENS_9allocatorIcEEEEiEENS_19__map_value_compareIS7_S8_NS_4lessIS7_EELb1EEENS5_IS8_EEE30__emplace_hint_unique_key_argsIS7_JRKNS_4pairIKS7_iEEEEENS_15__tree_iteratorIS8_PNS_11__tree_nodeIS8_PvEElEENS_21__tree_const_iteratorIS8_SP_lEERKT_DpOT0_
__ZNSt3__16__treeINS_12__value_typeINS_12basic_stringIcNS_11char_traitsIcEENS_9allocatorIcEEEEiEENS_19__map_value_compareIS7_S8_NS_4lessIS7_EELb1EEENS5_IS8_EEE12__find_equalIS7_EERPNS_16__tree_node_baseIPvEENS_21__tree_const_iteratorIS8_PNS_11__tree_nodeIS8_SH_EElEERPNS_15__tree_end_nodeISJ_EESK_RKT_
__ZNSt3__16__treeINS_12__value_typeINS_12basic_stringIcNS_11char_traitsIcEENS_9allocatorIcEEEEiEENS_19__map_value_compareIS7_S8_NS_4lessIS7_EELb1EEENS5_IS8_EEE3endEv
__ZNSt3__115__tree_iteratorINS_12__value_typeINS_12basic_stringIcNS_11char_traitsIcEENS_9allocatorIcEEEEiEEPNS_11__tree_nodeIS8_PvEElEC1EPNS_15__tree_end_nodeIPNS_16__tree_node_baseISA_EEEE
__ZNSt3__115__tree_iteratorINS_12__value_typeINS_12basic_stringIcNS_11char_traitsIcEENS_9allocatorIcEEEEiEEPNS_11__tree_nodeIS8_PvEElEC2EPNS_15__tree_end_nodeIPNS_16__tree_node_baseISA_EEEE
__ZNSt3__121__tree_const_iteratorINS_12__value_typeINS_12basic_stringIcNS_11char_traitsIcEENS_9allocatorIcEEEEiEEPNS_11__tree_nodeIS8_PvEElEC1ENS_15__tree_iteratorIS8_SC_lEE
__ZNSt3__121__tree_const_iteratorINS_12__value_typeINS_12basic_stringIcNS_11char_traitsIcEENS_9allocatorIcEEEEiEEPNS_11__tree_nodeIS8_PvEElEC2ENS_15__tree_iteratorIS8_SC_lEE
__ZNSt3__1eqERKNS_21__tree_const_iteratorINS_12__value_typeINS_12basic_stringIcNS_11char_traitsIcEENS_9allocatorIcEEEEiEEPNS_11__tree_nodeIS8_PvEElEESF_
__ZNSt3__16__treeINS_12__value_typeINS_12basic_stringIcNS_11char_traitsIcEENS_9allocatorIcEEEEiEENS_19__map_value_compareIS7_S8_NS_4lessIS7_EELb1EEENS5_IS8_EEE5beginEv
__ZNSt3__1L7forwardIRKNS_4pairIKNS_12basic_stringIcNS_11char_traitsIcEENS_9allocatorIcEEEEiEEEEOT_RNS_16remove_referenceISC_E4typeE
__ZNSt3__16__treeINS_12__value_typeINS_12basic_stringIcNS_11char_traitsIcEENS_9allocatorIcEEEEiEENS_19__map_value_compareIS7_S8_NS_4lessIS7_EELb1EEENS5_IS8_EEE16__construct_nodeIJRKNS_4pairIKS7_iEEEEENS_10unique_ptrINS_11__tree_nodeIS8_PvEENS_22__tree_node_destructorINS5_ISO_EEEEEEDpOT_
__ZNSt3__16__treeINS_12__value_typeINS_12basic_stringIcNS_11char_traitsIcEENS_9allocatorIcEEEEiEENS_19__map_value_compareIS7_S8_NS_4lessIS7_EELb1EEENS5_IS8_EEE12__node_allocEv
__ZNSt3__117__compressed_pairINS_15__tree_end_nodeIPNS_16__tree_node_baseIPvEEEENS_9allocatorINS_11__tree_nodeINS_12__value_typeINS_12basic_stringIcNS_11char_traitsIcEENS7_IcEEEEiEES3_EEEEE6secondEv
__ZNSt3__122__compressed_pair_elemINS_9allocatorINS_11__tree_nodeINS_12__value_typeINS_12basic_stringIcNS_11char_traitsIcEENS1_IcEEEEiEEPvEEEELi1ELb1EE5__getEv
__ZNSt3__116allocator_traitsINS_9allocatorINS_11__tree_nodeINS_12__value_typeINS_12basic_stringIcNS_11char_traitsIcEENS1_IcEEEEiEEPvEEEEE8allocateERSC_m
__ZNSt3__19allocatorINS_11__tree_nodeINS_12__value_typeINS_12basic_stringIcNS_11char_traitsIcEENS0_IcEEEEiEEPvEEE8allocateEmPKv
__ZNKSt3__19allocatorINS_11__tree_nodeINS_12__value_typeINS_12basic_stringIcNS_11char_traitsIcEENS0_IcEEEEiEEPvEEE8max_sizeEv
__ZNSt3__122__tree_node_destructorINS_9allocatorINS_11__tree_nodeINS_12__value_typeINS_12basic_stringIcNS_11char_traitsIcEENS1_IcEEEEiEEPvEEEEEC1ERSC_b
__ZNSt3__122__tree_node_destructorINS_9allocatorINS_11__tree_nodeINS_12__value_typeINS_12basic_stringIcNS_11char_traitsIcEENS1_IcEEEEiEEPvEEEEEC2ERSC_b
__ZNSt3__110unique_ptrINS_11__tree_nodeINS_12__value_typeINS_12basic_stringIcNS_11char_traitsIcEENS_9allocatorIcEEEEiEEPvEENS_22__tree_node_destructorINS6_ISB_EEEEEC1ILb1EvEEPSB_NS_16__dependent_typeINS_27__unique_ptr_deleter_sfinaeISE_EEXT_EE20__good_rval_ref_typeE
__ZNSt3__110unique_ptrINS_11__tree_nodeINS_12__value_typeINS_12basic_stringIcNS_11char_traitsIcEENS_9allocatorIcEEEEiEEPvEENS_22__tree_node_destructorINS6_ISB_EEEEEC2ILb1EvEEPSB_NS_16__dependent_typeINS_27__unique_ptr_deleter_sfinaeISE_EEXT_EE20__good_rval_ref_typeE
__ZNSt3__1L4moveIRNS_22__tree_node_destructorINS_9allocatorINS_11__tree_nodeINS_12__value_typeINS_12basic_stringIcNS_11char_traitsIcEENS2_IcEEEEiEEPvEEEEEEEEONS_16remove_referenceIT_E4typeEOSH_
__ZNSt3__117__compressed_pairIPNS_11__tree_nodeINS_12__value_typeINS_12basic_stringIcNS_11char_traitsIcEENS_9allocatorIcEEEEiEEPvEENS_22__tree_node_destructorINS6_ISB_EEEEEC1IRSC_SF_EEOT_OT0_
__ZNSt3__117__compressed_pairIPNS_11__tree_nodeINS_12__value_typeINS_12basic_stringIcNS_11char_traitsIcEENS_9allocatorIcEEEEiEEPvEENS_22__tree_node_destructorINS6_ISB_EEEEEC2IRSC_SF_EEOT_OT0_
__ZNSt3__1L7forwardIRPNS_11__tree_nodeINS_12__value_typeINS_12basic_stringIcNS_11char_traitsIcEENS_9allocatorIcEEEEiEEPvEEEEOT_RNS_16remove_referenceISE_E4typeE
__ZNSt3__122__compressed_pair_elemIPNS_11__tree_nodeINS_12__value_typeINS_12basic_stringIcNS_11char_traitsIcEENS_9allocatorIcEEEEiEEPvEELi0ELb0EEC2IRSC_vEEOT_
__ZNSt3__1L7forwardINS_22__tree_node_destructorINS_9allocatorINS_11__tree_nodeINS_12__value_typeINS_12basic_stringIcNS_11char_traitsIcEENS2_IcEEEEiEEPvEEEEEEEEOT_RNS_16remove_referenceISF_E4typeE
__ZNSt3__122__compressed_pair_elemINS_22__tree_node_destructorINS_9allocatorINS_11__tree_nodeINS_12__value_typeINS_12basic_stringIcNS_11char_traitsIcEENS2_IcEEEEiEEPvEEEEEELi1ELb0EEC2ISE_vEEOT_
__ZNKSt3__110unique_ptrINS_11__tree_nodeINS_12__value_typeINS_12basic_stringIcNS_11char_traitsIcEENS_9allocatorIcEEEEiEEPvEENS_22__tree_node_destructorINS6_ISB_EEEEEptEv
__ZNKSt3__117__compressed_pairIPNS_11__tree_nodeINS_12__value_typeINS_12basic_stringIcNS_11char_traitsIcEENS_9allocatorIcEEEEiEEPvEENS_22__tree_node_destructorINS6_ISB_EEEEE5firstEv
__ZNKSt3__122__compressed_pair_elemIPNS_11__tree_nodeINS_12__value_typeINS_12basic_stringIcNS_11char_traitsIcEENS_9allocatorIcEEEEiEEPvEELi0ELb0EE5__getEv
__ZNSt3__122__tree_key_value_typesINS_12__value_typeINS_12basic_stringIcNS_11char_traitsIcEENS_9allocatorIcEEEEiEEE9__get_ptrERS8_
__ZNSt3__112__value_typeINS_12basic_stringIcNS_11char_traitsIcEENS_9allocatorIcEEEEiE11__get_valueEv
__ZNSt3__1L9addressofINS_4pairIKNS_12basic_stringIcNS_11char_traitsIcEENS_9allocatorIcEEEEiEEEEPT_RSA_
__ZNSt3__116allocator_traitsINS_9allocatorINS_11__tree_nodeINS_12__value_typeINS_12basic_stringIcNS_11char_traitsIcEENS1_IcEEEEiEEPvEEEEE9constructINS_4pairIKS8_iEEJRKSH_EEEvRSC_PT_DpOT0_
__ZNSt3__116allocator_traitsINS_9allocatorINS_11__tree_nodeINS_12__value_typeINS_12basic_stringIcNS_11char_traitsIcEENS1_IcEEEEiEEPvEEEEE11__constructINS_4pairIKS8_iEEJRKSH_EEEvNS_17integral_constantIbLb1EEERSC_PT_DpOT0_
__ZNSt3__19allocatorINS_11__tree_nodeINS_12__value_typeINS_12basic_stringIcNS_11char_traitsIcEENS0_IcEEEEiEEPvEEE9constructINS_4pairIKS7_iEEJRKSF_EEEvPT_DpOT0_
__ZNSt3__14pairIKNS_12basic_stringIcNS_11char_traitsIcEENS_9allocatorIcEEEEiEC1ERKS8_
__ZNSt3__14pairIKNS_12basic_stringIcNS_11char_traitsIcEENS_9allocatorIcEEEEiEC2ERKS8_
__ZNSt3__110unique_ptrINS_11__tree_nodeINS_12__value_typeINS_12basic_stringIcNS_11char_traitsIcEENS_9allocatorIcEEEEiEEPvEENS_22__tree_node_destructorINS6_ISB_EEEEE11get_deleterEv
__ZNSt3__117__compressed_pairIPNS_11__tree_nodeINS_12__value_typeINS_12basic_stringIcNS_11char_traitsIcEENS_9allocatorIcEEEEiEEPvEENS_22__tree_node_destructorINS6_ISB_EEEEE6secondEv
__ZNSt3__122__compressed_pair_elemINS_22__tree_node_destructorINS_9allocatorINS_11__tree_nodeINS_12__value_typeINS_12basic_stringIcNS_11char_traitsIcEENS2_IcEEEEiEEPvEEEEEELi1ELb0EE5__getEv
__ZNKSt3__110unique_ptrINS_11__tree_nodeINS_12__value_typeINS_12basic_stringIcNS_11char_traitsIcEENS_9allocatorIcEEEEiEEPvEENS_22__tree_node_destructorINS6_ISB_EEEEE3getEv
__ZNSt3__16__treeINS_12__value_typeINS_12basic_stringIcNS_11char_traitsIcEENS_9allocatorIcEEEEiEENS_19__map_value_compareIS7_S8_NS_4lessIS7_EELb1EEENS5_IS8_EEE16__insert_node_atEPNS_15__tree_end_nodeIPNS_16__tree_node_baseIPvEEEERSJ_SJ_
__ZNSt3__16__treeINS_12__value_typeINS_12basic_stringIcNS_11char_traitsIcEENS_9allocatorIcEEEEiEENS_19__map_value_compareIS7_S8_NS_4lessIS7_EELb1EEENS5_IS8_EEE4sizeEv
__ZNSt3__117__compressed_pairImNS_19__map_value_compareINS_12basic_stringIcNS_11char_traitsIcEENS_9allocatorIcEEEENS_12__value_typeIS7_iEENS_4lessIS7_EELb1EEEE5firstEv
__ZNSt3__110unique_ptrINS_11__tree_nodeINS_12__value_typeINS_12basic_stringIcNS_11char_traitsIcEENS_9allocatorIcEEEEiEEPvEENS_22__tree_node_destructorINS6_ISB_EEEEE7releaseEv
__ZNSt3__117__compressed_pairIPNS_11__tree_nodeINS_12__value_typeINS_12basic_stringIcNS_11char_traitsIcEENS_9allocatorIcEEEEiEEPvEENS_22__tree_node_destructorINS6_ISB_EEEEE5firstEv
__ZNSt3__122__compressed_pair_elemIPNS_11__tree_nodeINS_12__value_typeINS_12basic_stringIcNS_11char_traitsIcEENS_9allocatorIcEEEEiEEPvEELi0ELb0EE5__getEv
__ZNSt3__110unique_ptrINS_11__tree_nodeINS_12__value_typeINS_12basic_stringIcNS_11char_traitsIcEENS_9allocatorIcEEEEiEEPvEENS_22__tree_node_destructorINS6_ISB_EEEEED1Ev
__ZNSt3__110unique_ptrINS_11__tree_nodeINS_12__value_typeINS_12basic_stringIcNS_11char_traitsIcEENS_9allocatorIcEEEEiEEPvEENS_22__tree_node_destructorINS6_ISB_EEEEED2Ev
__ZNSt3__110unique_ptrINS_11__tree_nodeINS_12__value_typeINS_12basic_stringIcNS_11char_traitsIcEENS_9allocatorIcEEEEiEEPvEENS_22__tree_node_destructorINS6_ISB_EEEEE5resetEPSB_
__ZNSt3__115__tree_iteratorINS_12__value_typeINS_12basic_stringIcNS_11char_traitsIcEENS_9allocatorIcEEEEiEEPNS_11__tree_nodeIS8_PvEElEC1ESC_
__ZNSt3__115__tree_iteratorINS_12__value_typeINS_12basic_stringIcNS_11char_traitsIcEENS_9allocatorIcEEEEiEEPNS_11__tree_nodeIS8_PvEElEC2ESC_
__ZNSt3__114__map_iteratorINS_15__tree_iteratorINS_12__value_typeINS_12basic_stringIcNS_11char_traitsIcEENS_9allocatorIcEEEEiEEPNS_11__tree_nodeIS9_PvEElEEEC1ESE_
__ZNSt3__114__map_iteratorINS_15__tree_iteratorINS_12__value_typeINS_12basic_stringIcNS_11char_traitsIcEENS_9allocatorIcEEEEiEEPNS_11__tree_nodeIS9_PvEElEEEC2ESE_
__ZNSt3__16__treeINS_12__value_typeINS_12basic_stringIcNS_11char_traitsIcEENS_9allocatorIcEEEEiEENS_19__map_value_compareIS7_S8_NS_4lessIS7_EELb1EEENS5_IS8_EEE10value_compEv
__ZNSt3__117__compressed_pairImNS_19__map_value_compareINS_12basic_stringIcNS_11char_traitsIcEENS_9allocatorIcEEEENS_12__value_typeIS7_iEENS_4lessIS7_EELb1EEEE6secondEv
__ZNSt3__122__compressed_pair_elemINS_19__map_value_compareINS_12basic_stringIcNS_11char_traitsIcEENS_9allocatorIcEEEENS_12__value_typeIS7_iEENS_4lessIS7_EELb1EEELi1ELb1EE5__getEv
__ZNSt3__121__tree_const_iteratorINS_12__value_typeINS_12basic_stringIcNS_11char_traitsIcEENS_9allocatorIcEEEEiEEPNS_11__tree_nodeIS8_PvEElEmmEv
__ZNSt3__1L16__tree_prev_iterIPNS_16__tree_node_baseIPvEEPNS_15__tree_end_nodeIS4_EEEET_T0_
__ZNSt3__1L10__tree_maxIPNS_16__tree_node_baseIPvEEEET_S5_
__ZNKSt3__121__tree_const_iteratorINS_12__value_typeINS_12basic_stringIcNS_11char_traitsIcEENS_9allocatorIcEEEEiEEPNS_11__tree_nodeIS8_PvEElEdeEv
__ZNKSt3__121__tree_const_iteratorINS_12__value_typeINS_12basic_stringIcNS_11char_traitsIcEENS_9allocatorIcEEEEiEEPNS_11__tree_nodeIS8_PvEElE8__get_npEv
__ZNKSt3__119__map_value_compareINS_12basic_stringIcNS_11char_traitsIcEENS_9allocatorIcEEEENS_12__value_typeIS6_iEENS_4lessIS6_EELb1EEclERKS8_RKS6_
__ZNKSt3__112__value_typeINS_12basic_stringIcNS_11char_traitsIcEENS_9allocatorIcEEEEiE11__get_valueEv
__ZNKSt3__14lessINS_12basic_stringIcNS_11char_traitsIcEENS_9allocatorIcEEEEEclERKS6_S9_
__ZNSt3__1ltIcNS_11char_traitsIcEENS_9allocatorIcEEEEbRKNS_12basic_stringIT_T0_T1_EESB_
__ZNKSt3__112basic_stringIcNS_11char_traitsIcEENS_9allocatorIcEEE7compareERKS5_
__ZNKSt3__112basic_stringIcNS_11char_traitsIcEENS_9allocatorIcEEEcvNS_17basic_string_viewIcS2_EEEv
__ZNSt3__117basic_string_viewIcNS_11char_traitsIcEEEC1EPKcm
__ZNSt3__117basic_string_viewIcNS_11char_traitsIcEEEC2EPKcm
__ZNSt3__16__treeINS_12__value_typeINS_12basic_stringIcNS_11char_traitsIcEENS_9allocatorIcEEEEiEENS_19__map_value_compareIS7_S8_NS_4lessIS7_EELb1EEENS5_IS8_EEE12__find_equalIS7_EERPNS_16__tree_node_baseIPvEERPNS_15__tree_end_nodeISJ_EERKT_
__ZNKSt3__16__treeINS_12__value_typeINS_12basic_stringIcNS_11char_traitsIcEENS_9allocatorIcEEEEiEENS_19__map_value_compareIS7_S8_NS_4lessIS7_EELb1EEENS5_IS8_EEE6__rootEv
__ZNKSt3__16__treeINS_12__value_typeINS_12basic_stringIcNS_11char_traitsIcEENS_9allocatorIcEEEEiEENS_19__map_value_compareIS7_S8_NS_4lessIS7_EELb1EEENS5_IS8_EEE10__root_ptrEv
__ZNSt3__1L9addressofIPNS_16__tree_node_baseIPvEEEEPT_RS5_
__ZNKSt3__119__map_value_compareINS_12basic_stringIcNS_11char_traitsIcEENS_9allocatorIcEEEENS_12__value_typeIS6_iEENS_4lessIS6_EELb1EEclERKS6_RKS8_
__ZNSt3__14pairIKNS_12basic_stringIcNS_11char_traitsIcEENS_9allocatorIcEEEEiED1Ev
__ZNSt3__14pairIKNS_12basic_stringIcNS_11char_traitsIcEENS_9allocatorIcEEEEiED2Ev
__ZNSt3__16vectorINS_12basic_stringIcNS_11char_traitsIcEENS_9allocatorIcEEEENS4_IS6_EEEC1ESt16initializer_listIS6_E
__ZNSt3__16vectorINS_12basic_stringIcNS_11char_traitsIcEENS_9allocatorIcEEEENS4_IS6_EEEC2ESt16initializer_listIS6_E
__ZNSt3__113__vector_baseINS_12basic_stringIcNS_11char_traitsIcEENS_9allocatorIcEEEENS4_IS6_EEEC2Ev
__ZNSt3__120__vector_base_commonILb1EEC2Ev
__ZNSt3__117__compressed_pairIPNS_12basic_stringIcNS_11char_traitsIcEENS_9allocatorIcEEEENS4_IS6_EEEC1IDnNS_18__default_init_tagEEEOT_OT0_
__ZNSt3__117__compressed_pairIPNS_12basic_stringIcNS_11char_traitsIcEENS_9allocatorIcEEEENS4_IS6_EEEC2IDnNS_18__default_init_tagEEEOT_OT0_
__ZNSt3__1L7forwardIDnEEOT_RNS_16remove_referenceIS1_E4typeE
__ZNSt3__122__compressed_pair_elemIPNS_12basic_stringIcNS_11char_traitsIcEENS_9allocatorIcEEEELi0ELb0EEC2IDnvEEOT_
__ZNSt3__122__compressed_pair_elemINS_9allocatorINS_12basic_stringIcNS_11char_traitsIcEENS1_IcEEEEEELi1ELb1EEC2ENS_18__default_init_tagE
__ZNSt3__19allocatorINS_12basic_stringIcNS_11char_traitsIcEENS0_IcEEEEEC2Ev
__ZNKSt16initializer_listINSt3__112basic_stringIcNS0_11char_traitsIcEENS0_9allocatorIcEEEEE4sizeEv
__GLOBAL__sub_I_linear_layout_algorithm.cc
__GLOBAL__sub_I_list_virtual_node.cc
__GLOBAL__sub_I_logging.cc
__ZNSt3__110unique_ptrIN4lynx6common7logging15LoggingDelegateENS_14default_deleteIS4_EEEC1ILb1EvEEDn
__ZNSt3__110unique_ptrIN4lynx6common7logging15LoggingDelegateENS_14default_deleteIS4_EEEC2ILb1EvEEDn
__ZNSt3__117__compressed_pairIPN4lynx6common7logging15LoggingDelegateENS_14default_deleteIS4_EEEC1IS5_NS_18__default_init_tagEEEOT_OT0_
__ZNSt3__117__compressed_pairIPN4lynx6common7logging15LoggingDelegateENS_14default_deleteIS4_EEEC2IS5_NS_18__default_init_tagEEEOT_OT0_
__ZNSt3__1L7forwardIPN4lynx6common7logging15LoggingDelegateEEEOT_RNS_16remove_referenceIS6_E4typeE
__ZNSt3__122__compressed_pair_elemIPN4lynx6common7logging15LoggingDelegateELi0ELb0EEC2IS5_vEEOT_
__ZNSt3__122__compressed_pair_elemINS_14default_deleteIN4lynx6common7logging15LoggingDelegateEEELi1ELb1EEC2ENS_18__default_init_tagE
__GLOBAL__sub_I_lynx_api_handler.cc
__GLOBAL__sub_I_lynx_module_darwin.mm
__GLOBAL__sub_I_lynx_resource_setting.cc
__ZNSt3__110shared_ptrIN4lynx8jsbridge19LynxResourceSettingEEC1EDn
__ZNSt3__110shared_ptrIN4lynx8jsbridge19LynxResourceSettingEEC2EDn
__GLOBAL__sub_I_lynx_runtime.cc
___cxx_global_var_init.25
__ZNSt3__113unordered_mapIxNS_8weak_ptrIN4lynx7runtime11LynxRuntimeEEENS_4hashIxEENS_8equal_toIxEENS_9allocatorINS_4pairIKxS5_EEEEEC1Ev
__ZNSt3__113unordered_mapIxNS_8weak_ptrIN4lynx7runtime11LynxRuntimeEEENS_4hashIxEENS_8equal_toIxEENS_9allocatorINS_4pairIKxS5_EEEEEC2Ev
__ZNSt3__112__hash_tableINS_17__hash_value_typeIxNS_8weak_ptrIN4lynx7runtime11LynxRuntimeEEEEENS_22__unordered_map_hasherIxS7_NS_4hashIxEELb1EEENS_21__unordered_map_equalIxS7_NS_8equal_toIxEELb1EEENS_9allocatorIS7_EEEC1Ev
__ZNSt3__112__hash_tableINS_17__hash_value_typeIxNS_8weak_ptrIN4lynx7runtime11LynxRuntimeEEEEENS_22__unordered_map_hasherIxS7_NS_4hashIxEELb1EEENS_21__unordered_map_equalIxS7_NS_8equal_toIxEELb1EEENS_9allocatorIS7_EEEC2Ev
__ZNSt3__110unique_ptrIA_PNS_16__hash_node_baseIPNS_11__hash_nodeINS_17__hash_value_typeIxNS_8weak_ptrIN4lynx7runtime11LynxRuntimeEEEEEPvEEEENS_25__bucket_list_deallocatorINS_9allocatorISE_EEEEEC1ILb1EvEEv
__ZNSt3__110unique_ptrIA_PNS_16__hash_node_baseIPNS_11__hash_nodeINS_17__hash_value_typeIxNS_8weak_ptrIN4lynx7runtime11LynxRuntimeEEEEEPvEEEENS_25__bucket_list_deallocatorINS_9allocatorISE_EEEEEC2ILb1EvEEv
__ZNSt3__117__compressed_pairIPPNS_16__hash_node_baseIPNS_11__hash_nodeINS_17__hash_value_typeIxNS_8weak_ptrIN4lynx7runtime11LynxRuntimeEEEEEPvEEEENS_25__bucket_list_deallocatorINS_9allocatorISE_EEEEEC1ISF_NS_18__default_init_tagEEEOT_OT0_
__ZNSt3__117__compressed_pairIPPNS_16__hash_node_baseIPNS_11__hash_nodeINS_17__hash_value_typeIxNS_8weak_ptrIN4lynx7runtime11LynxRuntimeEEEEEPvEEEENS_25__bucket_list_deallocatorINS_9allocatorISE_EEEEEC2ISF_NS_18__default_init_tagEEEOT_OT0_
__ZNSt3__1L7forwardIPPNS_16__hash_node_baseIPNS_11__hash_nodeINS_17__hash_value_typeIxNS_8weak_ptrIN4lynx7runtime11LynxRuntimeEEEEEPvEEEEEEOT_RNS_16remove_referenceISG_E4typeE
__ZNSt3__122__compressed_pair_elemIPPNS_16__hash_node_baseIPNS_11__hash_nodeINS_17__hash_value_typeIxNS_8weak_ptrIN4lynx7runtime11LynxRuntimeEEEEEPvEEEELi0ELb0EEC2ISF_vEEOT_
__ZNSt3__122__compressed_pair_elemINS_25__bucket_list_deallocatorINS_9allocatorIPNS_16__hash_node_baseIPNS_11__hash_nodeINS_17__hash_value_typeIxNS_8weak_ptrIN4lynx7runtime11LynxRuntimeEEEEEPvEEEEEEEELi1ELb0EEC2ENS_18__default_init_tagE
__ZNSt3__125__bucket_list_deallocatorINS_9allocatorIPNS_16__hash_node_baseIPNS_11__hash_nodeINS_17__hash_value_typeIxNS_8weak_ptrIN4lynx7runtime11LynxRuntimeEEEEEPvEEEEEEEC1Ev
__ZNSt3__125__bucket_list_deallocatorINS_9allocatorIPNS_16__hash_node_baseIPNS_11__hash_nodeINS_17__hash_value_typeIxNS_8weak_ptrIN4lynx7runtime11LynxRuntimeEEEEEPvEEEEEEEC2Ev
__ZNSt3__117__compressed_pairImNS_9allocatorIPNS_16__hash_node_baseIPNS_11__hash_nodeINS_17__hash_value_typeIxNS_8weak_ptrIN4lynx7runtime11LynxRuntimeEEEEEPvEEEEEEEC1IiNS_18__default_init_tagEEEOT_OT0_
__ZNSt3__117__compressed_pairImNS_9allocatorIPNS_16__hash_node_baseIPNS_11__hash_nodeINS_17__hash_value_typeIxNS_8weak_ptrIN4lynx7runtime11LynxRuntimeEEEEEPvEEEEEEEC2IiNS_18__default_init_tagEEEOT_OT0_
__ZNSt3__122__compressed_pair_elemINS_9allocatorIPNS_16__hash_node_baseIPNS_11__hash_nodeINS_17__hash_value_typeIxNS_8weak_ptrIN4lynx7runtime11LynxRuntimeEEEEEPvEEEEEELi1ELb1EEC2ENS_18__default_init_tagE
__ZNSt3__19allocatorIPNS_16__hash_node_baseIPNS_11__hash_nodeINS_17__hash_value_typeIxNS_8weak_ptrIN4lynx7runtime11LynxRuntimeEEEEEPvEEEEEC2Ev
__ZNSt3__117__compressed_pairINS_16__hash_node_baseIPNS_11__hash_nodeINS_17__hash_value_typeIxNS_8weak_ptrIN4lynx7runtime11LynxRuntimeEEEEEPvEEEENS_9allocatorISB_EEEC1ILb1EvEEv
__ZNSt3__117__compressed_pairINS_16__hash_node_baseIPNS_11__hash_nodeINS_17__hash_value_typeIxNS_8weak_ptrIN4lynx7runtime11LynxRuntimeEEEEEPvEEEENS_9allocatorISB_EEEC2ILb1EvEEv
__ZNSt3__122__compressed_pair_elemINS_16__hash_node_baseIPNS_11__hash_nodeINS_17__hash_value_typeIxNS_8weak_ptrIN4lynx7runtime11LynxRuntimeEEEEEPvEEEELi0ELb0EEC2ENS_16__value_init_tagE
__ZNSt3__116__hash_node_baseIPNS_11__hash_nodeINS_17__hash_value_typeIxNS_8weak_ptrIN4lynx7runtime11LynxRuntimeEEEEEPvEEEC1Ev
__ZNSt3__116__hash_node_baseIPNS_11__hash_nodeINS_17__hash_value_typeIxNS_8weak_ptrIN4lynx7runtime11LynxRuntimeEEEEEPvEEEC2Ev
__ZNSt3__122__compressed_pair_elemINS_9allocatorINS_11__hash_nodeINS_17__hash_value_typeIxNS_8weak_ptrIN4lynx7runtime11LynxRuntimeEEEEEPvEEEELi1ELb1EEC2ENS_16__value_init_tagE
__ZNSt3__19allocatorINS_11__hash_nodeINS_17__hash_value_typeIxNS_8weak_ptrIN4lynx7runtime11LynxRuntimeEEEEEPvEEEC2Ev
__ZNSt3__117__compressed_pairImNS_22__unordered_map_hasherIxNS_17__hash_value_typeIxNS_8weak_ptrIN4lynx7runtime11LynxRuntimeEEEEENS_4hashIxEELb1EEEEC1IiNS_18__default_init_tagEEEOT_OT0_
__ZNSt3__117__compressed_pairImNS_22__unordered_map_hasherIxNS_17__hash_value_typeIxNS_8weak_ptrIN4lynx7runtime11LynxRuntimeEEEEENS_4hashIxEELb1EEEEC2IiNS_18__default_init_tagEEEOT_OT0_
__ZNSt3__122__compressed_pair_elemINS_22__unordered_map_hasherIxNS_17__hash_value_typeIxNS_8weak_ptrIN4lynx7runtime11LynxRuntimeEEEEENS_4hashIxEELb1EEELi1ELb1EEC2ENS_18__default_init_tagE
__ZNSt3__122__unordered_map_hasherIxNS_17__hash_value_typeIxNS_8weak_ptrIN4lynx7runtime11LynxRuntimeEEEEENS_4hashIxEELb1EEC2Ev
__ZNSt3__117__compressed_pairIfNS_21__unordered_map_equalIxNS_17__hash_value_typeIxNS_8weak_ptrIN4lynx7runtime11LynxRuntimeEEEEENS_8equal_toIxEELb1EEEEC1IfNS_18__default_init_tagEEEOT_OT0_
__ZNSt3__117__compressed_pairIfNS_21__unordered_map_equalIxNS_17__hash_value_typeIxNS_8weak_ptrIN4lynx7runtime11LynxRuntimeEEEEENS_8equal_toIxEELb1EEEEC2IfNS_18__default_init_tagEEEOT_OT0_
__ZNSt3__122__compressed_pair_elemINS_21__unordered_map_equalIxNS_17__hash_value_typeIxNS_8weak_ptrIN4lynx7runtime11LynxRuntimeEEEEENS_8equal_toIxEELb1EEELi1ELb1EEC2ENS_18__default_init_tagE
__ZNSt3__121__unordered_map_equalIxNS_17__hash_value_typeIxNS_8weak_ptrIN4lynx7runtime11LynxRuntimeEEEEENS_8equal_toIxEELb1EEC2Ev
__GLOBAL__sub_I_lynx_runtime_darwin.mm
__GLOBAL__sub_I_LynxConfig.mm
__GLOBAL__sub_I_LynxLayoutNode.mm
__GLOBAL__sub_I_LynxTemplateRender.mm
__GLOBAL__sub_I_LynxUICollection.mm
__GLOBAL__sub_I_LynxUIList.mm
__GLOBAL__sub_I_painting_context_darwin.mm
__GLOBAL__sub_I_polyfill.cc
__GLOBAL__sub_I_radon_component.cc
__GLOBAL__sub_I_radon_decoder.cc
__GLOBAL__sub_I_radon_dynamic_component.cc
__GLOBAL__sub_I_radon_element.cc
__GLOBAL__sub_I_radon_for_node.cc
__GLOBAL__sub_I_radon_if_node.cc
__GLOBAL__sub_I_radon_node.cc
__GLOBAL__sub_I_radon_page.cc
__GLOBAL__sub_I_relative_layout_algorithm.cc
__GLOBAL__sub_I_renderer.cc
__GLOBAL__sub_I_rn_props_rule.cc
__ZNSt3__113unordered_setINS_12basic_stringIcNS_11char_traitsIcEENS_9allocatorIcEEEENS_4hashIS6_EENS_8equal_toIS6_EENS4_IS6_EEEC1ESt16initializer_listIS6_E
___cxx_global_var_init.30
___cxx_global_var_init.32
___cxx_global_var_init.42
___cxx_global_var_init.46
___cxx_global_var_init.49
___cxx_global_var_init.54
___cxx_global_var_init.56
___cxx_global_var_init.58
___cxx_global_var_init.59
___cxx_global_var_init.60
___cxx_global_var_init.62
___cxx_global_var_init.66
___cxx_global_var_init.67
___cxx_global_var_init.70
___cxx_global_var_init.71
__ZNSt3__14pairIKN4lynx4tasm13CSSPropertyIDENS_13unordered_setINS_12basic_stringIcNS_11char_traitsIcEENS_9allocatorIcEEEENS_4hashISB_EENS_8equal_toISB_EENS9_ISB_EEEEEC1IS3_RSH_Lb0EEEOT_OT0_
__ZNSt3__14pairIKN4lynx4tasm13CSSPropertyIDENS_13unordered_setINS_12basic_stringIcNS_11char_traitsIcEENS_9allocatorIcEEEENS_4hashISB_EENS_8equal_toISB_EENS9_ISB_EEEEEC2IS3_RSH_Lb0EEEOT_OT0_
__ZNSt3__1L7forwardIN4lynx4tasm13CSSPropertyIDEEEOT_RNS_16remove_referenceIS4_E4typeE
__ZNSt3__1L7forwardIRNS_13unordered_setINS_12basic_stringIcNS_11char_traitsIcEENS_9allocatorIcEEEENS_4hashIS7_EENS_8equal_toIS7_EENS5_IS7_EEEEEEOT_RNS_16remove_referenceISF_E4typeE
__ZNSt3__113unordered_setINS_12basic_stringIcNS_11char_traitsIcEENS_9allocatorIcEEEENS_4hashIS6_EENS_8equal_toIS6_EENS4_IS6_EEEC1ERKSC_
__ZNSt3__113unordered_setINS_12basic_stringIcNS_11char_traitsIcEENS_9allocatorIcEEEENS_4hashIS6_EENS_8equal_toIS6_EENS4_IS6_EEEC2ERKSC_
__ZNSt3__112__hash_tableINS_12basic_stringIcNS_11char_traitsIcEENS_9allocatorIcEEEENS_4hashIS6_EENS_8equal_toIS6_EENS4_IS6_EEEC1ERKSC_
__ZNSt3__112__hash_tableINS_12basic_stringIcNS_11char_traitsIcEENS_9allocatorIcEEEENS_4hashIS6_EENS_8equal_toIS6_EENS4_IS6_EEEC2ERKSC_
__ZNKSt3__125__bucket_list_deallocatorINS_9allocatorIPNS_16__hash_node_baseIPNS_11__hash_nodeINS_12basic_stringIcNS_11char_traitsIcEENS1_IcEEEEPvEEEEEEE7__allocEv
__ZNKSt3__117__compressed_pairImNS_9allocatorIPNS_16__hash_node_baseIPNS_11__hash_nodeINS_12basic_stringIcNS_11char_traitsIcEENS1_IcEEEEPvEEEEEEE6secondEv
__ZNKSt3__122__compressed_pair_elemINS_9allocatorIPNS_16__hash_node_baseIPNS_11__hash_nodeINS_12basic_stringIcNS_11char_traitsIcEENS1_IcEEEEPvEEEEEELi1ELb1EE5__getEv
__ZNSt3__116allocator_traitsINS_9allocatorIPNS_16__hash_node_baseIPNS_11__hash_nodeINS_12basic_stringIcNS_11char_traitsIcEENS1_IcEEEEPvEEEEEEE37select_on_container_copy_constructionERKSE_
__ZNSt3__116allocator_traitsINS_9allocatorIPNS_16__hash_node_baseIPNS_11__hash_nodeINS_12basic_stringIcNS_11char_traitsIcEENS1_IcEEEEPvEEEEEEE39__select_on_container_copy_constructionENS_17integral_constantIbLb0EEERKSE_
__ZNSt3__125__bucket_list_deallocatorINS_9allocatorIPNS_16__hash_node_baseIPNS_11__hash_nodeINS_12basic_stringIcNS_11char_traitsIcEENS1_IcEEEEPvEEEEEEEC1ERKSE_m
__ZNSt3__125__bucket_list_deallocatorINS_9allocatorIPNS_16__hash_node_baseIPNS_11__hash_nodeINS_12basic_stringIcNS_11char_traitsIcEENS1_IcEEEEPvEEEEEEEC2ERKSE_m
__ZNSt3__117__compressed_pairImNS_9allocatorIPNS_16__hash_node_baseIPNS_11__hash_nodeINS_12basic_stringIcNS_11char_traitsIcEENS1_IcEEEEPvEEEEEEEC1IRmRKSE_EEOT_OT0_
__ZNSt3__117__compressed_pairImNS_9allocatorIPNS_16__hash_node_baseIPNS_11__hash_nodeINS_12basic_stringIcNS_11char_traitsIcEENS1_IcEEEEPvEEEEEEEC2IRmRKSE_EEOT_OT0_
__ZNSt3__1L7forwardIRmEEOT_RNS_16remove_referenceIS2_E4typeE
__ZNSt3__122__compressed_pair_elemImLi0ELb0EEC2IRmvEEOT_
__ZNSt3__1L7forwardIRKNS_9allocatorIPNS_16__hash_node_baseIPNS_11__hash_nodeINS_12basic_stringIcNS_11char_traitsIcEENS1_IcEEEEPvEEEEEEEEOT_RNS_16remove_referenceISH_E4typeE
__ZNSt3__122__compressed_pair_elemINS_9allocatorIPNS_16__hash_node_baseIPNS_11__hash_nodeINS_12basic_stringIcNS_11char_traitsIcEENS1_IcEEEEPvEEEEEELi1ELb1EEC2IRKSE_vEEOT_
__ZNSt3__110unique_ptrIA_PNS_16__hash_node_baseIPNS_11__hash_nodeINS_12basic_stringIcNS_11char_traitsIcEENS_9allocatorIcEEEEPvEEEENS_25__bucket_list_deallocatorINS6_ISD_EEEEEC1ILb1EvEEDnNS_16__dependent_typeINS_27__unique_ptr_deleter_sfinaeISH_EEXT_EE20__good_rval_ref_typeE
__ZNSt3__110unique_ptrIA_PNS_16__hash_node_baseIPNS_11__hash_nodeINS_12basic_stringIcNS_11char_traitsIcEENS_9allocatorIcEEEEPvEEEENS_25__bucket_list_deallocatorINS6_ISD_EEEEEC2ILb1EvEEDnNS_16__dependent_typeINS_27__unique_ptr_deleter_sfinaeISH_EEXT_EE20__good_rval_ref_typeE
__ZNSt3__1L4moveIRNS_25__bucket_list_deallocatorINS_9allocatorIPNS_16__hash_node_baseIPNS_11__hash_nodeINS_12basic_stringIcNS_11char_traitsIcEENS2_IcEEEEPvEEEEEEEEEEONS_16remove_referenceIT_E4typeEOSJ_
__ZNSt3__117__compressed_pairIPPNS_16__hash_node_baseIPNS_11__hash_nodeINS_12basic_stringIcNS_11char_traitsIcEENS_9allocatorIcEEEEPvEEEENS_25__bucket_list_deallocatorINS6_ISD_EEEEEC1IDnSH_EEOT_OT0_
__ZNSt3__117__compressed_pairIPPNS_16__hash_node_baseIPNS_11__hash_nodeINS_12basic_stringIcNS_11char_traitsIcEENS_9allocatorIcEEEEPvEEEENS_25__bucket_list_deallocatorINS6_ISD_EEEEEC2IDnSH_EEOT_OT0_
__ZNSt3__122__compressed_pair_elemIPPNS_16__hash_node_baseIPNS_11__hash_nodeINS_12basic_stringIcNS_11char_traitsIcEENS_9allocatorIcEEEEPvEEEELi0ELb0EEC2IDnvEEOT_
__ZNSt3__1L7forwardINS_25__bucket_list_deallocatorINS_9allocatorIPNS_16__hash_node_baseIPNS_11__hash_nodeINS_12basic_stringIcNS_11char_traitsIcEENS2_IcEEEEPvEEEEEEEEEEOT_RNS_16remove_referenceISH_E4typeE
__ZNSt3__122__compressed_pair_elemINS_25__bucket_list_deallocatorINS_9allocatorIPNS_16__hash_node_baseIPNS_11__hash_nodeINS_12basic_stringIcNS_11char_traitsIcEENS2_IcEEEEPvEEEEEEEELi1ELb0EEC2ISG_vEEOT_
__ZNSt3__125__bucket_list_deallocatorINS_9allocatorIPNS_16__hash_node_baseIPNS_11__hash_nodeINS_12basic_stringIcNS_11char_traitsIcEENS1_IcEEEEPvEEEEEEEC1EOSF_
__ZNSt3__125__bucket_list_deallocatorINS_9allocatorIPNS_16__hash_node_baseIPNS_11__hash_nodeINS_12basic_stringIcNS_11char_traitsIcEENS1_IcEEEEPvEEEEEEEC2EOSF_
__ZNSt3__1L4moveIRNS_17__compressed_pairImNS_9allocatorIPNS_16__hash_node_baseIPNS_11__hash_nodeINS_12basic_stringIcNS_11char_traitsIcEENS2_IcEEEEPvEEEEEEEEEEONS_16remove_referenceIT_E4typeEOSJ_
__ZNKSt3__112__hash_tableINS_12basic_stringIcNS_11char_traitsIcEENS_9allocatorIcEEEENS_4hashIS6_EENS_8equal_toIS6_EENS4_IS6_EEE12__node_allocEv
__ZNKSt3__117__compressed_pairINS_16__hash_node_baseIPNS_11__hash_nodeINS_12basic_stringIcNS_11char_traitsIcEENS_9allocatorIcEEEEPvEEEENS6_ISA_EEE6secondEv
__ZNKSt3__122__compressed_pair_elemINS_9allocatorINS_11__hash_nodeINS_12basic_stringIcNS_11char_traitsIcEENS1_IcEEEEPvEEEELi1ELb1EE5__getEv
__ZNSt3__116allocator_traitsINS_9allocatorINS_11__hash_nodeINS_12basic_stringIcNS_11char_traitsIcEENS1_IcEEEEPvEEEEE37select_on_container_copy_constructionERKSA_
__ZNSt3__116allocator_traitsINS_9allocatorINS_11__hash_nodeINS_12basic_stringIcNS_11char_traitsIcEENS1_IcEEEEPvEEEEE39__select_on_container_copy_constructionENS_17integral_constantIbLb0EEERKSA_
__ZNSt3__117__compressed_pairINS_16__hash_node_baseIPNS_11__hash_nodeINS_12basic_stringIcNS_11char_traitsIcEENS_9allocatorIcEEEEPvEEEENS6_ISA_EEEC1INS_18__default_init_tagESD_EEOT_OT0_
__ZNSt3__117__compressed_pairINS_16__hash_node_baseIPNS_11__hash_nodeINS_12basic_stringIcNS_11char_traitsIcEENS_9allocatorIcEEEEPvEEEENS6_ISA_EEEC2INS_18__default_init_tagESD_EEOT_OT0_
__ZNSt3__122__compressed_pair_elemINS_16__hash_node_baseIPNS_11__hash_nodeINS_12basic_stringIcNS_11char_traitsIcEENS_9allocatorIcEEEEPvEEEELi0ELb0EEC2ENS_18__default_init_tagE
__ZNSt3__1L7forwardINS_9allocatorINS_11__hash_nodeINS_12basic_stringIcNS_11char_traitsIcEENS1_IcEEEEPvEEEEEEOT_RNS_16remove_referenceISB_E4typeE
__ZNSt3__122__compressed_pair_elemINS_9allocatorINS_11__hash_nodeINS_12basic_stringIcNS_11char_traitsIcEENS1_IcEEEEPvEEEELi1ELb1EEC2ISA_vEEOT_
__ZNKSt3__112__hash_tableINS_12basic_stringIcNS_11char_traitsIcEENS_9allocatorIcEEEENS_4hashIS6_EENS_8equal_toIS6_EENS4_IS6_EEE13hash_functionEv
__ZNKSt3__117__compressed_pairImNS_4hashINS_12basic_stringIcNS_11char_traitsIcEENS_9allocatorIcEEEEEEE6secondEv
__ZNKSt3__122__compressed_pair_elemINS_4hashINS_12basic_stringIcNS_11char_traitsIcEENS_9allocatorIcEEEEEELi1ELb1EE5__getEv
__ZNSt3__117__compressed_pairImNS_4hashINS_12basic_stringIcNS_11char_traitsIcEENS_9allocatorIcEEEEEEEC1IiRKS8_EEOT_OT0_
__ZNSt3__117__compressed_pairImNS_4hashINS_12basic_stringIcNS_11char_traitsIcEENS_9allocatorIcEEEEEEEC2IiRKS8_EEOT_OT0_
__ZNSt3__1L7forwardIRKNS_4hashINS_12basic_stringIcNS_11char_traitsIcEENS_9allocatorIcEEEEEEEEOT_RNS_16remove_referenceISB_E4typeE
__ZNSt3__122__compressed_pair_elemINS_4hashINS_12basic_stringIcNS_11char_traitsIcEENS_9allocatorIcEEEEEELi1ELb1EEC2IRKS8_vEEOT_
__ZNKSt3__113unordered_setINS_12basic_stringIcNS_11char_traitsIcEENS_9allocatorIcEEEENS_4hashIS6_EENS_8equal_toIS6_EENS4_IS6_EEE12bucket_countEv
__ZNKSt3__113unordered_setINS_12basic_stringIcNS_11char_traitsIcEENS_9allocatorIcEEEENS_4hashIS6_EENS_8equal_toIS6_EENS4_IS6_EEE5beginEv
__ZNKSt3__112__hash_tableINS_12basic_stringIcNS_11char_traitsIcEENS_9allocatorIcEEEENS_4hashIS6_EENS_8equal_toIS6_EENS4_IS6_EEE5beginEv
__ZNKSt3__117__compressed_pairINS_16__hash_node_baseIPNS_11__hash_nodeINS_12basic_stringIcNS_11char_traitsIcEENS_9allocatorIcEEEEPvEEEENS6_ISA_EEE5firstEv
__ZNKSt3__122__compressed_pair_elemINS_16__hash_node_baseIPNS_11__hash_nodeINS_12basic_stringIcNS_11char_traitsIcEENS_9allocatorIcEEEEPvEEEELi0ELb0EE5__getEv
__ZNSt3__121__hash_const_iteratorIPNS_11__hash_nodeINS_12basic_stringIcNS_11char_traitsIcEENS_9allocatorIcEEEEPvEEEC1EPNS_16__hash_node_baseISA_EE
__ZNSt3__121__hash_const_iteratorIPNS_11__hash_nodeINS_12basic_stringIcNS_11char_traitsIcEENS_9allocatorIcEEEEPvEEEC2EPNS_16__hash_node_baseISA_EE
__ZNKSt3__113unordered_setINS_12basic_stringIcNS_11char_traitsIcEENS_9allocatorIcEEEENS_4hashIS6_EENS_8equal_toIS6_EENS4_IS6_EEE3endEv
__ZNKSt3__112__hash_tableINS_12basic_stringIcNS_11char_traitsIcEENS_9allocatorIcEEEENS_4hashIS6_EENS_8equal_toIS6_EENS4_IS6_EEE3endEv
__ZNSt3__113unordered_setINS_12basic_stringIcNS_11char_traitsIcEENS_9allocatorIcEEEENS_4hashIS6_EENS_8equal_toIS6_EENS4_IS6_EEE6insertINS_21__hash_const_iteratorIPNS_11__hash_nodeIS6_PvEEEEEEvT_SK_
__ZNSt3__1neERKNS_21__hash_const_iteratorIPNS_11__hash_nodeINS_12basic_stringIcNS_11char_traitsIcEENS_9allocatorIcEEEEPvEEEESD_
__ZNSt3__1eqERKNS_21__hash_const_iteratorIPNS_11__hash_nodeINS_12basic_stringIcNS_11char_traitsIcEENS_9allocatorIcEEEEPvEEEESD_
__ZNKSt3__121__hash_const_iteratorIPNS_11__hash_nodeINS_12basic_stringIcNS_11char_traitsIcEENS_9allocatorIcEEEEPvEEEdeEv
__ZNSt3__121__hash_const_iteratorIPNS_11__hash_nodeINS_12basic_stringIcNS_11char_traitsIcEENS_9allocatorIcEEEEPvEEEppEv
__ZNSt3__113unordered_setINS_12basic_stringIcNS_11char_traitsIcEENS_9allocatorIcEEEENS_4hashIS6_EENS_8equal_toIS6_EENS4_IS6_EEEC1Ev
__ZNSt3__113unordered_setINS_12basic_stringIcNS_11char_traitsIcEENS_9allocatorIcEEEENS_4hashIS6_EENS_8equal_toIS6_EENS4_IS6_EEEC2Ev
__ZNSt3__14pairIKN4lynx4tasm13CSSPropertyIDENS_13unordered_setINS_12basic_stringIcNS_11char_traitsIcEENS_9allocatorIcEEEENS_4hashISB_EENS_8equal_toISB_EENS9_ISB_EEEEEC1IS3_SH_Lb0EEEOT_OT0_
__ZNSt3__14pairIKN4lynx4tasm13CSSPropertyIDENS_13unordered_setINS_12basic_stringIcNS_11char_traitsIcEENS_9allocatorIcEEEENS_4hashISB_EENS_8equal_toISB_EENS9_ISB_EEEEEC2IS3_SH_Lb0EEEOT_OT0_
__ZNSt3__1L7forwardINS_13unordered_setINS_12basic_stringIcNS_11char_traitsIcEENS_9allocatorIcEEEENS_4hashIS7_EENS_8equal_toIS7_EENS5_IS7_EEEEEEOT_RNS_16remove_referenceISE_E4typeE
__ZNSt3__113unordered_setINS_12basic_stringIcNS_11char_traitsIcEENS_9allocatorIcEEEENS_4hashIS6_EENS_8equal_toIS6_EENS4_IS6_EEEC1EOSC_
__ZNSt3__113unordered_setINS_12basic_stringIcNS_11char_traitsIcEENS_9allocatorIcEEEENS_4hashIS6_EENS_8equal_toIS6_EENS4_IS6_EEEC2EOSC_
__ZNSt3__1L4moveIRNS_12__hash_tableINS_12basic_stringIcNS_11char_traitsIcEENS_9allocatorIcEEEENS_4hashIS7_EENS_8equal_toIS7_EENS5_IS7_EEEEEEONS_16remove_referenceIT_E4typeEOSG_
__ZNSt3__112__hash_tableINS_12basic_stringIcNS_11char_traitsIcEENS_9allocatorIcEEEENS_4hashIS6_EENS_8equal_toIS6_EENS4_IS6_EEEC1EOSC_
__ZNSt3__112__hash_tableINS_12basic_stringIcNS_11char_traitsIcEENS_9allocatorIcEEEENS_4hashIS6_EENS_8equal_toIS6_EENS4_IS6_EEEC2EOSC_
__ZNSt3__1L4moveIRNS_10unique_ptrIA_PNS_16__hash_node_baseIPNS_11__hash_nodeINS_12basic_stringIcNS_11char_traitsIcEENS_9allocatorIcEEEEPvEEEENS_25__bucket_list_deallocatorINS7_ISE_EEEEEEEEONS_16remove_referenceIT_E4typeEOSM_
__ZNSt3__110unique_ptrIA_PNS_16__hash_node_baseIPNS_11__hash_nodeINS_12basic_stringIcNS_11char_traitsIcEENS_9allocatorIcEEEEPvEEEENS_25__bucket_list_deallocatorINS6_ISD_EEEEEC1EOSI_
__ZNSt3__110unique_ptrIA_PNS_16__hash_node_baseIPNS_11__hash_nodeINS_12basic_stringIcNS_11char_traitsIcEENS_9allocatorIcEEEEPvEEEENS_25__bucket_list_deallocatorINS6_ISD_EEEEEC2EOSI_
__ZNSt3__110unique_ptrIA_PNS_16__hash_node_baseIPNS_11__hash_nodeINS_12basic_stringIcNS_11char_traitsIcEENS_9allocatorIcEEEEPvEEEENS_25__bucket_list_deallocatorINS6_ISD_EEEEE7releaseEv
__ZNSt3__117__compressed_pairIPPNS_16__hash_node_baseIPNS_11__hash_nodeINS_12basic_stringIcNS_11char_traitsIcEENS_9allocatorIcEEEEPvEEEENS_25__bucket_list_deallocatorINS6_ISD_EEEEEC1ISE_SH_EEOT_OT0_
__ZNSt3__117__compressed_pairIPPNS_16__hash_node_baseIPNS_11__hash_nodeINS_12basic_stringIcNS_11char_traitsIcEENS_9allocatorIcEEEEPvEEEENS_25__bucket_list_deallocatorINS6_ISD_EEEEEC2ISE_SH_EEOT_OT0_
__ZNSt3__1L4moveIRNS_17__compressed_pairINS_16__hash_node_baseIPNS_11__hash_nodeINS_12basic_stringIcNS_11char_traitsIcEENS_9allocatorIcEEEEPvEEEENS7_ISB_EEEEEEONS_16remove_referenceIT_E4typeEOSI_
__ZNSt3__1L4moveIRNS_17__compressed_pairImNS_4hashINS_12basic_stringIcNS_11char_traitsIcEENS_9allocatorIcEEEEEEEEEEONS_16remove_referenceIT_E4typeEOSD_
__ZNSt3__1L4moveIRNS_17__compressed_pairIfNS_8equal_toINS_12basic_stringIcNS_11char_traitsIcEENS_9allocatorIcEEEEEEEEEEONS_16remove_referenceIT_E4typeEOSD_
__ZNSt3__113unordered_mapIN4lynx4tasm13CSSPropertyIDENS_13unordered_setINS_12basic_stringIcNS_11char_traitsIcEENS_9allocatorIcEEEENS_4hashISA_EENS_8equal_toISA_EENS8_ISA_EEEENSB_IS3_EENSD_IS3_EENS8_INS_4pairIKS3_SG_EEEEEC1ESt16initializer_listISL_E
__ZNSt3__113unordered_mapIN4lynx4tasm13CSSPropertyIDENS_13unordered_setINS_12basic_stringIcNS_11char_traitsIcEENS_9allocatorIcEEEENS_4hashISA_EENS_8equal_toISA_EENS8_ISA_EEEENSB_IS3_EENSD_IS3_EENS8_INS_4pairIKS3_SG_EEEEEC2ESt16initializer_listISL_E
__ZNSt3__112__hash_tableINS_17__hash_value_typeIN4lynx4tasm13CSSPropertyIDENS_13unordered_setINS_12basic_stringIcNS_11char_traitsIcEENS_9allocatorIcEEEENS_4hashISB_EENS_8equal_toISB_EENS9_ISB_EEEEEENS_22__unordered_map_hasherIS4_SI_NSC_IS4_EELb1EEENS_21__unordered_map_equalIS4_SI_NSE_IS4_EELb1EEENS9_ISI_EEEC1Ev
__ZNSt3__112__hash_tableINS_17__hash_value_typeIN4lynx4tasm13CSSPropertyIDENS_13unordered_setINS_12basic_stringIcNS_11char_traitsIcEENS_9allocatorIcEEEENS_4hashISB_EENS_8equal_toISB_EENS9_ISB_EEEEEENS_22__unordered_map_hasherIS4_SI_NSC_IS4_EELb1EEENS_21__unordered_map_equalIS4_SI_NSE_IS4_EELb1EEENS9_ISI_EEEC2Ev
__ZNSt3__110unique_ptrIA_PNS_16__hash_node_baseIPNS_11__hash_nodeINS_17__hash_value_typeIN4lynx4tasm13CSSPropertyIDENS_13unordered_setINS_12basic_stringIcNS_11char_traitsIcEENS_9allocatorIcEEEENS_4hashISD_EENS_8equal_toISD_EENSB_ISD_EEEEEEPvEEEENS_25__bucket_list_deallocatorINSB_ISP_EEEEEC1ILb1EvEEv
__ZNSt3__110unique_ptrIA_PNS_16__hash_node_baseIPNS_11__hash_nodeINS_17__hash_value_typeIN4lynx4tasm13CSSPropertyIDENS_13unordered_setINS_12basic_stringIcNS_11char_traitsIcEENS_9allocatorIcEEEENS_4hashISD_EENS_8equal_toISD_EENSB_ISD_EEEEEEPvEEEENS_25__bucket_list_deallocatorINSB_ISP_EEEEEC2ILb1EvEEv
__ZNSt3__117__compressed_pairIPPNS_16__hash_node_baseIPNS_11__hash_nodeINS_17__hash_value_typeIN4lynx4tasm13CSSPropertyIDENS_13unordered_setINS_12basic_stringIcNS_11char_traitsIcEENS_9allocatorIcEEEENS_4hashISD_EENS_8equal_toISD_EENSB_ISD_EEEEEEPvEEEENS_25__bucket_list_deallocatorINSB_ISP_EEEEEC1ISQ_NS_18__default_init_tagEEEOT_OT0_
__ZNSt3__117__compressed_pairIPPNS_16__hash_node_baseIPNS_11__hash_nodeINS_17__hash_value_typeIN4lynx4tasm13CSSPropertyIDENS_13unordered_setINS_12basic_stringIcNS_11char_traitsIcEENS_9allocatorIcEEEENS_4hashISD_EENS_8equal_toISD_EENSB_ISD_EEEEEEPvEEEENS_25__bucket_list_deallocatorINSB_ISP_EEEEEC2ISQ_NS_18__default_init_tagEEEOT_OT0_
__ZNSt3__1L7forwardIPPNS_16__hash_node_baseIPNS_11__hash_nodeINS_17__hash_value_typeIN4lynx4tasm13CSSPropertyIDENS_13unordered_setINS_12basic_stringIcNS_11char_traitsIcEENS_9allocatorIcEEEENS_4hashISD_EENS_8equal_toISD_EENSB_ISD_EEEEEEPvEEEEEEOT_RNS_16remove_referenceISR_E4typeE
__ZNSt3__122__compressed_pair_elemIPPNS_16__hash_node_baseIPNS_11__hash_nodeINS_17__hash_value_typeIN4lynx4tasm13CSSPropertyIDENS_13unordered_setINS_12basic_stringIcNS_11char_traitsIcEENS_9allocatorIcEEEENS_4hashISD_EENS_8equal_toISD_EENSB_ISD_EEEEEEPvEEEELi0ELb0EEC2ISQ_vEEOT_
__ZNSt3__122__compressed_pair_elemINS_25__bucket_list_deallocatorINS_9allocatorIPNS_16__hash_node_baseIPNS_11__hash_nodeINS_17__hash_value_typeIN4lynx4tasm13CSSPropertyIDENS_13unordered_setINS_12basic_stringIcNS_11char_traitsIcEENS2_IcEEEENS_4hashISE_EENS_8equal_toISE_EENS2_ISE_EEEEEEPvEEEEEEEELi1ELb0EEC2ENS_18__default_init_tagE
__ZNSt3__125__bucket_list_deallocatorINS_9allocatorIPNS_16__hash_node_baseIPNS_11__hash_nodeINS_17__hash_value_typeIN4lynx4tasm13CSSPropertyIDENS_13unordered_setINS_12basic_stringIcNS_11char_traitsIcEENS1_IcEEEENS_4hashISD_EENS_8equal_toISD_EENS1_ISD_EEEEEEPvEEEEEEEC1Ev
__ZNSt3__125__bucket_list_deallocatorINS_9allocatorIPNS_16__hash_node_baseIPNS_11__hash_nodeINS_17__hash_value_typeIN4lynx4tasm13CSSPropertyIDENS_13unordered_setINS_12basic_stringIcNS_11char_traitsIcEENS1_IcEEEENS_4hashISD_EENS_8equal_toISD_EENS1_ISD_EEEEEEPvEEEEEEEC2Ev
__ZNSt3__117__compressed_pairImNS_9allocatorIPNS_16__hash_node_baseIPNS_11__hash_nodeINS_17__hash_value_typeIN4lynx4tasm13CSSPropertyIDENS_13unordered_setINS_12basic_stringIcNS_11char_traitsIcEENS1_IcEEEENS_4hashISD_EENS_8equal_toISD_EENS1_ISD_EEEEEEPvEEEEEEEC1IiNS_18__default_init_tagEEEOT_OT0_
__ZNSt3__117__compressed_pairImNS_9allocatorIPNS_16__hash_node_baseIPNS_11__hash_nodeINS_17__hash_value_typeIN4lynx4tasm13CSSPropertyIDENS_13unordered_setINS_12basic_stringIcNS_11char_traitsIcEENS1_IcEEEENS_4hashISD_EENS_8equal_toISD_EENS1_ISD_EEEEEEPvEEEEEEEC2IiNS_18__default_init_tagEEEOT_OT0_
__ZNSt3__122__compressed_pair_elemINS_9allocatorIPNS_16__hash_node_baseIPNS_11__hash_nodeINS_17__hash_value_typeIN4lynx4tasm13CSSPropertyIDENS_13unordered_setINS_12basic_stringIcNS_11char_traitsIcEENS1_IcEEEENS_4hashISD_EENS_8equal_toISD_EENS1_ISD_EEEEEEPvEEEEEELi1ELb1EEC2ENS_18__default_init_tagE
__ZNSt3__19allocatorIPNS_16__hash_node_baseIPNS_11__hash_nodeINS_17__hash_value_typeIN4lynx4tasm13CSSPropertyIDENS_13unordered_setINS_12basic_stringIcNS_11char_traitsIcEENS0_IcEEEENS_4hashISC_EENS_8equal_toISC_EENS0_ISC_EEEEEEPvEEEEEC2Ev
__ZNSt3__117__compressed_pairINS_16__hash_node_baseIPNS_11__hash_nodeINS_17__hash_value_typeIN4lynx4tasm13CSSPropertyIDENS_13unordered_setINS_12basic_stringIcNS_11char_traitsIcEENS_9allocatorIcEEEENS_4hashISD_EENS_8equal_toISD_EENSB_ISD_EEEEEEPvEEEENSB_ISM_EEEC1ILb1EvEEv
__ZNSt3__117__compressed_pairINS_16__hash_node_baseIPNS_11__hash_nodeINS_17__hash_value_typeIN4lynx4tasm13CSSPropertyIDENS_13unordered_setINS_12basic_stringIcNS_11char_traitsIcEENS_9allocatorIcEEEENS_4hashISD_EENS_8equal_toISD_EENSB_ISD_EEEEEEPvEEEENSB_ISM_EEEC2ILb1EvEEv
__ZNSt3__122__compressed_pair_elemINS_16__hash_node_baseIPNS_11__hash_nodeINS_17__hash_value_typeIN4lynx4tasm13CSSPropertyIDENS_13unordered_setINS_12basic_stringIcNS_11char_traitsIcEENS_9allocatorIcEEEENS_4hashISD_EENS_8equal_toISD_EENSB_ISD_EEEEEEPvEEEELi0ELb0EEC2ENS_16__value_init_tagE
__ZNSt3__116__hash_node_baseIPNS_11__hash_nodeINS_17__hash_value_typeIN4lynx4tasm13CSSPropertyIDENS_13unordered_setINS_12basic_stringIcNS_11char_traitsIcEENS_9allocatorIcEEEENS_4hashISC_EENS_8equal_toISC_EENSA_ISC_EEEEEEPvEEEC1Ev
__ZNSt3__116__hash_node_baseIPNS_11__hash_nodeINS_17__hash_value_typeIN4lynx4tasm13CSSPropertyIDENS_13unordered_setINS_12basic_stringIcNS_11char_traitsIcEENS_9allocatorIcEEEENS_4hashISC_EENS_8equal_toISC_EENSA_ISC_EEEEEEPvEEEC2Ev
__ZNSt3__122__compressed_pair_elemINS_9allocatorINS_11__hash_nodeINS_17__hash_value_typeIN4lynx4tasm13CSSPropertyIDENS_13unordered_setINS_12basic_stringIcNS_11char_traitsIcEENS1_IcEEEENS_4hashISC_EENS_8equal_toISC_EENS1_ISC_EEEEEEPvEEEELi1ELb1EEC2ENS_16__value_init_tagE
__ZNSt3__19allocatorINS_11__hash_nodeINS_17__hash_value_typeIN4lynx4tasm13CSSPropertyIDENS_13unordered_setINS_12basic_stringIcNS_11char_traitsIcEENS0_IcEEEENS_4hashISB_EENS_8equal_toISB_EENS0_ISB_EEEEEEPvEEEC2Ev
__ZNSt3__117__compressed_pairImNS_22__unordered_map_hasherIN4lynx4tasm13CSSPropertyIDENS_17__hash_value_typeIS4_NS_13unordered_setINS_12basic_stringIcNS_11char_traitsIcEENS_9allocatorIcEEEENS_4hashISC_EENS_8equal_toISC_EENSA_ISC_EEEEEENSD_IS4_EELb1EEEEC1IiNS_18__default_init_tagEEEOT_OT0_
__ZNSt3__117__compressed_pairImNS_22__unordered_map_hasherIN4lynx4tasm13CSSPropertyIDENS_17__hash_value_typeIS4_NS_13unordered_setINS_12basic_stringIcNS_11char_traitsIcEENS_9allocatorIcEEEENS_4hashISC_EENS_8equal_toISC_EENSA_ISC_EEEEEENSD_IS4_EELb1EEEEC2IiNS_18__default_init_tagEEEOT_OT0_
__ZNSt3__122__compressed_pair_elemINS_22__unordered_map_hasherIN4lynx4tasm13CSSPropertyIDENS_17__hash_value_typeIS4_NS_13unordered_setINS_12basic_stringIcNS_11char_traitsIcEENS_9allocatorIcEEEENS_4hashISC_EENS_8equal_toISC_EENSA_ISC_EEEEEENSD_IS4_EELb1EEELi1ELb1EEC2ENS_18__default_init_tagE
__ZNSt3__122__unordered_map_hasherIN4lynx4tasm13CSSPropertyIDENS_17__hash_value_typeIS3_NS_13unordered_setINS_12basic_stringIcNS_11char_traitsIcEENS_9allocatorIcEEEENS_4hashISB_EENS_8equal_toISB_EENS9_ISB_EEEEEENSC_IS3_EELb1EEC2Ev
__ZNSt3__117__compressed_pairIfNS_21__unordered_map_equalIN4lynx4tasm13CSSPropertyIDENS_17__hash_value_typeIS4_NS_13unordered_setINS_12basic_stringIcNS_11char_traitsIcEENS_9allocatorIcEEEENS_4hashISC_EENS_8equal_toISC_EENSA_ISC_EEEEEENSF_IS4_EELb1EEEEC1IfNS_18__default_init_tagEEEOT_OT0_
__ZNSt3__117__compressed_pairIfNS_21__unordered_map_equalIN4lynx4tasm13CSSPropertyIDENS_17__hash_value_typeIS4_NS_13unordered_setINS_12basic_stringIcNS_11char_traitsIcEENS_9allocatorIcEEEENS_4hashISC_EENS_8equal_toISC_EENSA_ISC_EEEEEENSF_IS4_EELb1EEEEC2IfNS_18__default_init_tagEEEOT_OT0_
__ZNSt3__122__compressed_pair_elemINS_21__unordered_map_equalIN4lynx4tasm13CSSPropertyIDENS_17__hash_value_typeIS4_NS_13unordered_setINS_12basic_stringIcNS_11char_traitsIcEENS_9allocatorIcEEEENS_4hashISC_EENS_8equal_toISC_EENSA_ISC_EEEEEENSF_IS4_EELb1EEELi1ELb1EEC2ENS_18__default_init_tagE
__ZNSt3__121__unordered_map_equalIN4lynx4tasm13CSSPropertyIDENS_17__hash_value_typeIS3_NS_13unordered_setINS_12basic_stringIcNS_11char_traitsIcEENS_9allocatorIcEEEENS_4hashISB_EENS_8equal_toISB_EENS9_ISB_EEEEEENSE_IS3_EELb1EEC2Ev
__ZNKSt16initializer_listINSt3__14pairIKN4lynx4tasm13CSSPropertyIDENS0_13unordered_setINS0_12basic_stringIcNS0_11char_traitsIcEENS0_9allocatorIcEEEENS0_4hashISC_EENS0_8equal_toISC_EENSA_ISC_EEEEEEE5beginEv
__ZNKSt16initializer_listINSt3__14pairIKN4lynx4tasm13CSSPropertyIDENS0_13unordered_setINS0_12basic_stringIcNS0_11char_traitsIcEENS0_9allocatorIcEEEENS0_4hashISC_EENS0_8equal_toISC_EENSA_ISC_EEEEEEE3endEv
__ZNSt3__113unordered_mapIN4lynx4tasm13CSSPropertyIDENS_13unordered_setINS_12basic_stringIcNS_11char_traitsIcEENS_9allocatorIcEEEENS_4hashISA_EENS_8equal_toISA_EENS8_ISA_EEEENSB_IS3_EENSD_IS3_EENS8_INS_4pairIKS3_SG_EEEEE6insertIPKSL_EEvT_SR_
__ZNSt3__112__hash_tableINS_17__hash_value_typeIN4lynx4tasm13CSSPropertyIDENS_13unordered_setINS_12basic_stringIcNS_11char_traitsIcEENS_9allocatorIcEEEENS_4hashISB_EENS_8equal_toISB_EENS9_ISB_EEEEEENS_22__unordered_map_hasherIS4_SI_NSC_IS4_EELb1EEENS_21__unordered_map_equalIS4_SI_NSE_IS4_EELb1EEENS9_ISI_EEE15__insert_uniqueERKNS_4pairIKS4_SH_EE
__ZNSt3__122__hash_key_value_typesINS_17__hash_value_typeIN4lynx4tasm13CSSPropertyIDENS_13unordered_setINS_12basic_stringIcNS_11char_traitsIcEENS_9allocatorIcEEEENS_4hashISB_EENS_8equal_toISB_EENS9_ISB_EEEEEEE9__get_keyERKNS_4pairIKS4_SH_EE
__ZNSt3__112__hash_tableINS_17__hash_value_typeIN4lynx4tasm13CSSPropertyIDENS_13unordered_setINS_12basic_stringIcNS_11char_traitsIcEENS_9allocatorIcEEEENS_4hashISB_EENS_8equal_toISB_EENS9_ISB_EEEEEENS_22__unordered_map_hasherIS4_SI_NSC_IS4_EELb1EEENS_21__unordered_map_equalIS4_SI_NSE_IS4_EELb1EEENS9_ISI_EEE25__emplace_unique_key_argsIS4_JRKNS_4pairIKS4_SH_EEEEENSS_INS_15__hash_iteratorIPNS_11__hash_nodeISI_PvEEEEbEERKT_DpOT0_
__ZNSt3__112__hash_tableINS_17__hash_value_typeIN4lynx4tasm13CSSPropertyIDENS_13unordered_setINS_12basic_stringIcNS_11char_traitsIcEENS_9allocatorIcEEEENS_4hashISB_EENS_8equal_toISB_EENS9_ISB_EEEEEENS_22__unordered_map_hasherIS4_SI_NSC_IS4_EELb1EEENS_21__unordered_map_equalIS4_SI_NSE_IS4_EELb1EEENS9_ISI_EEE13hash_functionEv
__ZNSt3__117__compressed_pairImNS_22__unordered_map_hasherIN4lynx4tasm13CSSPropertyIDENS_17__hash_value_typeIS4_NS_13unordered_setINS_12basic_stringIcNS_11char_traitsIcEENS_9allocatorIcEEEENS_4hashISC_EENS_8equal_toISC_EENSA_ISC_EEEEEENSD_IS4_EELb1EEEE6secondEv
__ZNSt3__122__compressed_pair_elemINS_22__unordered_map_hasherIN4lynx4tasm13CSSPropertyIDENS_17__hash_value_typeIS4_NS_13unordered_setINS_12basic_stringIcNS_11char_traitsIcEENS_9allocatorIcEEEENS_4hashISC_EENS_8equal_toISC_EENSA_ISC_EEEEEENSD_IS4_EELb1EEELi1ELb1EE5__getEv
__ZNKSt3__122__unordered_map_hasherIN4lynx4tasm13CSSPropertyIDENS_17__hash_value_typeIS3_NS_13unordered_setINS_12basic_stringIcNS_11char_traitsIcEENS_9allocatorIcEEEENS_4hashISB_EENS_8equal_toISB_EENS9_ISB_EEEEEENSC_IS3_EELb1EEclERKS3_
__ZNKSt3__14hashIN4lynx4tasm13CSSPropertyIDEEclERKS3_
__ZNKSt3__112__hash_tableINS_17__hash_value_typeIN4lynx4tasm13CSSPropertyIDENS_13unordered_setINS_12basic_stringIcNS_11char_traitsIcEENS_9allocatorIcEEEENS_4hashISB_EENS_8equal_toISB_EENS9_ISB_EEEEEENS_22__unordered_map_hasherIS4_SI_NSC_IS4_EELb1EEENS_21__unordered_map_equalIS4_SI_NSE_IS4_EELb1EEENS9_ISI_EEE12bucket_countEv
__ZNKSt3__110unique_ptrIA_PNS_16__hash_node_baseIPNS_11__hash_nodeINS_17__hash_value_typeIN4lynx4tasm13CSSPropertyIDENS_13unordered_setINS_12basic_stringIcNS_11char_traitsIcEENS_9allocatorIcEEEENS_4hashISD_EENS_8equal_toISD_EENSB_ISD_EEEEEEPvEEEENS_25__bucket_list_deallocatorINSB_ISP_EEEEE11get_deleterEv
__ZNKSt3__117__compressed_pairIPPNS_16__hash_node_baseIPNS_11__hash_nodeINS_17__hash_value_typeIN4lynx4tasm13CSSPropertyIDENS_13unordered_setINS_12basic_stringIcNS_11char_traitsIcEENS_9allocatorIcEEEENS_4hashISD_EENS_8equal_toISD_EENSB_ISD_EEEEEEPvEEEENS_25__bucket_list_deallocatorINSB_ISP_EEEEE6secondEv
__ZNKSt3__122__compressed_pair_elemINS_25__bucket_list_deallocatorINS_9allocatorIPNS_16__hash_node_baseIPNS_11__hash_nodeINS_17__hash_value_typeIN4lynx4tasm13CSSPropertyIDENS_13unordered_setINS_12basic_stringIcNS_11char_traitsIcEENS2_IcEEEENS_4hashISE_EENS_8equal_toISE_EENS2_ISE_EEEEEEPvEEEEEEEELi1ELb0EE5__getEv
__ZNKSt3__125__bucket_list_deallocatorINS_9allocatorIPNS_16__hash_node_baseIPNS_11__hash_nodeINS_17__hash_value_typeIN4lynx4tasm13CSSPropertyIDENS_13unordered_setINS_12basic_stringIcNS_11char_traitsIcEENS1_IcEEEENS_4hashISD_EENS_8equal_toISD_EENS1_ISD_EEEEEEPvEEEEEEE4sizeEv
__ZNKSt3__117__compressed_pairImNS_9allocatorIPNS_16__hash_node_baseIPNS_11__hash_nodeINS_17__hash_value_typeIN4lynx4tasm13CSSPropertyIDENS_13unordered_setINS_12basic_stringIcNS_11char_traitsIcEENS1_IcEEEENS_4hashISD_EENS_8equal_toISD_EENS1_ISD_EEEEEEPvEEEEEEE5firstEv
__ZNSt3__1L7forwardIRKNS_4pairIKN4lynx4tasm13CSSPropertyIDENS_13unordered_setINS_12basic_stringIcNS_11char_traitsIcEENS_9allocatorIcEEEENS_4hashISC_EENS_8equal_toISC_EENSA_ISC_EEEEEEEEOT_RNS_16remove_referenceISM_E4typeE
__ZNSt3__112__hash_tableINS_17__hash_value_typeIN4lynx4tasm13CSSPropertyIDENS_13unordered_setINS_12basic_stringIcNS_11char_traitsIcEENS_9allocatorIcEEEENS_4hashISB_EENS_8equal_toISB_EENS9_ISB_EEEEEENS_22__unordered_map_hasherIS4_SI_NSC_IS4_EELb1EEENS_21__unordered_map_equalIS4_SI_NSE_IS4_EELb1EEENS9_ISI_EEE21__construct_node_hashIRKNS_4pairIKS4_SH_EEJEEENS_10unique_ptrINS_11__hash_nodeISI_PvEENS_22__hash_node_destructorINS9_IS10_EEEEEEmOT_DpOT0_
__ZNSt3__112__hash_tableINS_17__hash_value_typeIN4lynx4tasm13CSSPropertyIDENS_13unordered_setINS_12basic_stringIcNS_11char_traitsIcEENS_9allocatorIcEEEENS_4hashISB_EENS_8equal_toISB_EENS9_ISB_EEEEEENS_22__unordered_map_hasherIS4_SI_NSC_IS4_EELb1EEENS_21__unordered_map_equalIS4_SI_NSE_IS4_EELb1EEENS9_ISI_EEE12__node_allocEv
__ZNSt3__117__compressed_pairINS_16__hash_node_baseIPNS_11__hash_nodeINS_17__hash_value_typeIN4lynx4tasm13CSSPropertyIDENS_13unordered_setINS_12basic_stringIcNS_11char_traitsIcEENS_9allocatorIcEEEENS_4hashISD_EENS_8equal_toISD_EENSB_ISD_EEEEEEPvEEEENSB_ISM_EEE6secondEv
__ZNSt3__122__compressed_pair_elemINS_9allocatorINS_11__hash_nodeINS_17__hash_value_typeIN4lynx4tasm13CSSPropertyIDENS_13unordered_setINS_12basic_stringIcNS_11char_traitsIcEENS1_IcEEEENS_4hashISC_EENS_8equal_toISC_EENS1_ISC_EEEEEEPvEEEELi1ELb1EE5__getEv
__ZNSt3__116allocator_traitsINS_9allocatorINS_11__hash_nodeINS_17__hash_value_typeIN4lynx4tasm13CSSPropertyIDENS_13unordered_setINS_12basic_stringIcNS_11char_traitsIcEENS1_IcEEEENS_4hashISC_EENS_8equal_toISC_EENS1_ISC_EEEEEEPvEEEEE8allocateERSM_m
__ZNSt3__19allocatorINS_11__hash_nodeINS_17__hash_value_typeIN4lynx4tasm13CSSPropertyIDENS_13unordered_setINS_12basic_stringIcNS_11char_traitsIcEENS0_IcEEEENS_4hashISB_EENS_8equal_toISB_EENS0_ISB_EEEEEEPvEEE8allocateEmPKv
__ZNKSt3__19allocatorINS_11__hash_nodeINS_17__hash_value_typeIN4lynx4tasm13CSSPropertyIDENS_13unordered_setINS_12basic_stringIcNS_11char_traitsIcEENS0_IcEEEENS_4hashISB_EENS_8equal_toISB_EENS0_ISB_EEEEEEPvEEE8max_sizeEv
__ZNSt3__122__hash_node_destructorINS_9allocatorINS_11__hash_nodeINS_17__hash_value_typeIN4lynx4tasm13CSSPropertyIDENS_13unordered_setINS_12basic_stringIcNS_11char_traitsIcEENS1_IcEEEENS_4hashISC_EENS_8equal_toISC_EENS1_ISC_EEEEEEPvEEEEEC1ERSM_b
__ZNSt3__122__hash_node_destructorINS_9allocatorINS_11__hash_nodeINS_17__hash_value_typeIN4lynx4tasm13CSSPropertyIDENS_13unordered_setINS_12basic_stringIcNS_11char_traitsIcEENS1_IcEEEENS_4hashISC_EENS_8equal_toISC_EENS1_ISC_EEEEEEPvEEEEEC2ERSM_b
__ZNSt3__110unique_ptrINS_11__hash_nodeINS_17__hash_value_typeIN4lynx4tasm13CSSPropertyIDENS_13unordered_setINS_12basic_stringIcNS_11char_traitsIcEENS_9allocatorIcEEEENS_4hashISC_EENS_8equal_toISC_EENSA_ISC_EEEEEEPvEENS_22__hash_node_destructorINSA_ISL_EEEEEC1ILb1EvEEPSL_NS_16__dependent_typeINS_27__unique_ptr_deleter_sfinaeISO_EEXT_EE20__good_rval_ref_typeE
__ZNSt3__110unique_ptrINS_11__hash_nodeINS_17__hash_value_typeIN4lynx4tasm13CSSPropertyIDENS_13unordered_setINS_12basic_stringIcNS_11char_traitsIcEENS_9allocatorIcEEEENS_4hashISC_EENS_8equal_toISC_EENSA_ISC_EEEEEEPvEENS_22__hash_node_destructorINSA_ISL_EEEEEC2ILb1EvEEPSL_NS_16__dependent_typeINS_27__unique_ptr_deleter_sfinaeISO_EEXT_EE20__good_rval_ref_typeE
__ZNSt3__1L4moveIRNS_22__hash_node_destructorINS_9allocatorINS_11__hash_nodeINS_17__hash_value_typeIN4lynx4tasm13CSSPropertyIDENS_13unordered_setINS_12basic_stringIcNS_11char_traitsIcEENS2_IcEEEENS_4hashISD_EENS_8equal_toISD_EENS2_ISD_EEEEEEPvEEEEEEEEONS_16remove_referenceIT_E4typeEOSR_
__ZNSt3__117__compressed_pairIPNS_11__hash_nodeINS_17__hash_value_typeIN4lynx4tasm13CSSPropertyIDENS_13unordered_setINS_12basic_stringIcNS_11char_traitsIcEENS_9allocatorIcEEEENS_4hashISC_EENS_8equal_toISC_EENSA_ISC_EEEEEEPvEENS_22__hash_node_destructorINSA_ISL_EEEEEC1IRSM_SP_EEOT_OT0_
__ZNSt3__117__compressed_pairIPNS_11__hash_nodeINS_17__hash_value_typeIN4lynx4tasm13CSSPropertyIDENS_13unordered_setINS_12basic_stringIcNS_11char_traitsIcEENS_9allocatorIcEEEENS_4hashISC_EENS_8equal_toISC_EENSA_ISC_EEEEEEPvEENS_22__hash_node_destructorINSA_ISL_EEEEEC2IRSM_SP_EEOT_OT0_
__ZNSt3__1L7forwardIRPNS_11__hash_nodeINS_17__hash_value_typeIN4lynx4tasm13CSSPropertyIDENS_13unordered_setINS_12basic_stringIcNS_11char_traitsIcEENS_9allocatorIcEEEENS_4hashISC_EENS_8equal_toISC_EENSA_ISC_EEEEEEPvEEEEOT_RNS_16remove_referenceISO_E4typeE
__ZNSt3__122__compressed_pair_elemIPNS_11__hash_nodeINS_17__hash_value_typeIN4lynx4tasm13CSSPropertyIDENS_13unordered_setINS_12basic_stringIcNS_11char_traitsIcEENS_9allocatorIcEEEENS_4hashISC_EENS_8equal_toISC_EENSA_ISC_EEEEEEPvEELi0ELb0EEC2IRSM_vEEOT_
__ZNSt3__1L7forwardINS_22__hash_node_destructorINS_9allocatorINS_11__hash_nodeINS_17__hash_value_typeIN4lynx4tasm13CSSPropertyIDENS_13unordered_setINS_12basic_stringIcNS_11char_traitsIcEENS2_IcEEEENS_4hashISD_EENS_8equal_toISD_EENS2_ISD_EEEEEEPvEEEEEEEEOT_RNS_16remove_referenceISP_E4typeE
__ZNSt3__122__compressed_pair_elemINS_22__hash_node_destructorINS_9allocatorINS_11__hash_nodeINS_17__hash_value_typeIN4lynx4tasm13CSSPropertyIDENS_13unordered_setINS_12basic_stringIcNS_11char_traitsIcEENS2_IcEEEENS_4hashISD_EENS_8equal_toISD_EENS2_ISD_EEEEEEPvEEEEEELi1ELb0EEC2ISO_vEEOT_
__ZNKSt3__110unique_ptrINS_11__hash_nodeINS_17__hash_value_typeIN4lynx4tasm13CSSPropertyIDENS_13unordered_setINS_12basic_stringIcNS_11char_traitsIcEENS_9allocatorIcEEEENS_4hashISC_EENS_8equal_toISC_EENSA_ISC_EEEEEEPvEENS_22__hash_node_destructorINSA_ISL_EEEEEptEv
__ZNKSt3__117__compressed_pairIPNS_11__hash_nodeINS_17__hash_value_typeIN4lynx4tasm13CSSPropertyIDENS_13unordered_setINS_12basic_stringIcNS_11char_traitsIcEENS_9allocatorIcEEEENS_4hashISC_EENS_8equal_toISC_EENSA_ISC_EEEEEEPvEENS_22__hash_node_destructorINSA_ISL_EEEEE5firstEv
__ZNKSt3__122__compressed_pair_elemIPNS_11__hash_nodeINS_17__hash_value_typeIN4lynx4tasm13CSSPropertyIDENS_13unordered_setINS_12basic_stringIcNS_11char_traitsIcEENS_9allocatorIcEEEENS_4hashISC_EENS_8equal_toISC_EENSA_ISC_EEEEEEPvEELi0ELb0EE5__getEv
__ZNSt3__122__hash_key_value_typesINS_17__hash_value_typeIN4lynx4tasm13CSSPropertyIDENS_13unordered_setINS_12basic_stringIcNS_11char_traitsIcEENS_9allocatorIcEEEENS_4hashISB_EENS_8equal_toISB_EENS9_ISB_EEEEEEE9__get_ptrERSI_
__ZNSt3__117__hash_value_typeIN4lynx4tasm13CSSPropertyIDENS_13unordered_setINS_12basic_stringIcNS_11char_traitsIcEENS_9allocatorIcEEEENS_4hashISA_EENS_8equal_toISA_EENS8_ISA_EEEEE11__get_valueEv
__ZNSt3__1L9addressofINS_4pairIKN4lynx4tasm13CSSPropertyIDENS_13unordered_setINS_12basic_stringIcNS_11char_traitsIcEENS_9allocatorIcEEEENS_4hashISC_EENS_8equal_toISC_EENSA_ISC_EEEEEEEEPT_RSK_
__ZNSt3__116allocator_traitsINS_9allocatorINS_11__hash_nodeINS_17__hash_value_typeIN4lynx4tasm13CSSPropertyIDENS_13unordered_setINS_12basic_stringIcNS_11char_traitsIcEENS1_IcEEEENS_4hashISC_EENS_8equal_toISC_EENS1_ISC_EEEEEEPvEEEEE9constructINS_4pairIKS6_SI_EEJRKSR_EEEvRSM_PT_DpOT0_
__ZNSt3__116allocator_traitsINS_9allocatorINS_11__hash_nodeINS_17__hash_value_typeIN4lynx4tasm13CSSPropertyIDENS_13unordered_setINS_12basic_stringIcNS_11char_traitsIcEENS1_IcEEEENS_4hashISC_EENS_8equal_toISC_EENS1_ISC_EEEEEEPvEEEEE11__constructINS_4pairIKS6_SI_EEJRKSR_EEEvNS_17integral_constantIbLb1EEERSM_PT_DpOT0_
__ZNSt3__19allocatorINS_11__hash_nodeINS_17__hash_value_typeIN4lynx4tasm13CSSPropertyIDENS_13unordered_setINS_12basic_stringIcNS_11char_traitsIcEENS0_IcEEEENS_4hashISB_EENS_8equal_toISB_EENS0_ISB_EEEEEEPvEEE9constructINS_4pairIKS5_SH_EEJRKSP_EEEvPT_DpOT0_
__ZNSt3__14pairIKN4lynx4tasm13CSSPropertyIDENS_13unordered_setINS_12basic_stringIcNS_11char_traitsIcEENS_9allocatorIcEEEENS_4hashISB_EENS_8equal_toISB_EENS9_ISB_EEEEEC1ERKSI_
__ZNSt3__14pairIKN4lynx4tasm13CSSPropertyIDENS_13unordered_setINS_12basic_stringIcNS_11char_traitsIcEENS_9allocatorIcEEEENS_4hashISB_EENS_8equal_toISB_EENS9_ISB_EEEEEC2ERKSI_
__ZNSt3__110unique_ptrINS_11__hash_nodeINS_17__hash_value_typeIN4lynx4tasm13CSSPropertyIDENS_13unordered_setINS_12basic_stringIcNS_11char_traitsIcEENS_9allocatorIcEEEENS_4hashISC_EENS_8equal_toISC_EENSA_ISC_EEEEEEPvEENS_22__hash_node_destructorINSA_ISL_EEEEE11get_deleterEv
__ZNSt3__117__compressed_pairIPNS_11__hash_nodeINS_17__hash_value_typeIN4lynx4tasm13CSSPropertyIDENS_13unordered_setINS_12basic_stringIcNS_11char_traitsIcEENS_9allocatorIcEEEENS_4hashISC_EENS_8equal_toISC_EENSA_ISC_EEEEEEPvEENS_22__hash_node_destructorINSA_ISL_EEEEE6secondEv
__ZNSt3__122__compressed_pair_elemINS_22__hash_node_destructorINS_9allocatorINS_11__hash_nodeINS_17__hash_value_typeIN4lynx4tasm13CSSPropertyIDENS_13unordered_setINS_12basic_stringIcNS_11char_traitsIcEENS2_IcEEEENS_4hashISD_EENS_8equal_toISD_EENS2_ISD_EEEEEEPvEEEEEELi1ELb0EE5__getEv
__ZNSt3__112__hash_tableINS_17__hash_value_typeIN4lynx4tasm13CSSPropertyIDENS_13unordered_setINS_12basic_stringIcNS_11char_traitsIcEENS_9allocatorIcEEEENS_4hashISB_EENS_8equal_toISB_EENS9_ISB_EEEEEENS_22__unordered_map_hasherIS4_SI_NSC_IS4_EELb1EEENS_21__unordered_map_equalIS4_SI_NSE_IS4_EELb1EEENS9_ISI_EEE4sizeEv
__ZNSt3__117__compressed_pairImNS_22__unordered_map_hasherIN4lynx4tasm13CSSPropertyIDENS_17__hash_value_typeIS4_NS_13unordered_setINS_12basic_stringIcNS_11char_traitsIcEENS_9allocatorIcEEEENS_4hashISC_EENS_8equal_toISC_EENSA_ISC_EEEEEENSD_IS4_EELb1EEEE5firstEv
__ZNSt3__112__hash_tableINS_17__hash_value_typeIN4lynx4tasm13CSSPropertyIDENS_13unordered_setINS_12basic_stringIcNS_11char_traitsIcEENS_9allocatorIcEEEENS_4hashISB_EENS_8equal_toISB_EENS9_ISB_EEEEEENS_22__unordered_map_hasherIS4_SI_NSC_IS4_EELb1EEENS_21__unordered_map_equalIS4_SI_NSE_IS4_EELb1EEENS9_ISI_EEE15max_load_factorEv
__ZNSt3__117__compressed_pairIfNS_21__unordered_map_equalIN4lynx4tasm13CSSPropertyIDENS_17__hash_value_typeIS4_NS_13unordered_setINS_12basic_stringIcNS_11char_traitsIcEENS_9allocatorIcEEEENS_4hashISC_EENS_8equal_toISC_EENSA_ISC_EEEEEENSF_IS4_EELb1EEEE5firstEv
__ZNSt3__112__hash_tableINS_17__hash_value_typeIN4lynx4tasm13CSSPropertyIDENS_13unordered_setINS_12basic_stringIcNS_11char_traitsIcEENS_9allocatorIcEEEENS_4hashISB_EENS_8equal_toISB_EENS9_ISB_EEEEEENS_22__unordered_map_hasherIS4_SI_NSC_IS4_EELb1EEENS_21__unordered_map_equalIS4_SI_NSE_IS4_EELb1EEENS9_ISI_EEE6rehashEm
__ZNSt3__112__hash_tableINS_17__hash_value_typeIN4lynx4tasm13CSSPropertyIDENS_13unordered_setINS_12basic_stringIcNS_11char_traitsIcEENS_9allocatorIcEEEENS_4hashISB_EENS_8equal_toISB_EENS9_ISB_EEEEEENS_22__unordered_map_hasherIS4_SI_NSC_IS4_EELb1EEENS_21__unordered_map_equalIS4_SI_NSE_IS4_EELb1EEENS9_ISI_EEE8__rehashEm
__ZNSt3__110unique_ptrIA_PNS_16__hash_node_baseIPNS_11__hash_nodeINS_17__hash_value_typeIN4lynx4tasm13CSSPropertyIDENS_13unordered_setINS_12basic_stringIcNS_11char_traitsIcEENS_9allocatorIcEEEENS_4hashISD_EENS_8equal_toISD_EENSB_ISD_EEEEEEPvEEEENS_25__bucket_list_deallocatorINSB_ISP_EEEEE11get_deleterEv
__ZNSt3__117__compressed_pairIPPNS_16__hash_node_baseIPNS_11__hash_nodeINS_17__hash_value_typeIN4lynx4tasm13CSSPropertyIDENS_13unordered_setINS_12basic_stringIcNS_11char_traitsIcEENS_9allocatorIcEEEENS_4hashISD_EENS_8equal_toISD_EENSB_ISD_EEEEEEPvEEEENS_25__bucket_list_deallocatorINSB_ISP_EEEEE6secondEv
__ZNSt3__122__compressed_pair_elemINS_25__bucket_list_deallocatorINS_9allocatorIPNS_16__hash_node_baseIPNS_11__hash_nodeINS_17__hash_value_typeIN4lynx4tasm13CSSPropertyIDENS_13unordered_setINS_12basic_stringIcNS_11char_traitsIcEENS2_IcEEEENS_4hashISE_EENS_8equal_toISE_EENS2_ISE_EEEEEEPvEEEEEEEELi1ELb0EE5__getEv
__ZNSt3__125__bucket_list_deallocatorINS_9allocatorIPNS_16__hash_node_baseIPNS_11__hash_nodeINS_17__hash_value_typeIN4lynx4tasm13CSSPropertyIDENS_13unordered_setINS_12basic_stringIcNS_11char_traitsIcEENS1_IcEEEENS_4hashISD_EENS_8equal_toISD_EENS1_ISD_EEEEEEPvEEEEEEE7__allocEv
__ZNSt3__117__compressed_pairImNS_9allocatorIPNS_16__hash_node_baseIPNS_11__hash_nodeINS_17__hash_value_typeIN4lynx4tasm13CSSPropertyIDENS_13unordered_setINS_12basic_stringIcNS_11char_traitsIcEENS1_IcEEEENS_4hashISD_EENS_8equal_toISD_EENS1_ISD_EEEEEEPvEEEEEEE6secondEv
__ZNSt3__122__compressed_pair_elemINS_9allocatorIPNS_16__hash_node_baseIPNS_11__hash_nodeINS_17__hash_value_typeIN4lynx4tasm13CSSPropertyIDENS_13unordered_setINS_12basic_stringIcNS_11char_traitsIcEENS1_IcEEEENS_4hashISD_EENS_8equal_toISD_EENS1_ISD_EEEEEEPvEEEEEELi1ELb1EE5__getEv
__ZNSt3__116allocator_traitsINS_9allocatorIPNS_16__hash_node_baseIPNS_11__hash_nodeINS_17__hash_value_typeIN4lynx4tasm13CSSPropertyIDENS_13unordered_setINS_12basic_stringIcNS_11char_traitsIcEENS1_IcEEEENS_4hashISD_EENS_8equal_toISD_EENS1_ISD_EEEEEEPvEEEEEEE8allocateERSQ_m
__ZNSt3__19allocatorIPNS_16__hash_node_baseIPNS_11__hash_nodeINS_17__hash_value_typeIN4lynx4tasm13CSSPropertyIDENS_13unordered_setINS_12basic_stringIcNS_11char_traitsIcEENS0_IcEEEENS_4hashISC_EENS_8equal_toISC_EENS0_ISC_EEEEEEPvEEEEE8allocateEmPKv
__ZNKSt3__19allocatorIPNS_16__hash_node_baseIPNS_11__hash_nodeINS_17__hash_value_typeIN4lynx4tasm13CSSPropertyIDENS_13unordered_setINS_12basic_stringIcNS_11char_traitsIcEENS0_IcEEEENS_4hashISC_EENS_8equal_toISC_EENS0_ISC_EEEEEEPvEEEEE8max_sizeEv
__ZNSt3__110unique_ptrIA_PNS_16__hash_node_baseIPNS_11__hash_nodeINS_17__hash_value_typeIN4lynx4tasm13CSSPropertyIDENS_13unordered_setINS_12basic_stringIcNS_11char_traitsIcEENS_9allocatorIcEEEENS_4hashISD_EENS_8equal_toISD_EENSB_ISD_EEEEEEPvEEEENS_25__bucket_list_deallocatorINSB_ISP_EEEEE5resetIPSP_EENS_9enable_ifIXsr28_CheckArrayPointerConversionIT_EE5valueEvE4typeESY_
__ZNSt3__117__compressed_pairIPPNS_16__hash_node_baseIPNS_11__hash_nodeINS_17__hash_value_typeIN4lynx4tasm13CSSPropertyIDENS_13unordered_setINS_12basic_stringIcNS_11char_traitsIcEENS_9allocatorIcEEEENS_4hashISD_EENS_8equal_toISD_EENSB_ISD_EEEEEEPvEEEENS_25__bucket_list_deallocatorINSB_ISP_EEEEE5firstEv
__ZNSt3__122__compressed_pair_elemIPPNS_16__hash_node_baseIPNS_11__hash_nodeINS_17__hash_value_typeIN4lynx4tasm13CSSPropertyIDENS_13unordered_setINS_12basic_stringIcNS_11char_traitsIcEENS_9allocatorIcEEEENS_4hashISD_EENS_8equal_toISD_EENSB_ISD_EEEEEEPvEEEELi0ELb0EE5__getEv
__ZNSt3__125__bucket_list_deallocatorINS_9allocatorIPNS_16__hash_node_baseIPNS_11__hash_nodeINS_17__hash_value_typeIN4lynx4tasm13CSSPropertyIDENS_13unordered_setINS_12basic_stringIcNS_11char_traitsIcEENS1_IcEEEENS_4hashISD_EENS_8equal_toISD_EENS1_ISD_EEEEEEPvEEEEEEE4sizeEv
__ZNSt3__117__compressed_pairImNS_9allocatorIPNS_16__hash_node_baseIPNS_11__hash_nodeINS_17__hash_value_typeIN4lynx4tasm13CSSPropertyIDENS_13unordered_setINS_12basic_stringIcNS_11char_traitsIcEENS1_IcEEEENS_4hashISD_EENS_8equal_toISD_EENS1_ISD_EEEEEEPvEEEEEEE5firstEv
__ZNKSt3__110unique_ptrIA_PNS_16__hash_node_baseIPNS_11__hash_nodeINS_17__hash_value_typeIN4lynx4tasm13CSSPropertyIDENS_13unordered_setINS_12basic_stringIcNS_11char_traitsIcEENS_9allocatorIcEEEENS_4hashISD_EENS_8equal_toISD_EENSB_ISD_EEEEEEPvEEEENS_25__bucket_list_deallocatorINSB_ISP_EEEEEixEm
__ZNKSt3__117__compressed_pairIPPNS_16__hash_node_baseIPNS_11__hash_nodeINS_17__hash_value_typeIN4lynx4tasm13CSSPropertyIDENS_13unordered_setINS_12basic_stringIcNS_11char_traitsIcEENS_9allocatorIcEEEENS_4hashISD_EENS_8equal_toISD_EENSB_ISD_EEEEEEPvEEEENS_25__bucket_list_deallocatorINSB_ISP_EEEEE5firstEv
__ZNKSt3__122__compressed_pair_elemIPPNS_16__hash_node_baseIPNS_11__hash_nodeINS_17__hash_value_typeIN4lynx4tasm13CSSPropertyIDENS_13unordered_setINS_12basic_stringIcNS_11char_traitsIcEENS_9allocatorIcEEEENS_4hashISD_EENS_8equal_toISD_EENSB_ISD_EEEEEEPvEEEELi0ELb0EE5__getEv
__ZNSt3__117__compressed_pairINS_16__hash_node_baseIPNS_11__hash_nodeINS_17__hash_value_typeIN4lynx4tasm13CSSPropertyIDENS_13unordered_setINS_12basic_stringIcNS_11char_traitsIcEENS_9allocatorIcEEEENS_4hashISD_EENS_8equal_toISD_EENSB_ISD_EEEEEEPvEEEENSB_ISM_EEE5firstEv
__ZNSt3__122__compressed_pair_elemINS_16__hash_node_baseIPNS_11__hash_nodeINS_17__hash_value_typeIN4lynx4tasm13CSSPropertyIDENS_13unordered_setINS_12basic_stringIcNS_11char_traitsIcEENS_9allocatorIcEEEENS_4hashISD_EENS_8equal_toISD_EENSB_ISD_EEEEEEPvEEEELi0ELb0EE5__getEv
__ZNSt3__116__hash_node_baseIPNS_11__hash_nodeINS_17__hash_value_typeIN4lynx4tasm13CSSPropertyIDENS_13unordered_setINS_12basic_stringIcNS_11char_traitsIcEENS_9allocatorIcEEEENS_4hashISC_EENS_8equal_toISC_EENSA_ISC_EEEEEEPvEEE5__ptrEv
__ZNSt3__114pointer_traitsIPNS_16__hash_node_baseIPNS_11__hash_nodeINS_17__hash_value_typeIN4lynx4tasm13CSSPropertyIDENS_13unordered_setINS_12basic_stringIcNS_11char_traitsIcEENS_9allocatorIcEEEENS_4hashISD_EENS_8equal_toISD_EENSB_ISD_EEEEEEPvEEEEE10pointer_toERSO_
__ZNSt3__1L9addressofINS_16__hash_node_baseIPNS_11__hash_nodeINS_17__hash_value_typeIN4lynx4tasm13CSSPropertyIDENS_13unordered_setINS_12basic_stringIcNS_11char_traitsIcEENS_9allocatorIcEEEENS_4hashISD_EENS_8equal_toISD_EENSB_ISD_EEEEEEPvEEEEEEPT_RSP_
__ZNKSt3__110unique_ptrINS_11__hash_nodeINS_17__hash_value_typeIN4lynx4tasm13CSSPropertyIDENS_13unordered_setINS_12basic_stringIcNS_11char_traitsIcEENS_9allocatorIcEEEENS_4hashISC_EENS_8equal_toISC_EENSA_ISC_EEEEEEPvEENS_22__hash_node_destructorINSA_ISL_EEEEE3getEv
__ZNSt3__110unique_ptrINS_11__hash_nodeINS_17__hash_value_typeIN4lynx4tasm13CSSPropertyIDENS_13unordered_setINS_12basic_stringIcNS_11char_traitsIcEENS_9allocatorIcEEEENS_4hashISC_EENS_8equal_toISC_EENSA_ISC_EEEEEEPvEENS_22__hash_node_destructorINSA_ISL_EEEEE7releaseEv
__ZNSt3__117__compressed_pairIPNS_11__hash_nodeINS_17__hash_value_typeIN4lynx4tasm13CSSPropertyIDENS_13unordered_setINS_12basic_stringIcNS_11char_traitsIcEENS_9allocatorIcEEEENS_4hashISC_EENS_8equal_toISC_EENSA_ISC_EEEEEEPvEENS_22__hash_node_destructorINSA_ISL_EEEEE5firstEv
__ZNSt3__122__compressed_pair_elemIPNS_11__hash_nodeINS_17__hash_value_typeIN4lynx4tasm13CSSPropertyIDENS_13unordered_setINS_12basic_stringIcNS_11char_traitsIcEENS_9allocatorIcEEEENS_4hashISC_EENS_8equal_toISC_EENSA_ISC_EEEEEEPvEELi0ELb0EE5__getEv
__ZNSt3__110unique_ptrINS_11__hash_nodeINS_17__hash_value_typeIN4lynx4tasm13CSSPropertyIDENS_13unordered_setINS_12basic_stringIcNS_11char_traitsIcEENS_9allocatorIcEEEENS_4hashISC_EENS_8equal_toISC_EENSA_ISC_EEEEEEPvEENS_22__hash_node_destructorINSA_ISL_EEEEED1Ev
__ZNSt3__110unique_ptrINS_11__hash_nodeINS_17__hash_value_typeIN4lynx4tasm13CSSPropertyIDENS_13unordered_setINS_12basic_stringIcNS_11char_traitsIcEENS_9allocatorIcEEEENS_4hashISC_EENS_8equal_toISC_EENSA_ISC_EEEEEEPvEENS_22__hash_node_destructorINSA_ISL_EEEEED2Ev
__ZNSt3__110unique_ptrINS_11__hash_nodeINS_17__hash_value_typeIN4lynx4tasm13CSSPropertyIDENS_13unordered_setINS_12basic_stringIcNS_11char_traitsIcEENS_9allocatorIcEEEENS_4hashISC_EENS_8equal_toISC_EENSA_ISC_EEEEEEPvEENS_22__hash_node_destructorINSA_ISL_EEEEE5resetEPSL_
__ZNSt3__115__hash_iteratorIPNS_11__hash_nodeINS_17__hash_value_typeIN4lynx4tasm13CSSPropertyIDENS_13unordered_setINS_12basic_stringIcNS_11char_traitsIcEENS_9allocatorIcEEEENS_4hashISC_EENS_8equal_toISC_EENSA_ISC_EEEEEEPvEEEC1EPNS_16__hash_node_baseISM_EE
__ZNSt3__115__hash_iteratorIPNS_11__hash_nodeINS_17__hash_value_typeIN4lynx4tasm13CSSPropertyIDENS_13unordered_setINS_12basic_stringIcNS_11char_traitsIcEENS_9allocatorIcEEEENS_4hashISC_EENS_8equal_toISC_EENSA_ISC_EEEEEEPvEEEC2EPNS_16__hash_node_baseISM_EE
__ZNSt3__14pairINS_15__hash_iteratorIPNS_11__hash_nodeINS_17__hash_value_typeIN4lynx4tasm13CSSPropertyIDENS_13unordered_setINS_12basic_stringIcNS_11char_traitsIcEENS_9allocatorIcEEEENS_4hashISD_EENS_8equal_toISD_EENSB_ISD_EEEEEEPvEEEEbEC1ISO_RbLb0EEEOT_OT0_
__ZNSt3__14pairINS_15__hash_iteratorIPNS_11__hash_nodeINS_17__hash_value_typeIN4lynx4tasm13CSSPropertyIDENS_13unordered_setINS_12basic_stringIcNS_11char_traitsIcEENS_9allocatorIcEEEENS_4hashISD_EENS_8equal_toISD_EENSB_ISD_EEEEEEPvEEEEbEC2ISO_RbLb0EEEOT_OT0_
__ZNSt3__1L7forwardINS_15__hash_iteratorIPNS_11__hash_nodeINS_17__hash_value_typeIN4lynx4tasm13CSSPropertyIDENS_13unordered_setINS_12basic_stringIcNS_11char_traitsIcEENS_9allocatorIcEEEENS_4hashISD_EENS_8equal_toISD_EENSB_ISD_EEEEEEPvEEEEEEOT_RNS_16remove_referenceISP_E4typeE
__ZNKSt3__116__hash_node_baseIPNS_11__hash_nodeINS_17__hash_value_typeIN4lynx4tasm13CSSPropertyIDENS_13unordered_setINS_12basic_stringIcNS_11char_traitsIcEENS_9allocatorIcEEEENS_4hashISC_EENS_8equal_toISC_EENSA_ISC_EEEEEEPvEEE6__hashEv
__ZNSt3__112__hash_tableINS_17__hash_value_typeIN4lynx4tasm13CSSPropertyIDENS_13unordered_setINS_12basic_stringIcNS_11char_traitsIcEENS_9allocatorIcEEEENS_4hashISB_EENS_8equal_toISB_EENS9_ISB_EEEEEENS_22__unordered_map_hasherIS4_SI_NSC_IS4_EELb1EEENS_21__unordered_map_equalIS4_SI_NSE_IS4_EELb1EEENS9_ISI_EEE6key_eqEv
__ZNSt3__117__compressed_pairIfNS_21__unordered_map_equalIN4lynx4tasm13CSSPropertyIDENS_17__hash_value_typeIS4_NS_13unordered_setINS_12basic_stringIcNS_11char_traitsIcEENS_9allocatorIcEEEENS_4hashISC_EENS_8equal_toISC_EENSA_ISC_EEEEEENSF_IS4_EELb1EEEE6secondEv
__ZNSt3__122__compressed_pair_elemINS_21__unordered_map_equalIN4lynx4tasm13CSSPropertyIDENS_17__hash_value_typeIS4_NS_13unordered_setINS_12basic_stringIcNS_11char_traitsIcEENS_9allocatorIcEEEENS_4hashISC_EENS_8equal_toISC_EENSA_ISC_EEEEEENSF_IS4_EELb1EEELi1ELb1EE5__getEv
__ZNSt3__116__hash_node_baseIPNS_11__hash_nodeINS_17__hash_value_typeIN4lynx4tasm13CSSPropertyIDENS_13unordered_setINS_12basic_stringIcNS_11char_traitsIcEENS_9allocatorIcEEEENS_4hashISC_EENS_8equal_toISC_EENSA_ISC_EEEEEEPvEEE8__upcastEv
__ZNKSt3__121__unordered_map_equalIN4lynx4tasm13CSSPropertyIDENS_17__hash_value_typeIS3_NS_13unordered_setINS_12basic_stringIcNS_11char_traitsIcEENS_9allocatorIcEEEENS_4hashISB_EENS_8equal_toISB_EENS9_ISB_EEEEEENSE_IS3_EELb1EEclERKSI_RKS3_
__ZNKSt3__117__hash_value_typeIN4lynx4tasm13CSSPropertyIDENS_13unordered_setINS_12basic_stringIcNS_11char_traitsIcEENS_9allocatorIcEEEENS_4hashISA_EENS_8equal_toISA_EENS8_ISA_EEEEE11__get_valueEv
__ZNKSt3__18equal_toIN4lynx4tasm13CSSPropertyIDEEclERKS3_S6_
__ZNSt3__125__bucket_list_deallocatorINS_9allocatorIPNS_16__hash_node_baseIPNS_11__hash_nodeINS_17__hash_value_typeIN4lynx4tasm13CSSPropertyIDENS_13unordered_setINS_12basic_stringIcNS_11char_traitsIcEENS1_IcEEEENS_4hashISD_EENS_8equal_toISD_EENS1_ISD_EEEEEEPvEEEEEEEclEPSP_
__ZNSt3__116allocator_traitsINS_9allocatorIPNS_16__hash_node_baseIPNS_11__hash_nodeINS_17__hash_value_typeIN4lynx4tasm13CSSPropertyIDENS_13unordered_setINS_12basic_stringIcNS_11char_traitsIcEENS1_IcEEEENS_4hashISD_EENS_8equal_toISD_EENS1_ISD_EEEEEEPvEEEEEEE10deallocateERSQ_PSP_m
__ZNSt3__19allocatorIPNS_16__hash_node_baseIPNS_11__hash_nodeINS_17__hash_value_typeIN4lynx4tasm13CSSPropertyIDENS_13unordered_setINS_12basic_stringIcNS_11char_traitsIcEENS0_IcEEEENS_4hashISC_EENS_8equal_toISC_EENS0_ISC_EEEEEEPvEEEEE10deallocateEPSO_m
__ZNKSt3__121__unordered_map_equalIN4lynx4tasm13CSSPropertyIDENS_17__hash_value_typeIS3_NS_13unordered_setINS_12basic_stringIcNS_11char_traitsIcEENS_9allocatorIcEEEENS_4hashISB_EENS_8equal_toISB_EENS9_ISB_EEEEEENSE_IS3_EELb1EEclERKSI_SM_
__ZNSt3__14pairIKN4lynx4tasm13CSSPropertyIDENS_13unordered_setINS_12basic_stringIcNS_11char_traitsIcEENS_9allocatorIcEEEENS_4hashISB_EENS_8equal_toISB_EENS9_ISB_EEEEED1Ev
__ZNSt3__14pairIKN4lynx4tasm13CSSPropertyIDENS_13unordered_setINS_12basic_stringIcNS_11char_traitsIcEENS_9allocatorIcEEEENS_4hashISB_EENS_8equal_toISB_EENS9_ISB_EEEEED2Ev
__ZNSt3__113unordered_setINS_12basic_stringIcNS_11char_traitsIcEENS_9allocatorIcEEEENS_4hashIS6_EENS_8equal_toIS6_EENS4_IS6_EEED1Ev
__ZNSt3__113unordered_setINS_12basic_stringIcNS_11char_traitsIcEENS_9allocatorIcEEEENS_4hashIS6_EENS_8equal_toIS6_EENS4_IS6_EEED2Ev
__ZNSt3__112__hash_tableINS_12basic_stringIcNS_11char_traitsIcEENS_9allocatorIcEEEENS_4hashIS6_EENS_8equal_toIS6_EENS4_IS6_EEED1Ev
__ZNSt3__112__hash_tableINS_12basic_stringIcNS_11char_traitsIcEENS_9allocatorIcEEEENS_4hashIS6_EENS_8equal_toIS6_EENS4_IS6_EEE17__deallocate_nodeEPNS_16__hash_node_baseIPNS_11__hash_nodeIS6_PvEEEE
__ZNSt3__116allocator_traitsINS_9allocatorINS_11__hash_nodeINS_12basic_stringIcNS_11char_traitsIcEENS1_IcEEEEPvEEEEE7destroyIS7_EEvRSA_PT_
__ZNSt3__116allocator_traitsINS_9allocatorINS_11__hash_nodeINS_12basic_stringIcNS_11char_traitsIcEENS1_IcEEEEPvEEEEE9__destroyIS7_EEvNS_17integral_constantIbLb0EEERSA_PT_
__ZNSt3__116allocator_traitsINS_9allocatorINS_11__hash_nodeINS_12basic_stringIcNS_11char_traitsIcEENS1_IcEEEEPvEEEEE10deallocateERSA_PS9_m
__ZNSt3__19allocatorINS_11__hash_nodeINS_12basic_stringIcNS_11char_traitsIcEENS0_IcEEEEPvEEE10deallocateEPS8_m
__GLOBAL__sub_I_runtime_manager.cc
__GLOBAL__sub_I_staggered_grid_layout_algorithm.cc
__GLOBAL__sub_I_template_assembler.cc
__GLOBAL__sub_I_template_binary_header_reader.cc
__GLOBAL__sub_I_template_binary_reader.cc
__GLOBAL__sub_I_template_entry.cc
__GLOBAL__sub_I_template_pre_decoder.cc
__GLOBAL__sub_I_touch_event_handler.cc
__GLOBAL__sub_I_v1_polyfill.cc
__GLOBAL__sub_I_v1_renderer.cc
__GLOBAL__sub_I_v1_template_binary_reader.cc
__GLOBAL__sub_I_v1_virtual_page.cc
__GLOBAL__sub_I_virtual_component.cc
__GLOBAL__sub_I_virtual_node.cc
__GLOBAL__sub_I_virtual_page.cc
__GLOBAL__sub_I_virtual_plug.cc
__ZN4lynx5lepus6StringC1EPKc
__ZN4lynx5lepus6StringC2EPKc
__ZN4lynx5lepus10StringImpl6CreateEPKc
__ZN4lynx5lepus10StringImplC1EPKc
__ZN4lynx5lepus10StringImplC1EPKcm
__ZN4lynx5lepus10StringImplC2EPKcm
__ZN4lynx6common27RefCountedThreadSafeStorageC2Ev
__ZN4lynx6common24RefCountedThreadSafeBaseC2Ev
__ZN4lynx6common14AtomicRefCountC1Ei
__ZN4lynx6common14AtomicRefCountC2Ei
__ZNSt3__16atomicIiEC1Ei
__ZNSt3__16atomicIiEC2Ei
__ZNSt3__113__atomic_baseIiLb1EEC2Ei
__ZNSt3__113__atomic_baseIiLb0EEC2Ei
__ZNSt3__117__cxx_atomic_implIiNS_22__cxx_atomic_base_implIiEEEC1Ei
__ZNSt3__117__cxx_atomic_implIiNS_22__cxx_atomic_base_implIiEEEC2Ei
__ZNSt3__122__cxx_atomic_base_implIiEC2Ei
__ZNSt3__112basic_stringIcNS_11char_traitsIcEENS_9allocatorIcEEEC1Ev
__ZNSt3__112basic_stringIcNS_11char_traitsIcEENS_9allocatorIcEEEC2Ev
__ZNSt3__112basic_stringIcNS_11char_traitsIcEENS_9allocatorIcEEE6__zeroEv
__ZNSt3__117__compressed_pairINS_12basic_stringIcNS_11char_traitsIcEENS_9allocatorIcEEE5__repES5_E5firstEv
__ZNSt3__122__compressed_pair_elemINS_12basic_stringIcNS_11char_traitsIcEENS_9allocatorIcEEE5__repELi0ELb0EE5__getEv
__ZNSt3__112basic_stringIcNS_11char_traitsIcEENS_9allocatorIcEEE6resizeEm
__ZNSt3__112basic_stringIcNS_11char_traitsIcEENS_9allocatorIcEEEixEm
__ZNSt3__112basic_stringIcNS_11char_traitsIcEENS_9allocatorIcEEE13__get_pointerEv
__ZNSt3__112basic_stringIcNS_11char_traitsIcEENS_9allocatorIcEEE19__get_short_pointerEv
__ZNSt3__114pointer_traitsIPcE10pointer_toERc
__ZNSt3__1L9addressofIcEEPT_RS1_
__ZN4lynx6common8AdoptRefINS_5lepus10StringImplEEENS0_13scoped_refptrIT_EEPS5_
__ZNK4lynx6common24RefCountedThreadSafeBase7AdoptedEv
__ZN4lynx6common13scoped_refptrINS_5lepus10StringImplEEC1EPS3_NS0_11AdoptRefTagE
__ZN4lynx6common13scoped_refptrINS_5lepus10StringImplEEC2EPS3_NS0_11AdoptRefTagE
__GLOBAL__sub_I_virtual_slot.cc
__GLOBAL__sub_I_vm_context.cc
__GLOBAL__sub_I_MMKV.cpp
__GLOBAL__sub_I_AWEMemoryGraphBuilder.mm
_bdauto_track_generate_netInfo
_initialize_RNNetWorkHttpHandler
_bootstrap_load
_bdp_collectionClassLoadTimeInitialization
__GLOBAL__sub_I_ActionLivenessTC.mm
___cxx_global_var_init.45
__GLOBAL__sub_I_FaceLiveUtils.mm
__GLOBAL__sub_I_ReactMarker.cpp
__ZNSt3__18functionIFvN8facebook5react11ReactMarker13ReactMarkerIdEPKcEEC1EDn
__ZNSt3__18functionIFvN8facebook5react11ReactMarker13ReactMarkerIdEPKcEEC2EDn
__ZNSt3__110__function12__value_funcIFvN8facebook5react11ReactMarker13ReactMarkerIdEPKcEEC1Ev
__ZNSt3__110__function12__value_funcIFvN8facebook5react11ReactMarker13ReactMarkerIdEPKcEEC2Ev
__ZL11BoolFromEnvPKcb
___cxx_global_var_init.24
___cxx_global_var_init.26
__ZL13DefaultLogDirv
___cxx_global_var_init.28
___cxx_global_var_init.34
___cxx_global_var_init.39
__ZN24glog_internal_namespace_5MutexC1Ev
__ZN24glog_internal_namespace_5MutexC2Ev
__ZN24glog_internal_namespace_5Mutex9SetIsSafeEv
___cxx_global_var_init.44
___cxx_global_var_init.47
__ZL21TerminalSupportsColorv
___cxx_global_var_init.50
__ZN6google24glog_internal_namespace_11CrashReasonC1Ev
__ZN6google24glog_internal_namespace_11CrashReasonC2Ev
___cxx_global_var_init.51
__ZN6google10LogMessage14LogMessageDataC1Ev
__ZN6google10LogMessage14LogMessageDataC2Ev
__ZN6google10LogMessage9LogStreamC1EPcii
__ZNSt3__19basic_iosIcNS_11char_traitsIcEEEC2Ev
__ZNSt3__18ios_baseC2Ev
__ZNSt3__113basic_ostreamIcNS_11char_traitsIcEEEC2EPNS_15basic_streambufIcS2_EE
__ZNSt3__19basic_iosIcNS_11char_traitsIcEEE4initEPNS_15basic_streambufIcS2_EE
__ZNSt3__111char_traitsIcE3eofEv
__ZN6google12base_logging12LogStreamBufC1EPci
__ZN6google12base_logging12LogStreamBufC2EPci
__ZNSt3__115basic_streambufIcNS_11char_traitsIcEEE4setpEPcS4_
__ZNSt3__19basic_iosIcNS_11char_traitsIcEEE5rdbufEPNS_15basic_streambufIcS2_EE
__ZNKSt3__19basic_iosIcNS_11char_traitsIcEEE5rdbufEv
__ZNKSt3__18ios_base5rdbufEv
__ZNSt3__18ios_base5rdbufEPv
___cxx_global_var_init.52
__GLOBAL__sub_I_raw_logging.cc
__GLOBAL__sub_I_utilities.cc
__ZN17GoogleInitializerC1EPKcPFvvE
__ZN17GoogleInitializerC2EPKcPFvvE
__ZN6google24glog_internal_namespace_12_GLOBAL__N_128google_init_module_utilitiesEv
__ZN6google24glog_internal_namespace_L21MyUserNameInitializerEv
__ZNSt3__112basic_stringIcNS_11char_traitsIcEENS_9allocatorIcEEEaSEPKc
__ZN6google14StackTraceInitC1Ev
__ZN6google14StackTraceInitC2Ev
__ZN6googleL13nop_backtraceEP15_Unwind_ContextPv
__GLOBAL__sub_I_vlog_is_on.cc
_$s12AppContainer7EnvTypeOMa
_$s12AppContainer0A6ConfigVMa
_$s8LarkPerf5StateOMa
_$s8LarkPerf11ColdStartupCMa
_$s8LarkPerf11ColdStartupC6sharedACSgvgZ
_$s8LarkPerf11ColdStartupC6sharedACSgvau
_globalinit_33_177D0FB12C8E946A95473E3A2DE8A8F2_func8
_$s8LarkPerf11ColdStartupCACycfC
_$s8LarkPerf11ColdStartupCACycfc
_$s23ThreadSafeDataStructure19SynchronizationTypeOMa
_$s8LarkPerf5StateOACSHAAWl
_$s8LarkPerf5StateOSHAASQWb
_$s8LarkPerf5StateOACSQAAWl
_$s8LarkPerf5StateOwst
_$s8LarkPerf5StateOwet
_$s23ThreadSafeDataStructure19SynchronizationTypeOwui
_$s23ThreadSafeDataStructure1poiyAA0B10DictionaryCyxq_GSDyxq_G_AA19SynchronizationTypeOtSHRzr0_lF
_$s23ThreadSafeDataStructure0B10DictionaryCMa
_$s23ThreadSafeDataStructure0B10DictionaryCMi
_$s23ThreadSafeDataStructure0B10DictionaryCMr
_$s23ThreadSafeDataStructure0B10DictionaryC_15synchronizationACyxq_GSDyxq_G_AA19SynchronizationTypeOtcfC
_$s23ThreadSafeDataStructure19SynchronizationTypeO08generateE8DelegateAA0eH0_pyF
_$s23ThreadSafeDataStructure13ReadWriteLockCMa
_$s23ThreadSafeDataStructure13ReadWriteLockCACycfC
_$s23ThreadSafeDataStructure13ReadWriteLockCACycfc
_$s23ThreadSafeDataStructure0B10DictionaryC_23synchronizationDelegateACyxq_GSDyxq_G_AA015SynchronizationG0_ptc33_23D1B4C1DEB1B60C237B8A9D03355CDCLlfC
_$s23ThreadSafeDataStructure0B10DictionaryC_23synchronizationDelegateACyxq_GSDyxq_G_AA015SynchronizationG0_ptc33_23D1B4C1DEB1B60C237B8A9D03355CDCLlfc
_dynamic_cast_existential_0_class_conditional
_$s8LarkPerf13StateReciableOMa
_$s8LarkPerf13StateReciableOACSHAAWl
_$s8LarkPerf13StateReciableOSHAASQWb
_$s8LarkPerf13StateReciableOACSQAAWl
_$s8LarkPerf13StateReciableOwst
_$s8LarkPerf13StateReciableOwet
_$s23ThreadSafeDataStructure1poiyAA0B5ArrayCyxGSayxG_AA19SynchronizationTypeOtlF
_$s23ThreadSafeDataStructure0B5ArrayCMa
_$s23ThreadSafeDataStructure0B5ArrayCMi
_$s23ThreadSafeDataStructure0B5ArrayCMr
_$s23ThreadSafeDataStructure0B5ArrayC_15synchronizationACyxGSayxG_AA19SynchronizationTypeOtcfC
_$s23ThreadSafeDataStructure0B5ArrayC_23synchronizationDelegateACyxGSayxG_AA015SynchronizationG0_ptcfC
_$s23ThreadSafeDataStructure0B5ArrayC_23synchronizationDelegateACyxGSayxG_AA015SynchronizationG0_ptcfc
_$s8LarkPerf17AppStartupMonitorCMa
_$s8LarkPerf17AppStartupMonitorC6sharedACvau
_globalinit_33_BFFE2A134B8936ACBFBDD6A2711FAF49_func3
_$s8LarkPerf17AppStartupMonitorCACycfC
_$s8LarkPerf17AppStartupMonitorCACycfc
_$s8LarkPerf20AppStartupMonitorKeyOMa
_$s8LarkPerf20AppStartupMonitorKeyOACSHAAWl
_$s8LarkPerf20AppStartupMonitorKeyOSHAASQWb
_$s8LarkPerf20AppStartupMonitorKeyOACSQAAWl
_$s8LarkPerf20AppStartupMonitorKeyOwst
_$s8LarkPerf20AppStartupMonitorKeyOwet
_$s8LarkPerf17AppStartupMonitorC5start3keyyAA0cdE3KeyO_tF
_$s8LarkPerf17AppStartupMonitorC21startWatchDogIfNeeded33_BFFE2A134B8936ACBFBDD6A2711FAF49LLyyF
_$s8LarkPerf17AppStartupMonitorC12watchDogOpenSbvg
_$s8LarkPerf17AppStartupMonitorC12watchDogOpenSbvs
_$s8LarkPerf17AppStartupMonitorC5queue33_BFFE2A134B8936ACBFBDD6A2711FAF49LLSo012OS_dispatch_F0Cvg
_block_copy_helper.4
_$s8LarkPerf10AppMonitorCMa
_$s8LarkPerf10AppMonitorC20initStartupTimeStampSdyFZ
_app_monitor_set_startup_timestamp
__ZNSt3__1L9call_onceIZ33app_monitor_set_startup_timestampE3$_0JEEEvRNS_9once_flagEOT_DpOT0_
__ZNSt3__1L21__libcpp_acquire_loadImEET_PKS1_
__ZNSt3__1L7forwardIZ33app_monitor_set_startup_timestampE3$_0EEOT_RNS_16remove_referenceIS2_E4typeE
__ZNSt3__15tupleIJOZ33app_monitor_set_startup_timestampE3$_0EEC1IJS1_ELb0ELb0EEEDpOT_
__ZNSt3__15tupleIJOZ33app_monitor_set_startup_timestampE3$_0EEC2IJS1_ELb0ELb0EEEDpOT_
__ZNSt3__112__tuple_implINS_15__tuple_indicesIJLm0EEEEJOZ33app_monitor_set_startup_timestampE3$_0EEC1IJLm0EEJS4_EJEJEJS3_EEENS1_IJXspT_EEEENS_13__tuple_typesIJDpT0_EEENS1_IJXspT1_EEEENS8_IJDpT2_EEEDpOT3_
__ZNSt3__112__tuple_implINS_15__tuple_indicesIJLm0EEEEJOZ33app_monitor_set_startup_timestampE3$_0EEC2IJLm0EEJS4_EJEJEJS3_EEENS1_IJXspT_EEEENS_13__tuple_typesIJDpT0_EEENS1_IJXspT1_EEEENS8_IJDpT2_EEEDpOT3_
__ZNSt3__112__tuple_leafILm0EOZ33app_monitor_set_startup_timestampE3$_0Lb0EEC2IS1_vEEOT_
__ZNSt3__117__call_once_paramINS_5tupleIJOZ33app_monitor_set_startup_timestampE3$_0EEEEC1ERS4_
__ZNSt3__117__call_once_paramINS_5tupleIJOZ33app_monitor_set_startup_timestampE3$_0EEEEC2ERS4_
__ZNSt3__1L17__call_once_proxyINS_5tupleIJOZ33app_monitor_set_startup_timestampE3$_0EEEEEvPv
__ZNSt3__117__call_once_paramINS_5tupleIJOZ33app_monitor_set_startup_timestampE3$_0EEEEclEv
__ZNSt3__117__call_once_paramINS_5tupleIJOZ33app_monitor_set_startup_timestampE3$_0EEEE9__executeIJEEEvNS_15__tuple_indicesIJXspT_EEEE
__ZNSt3__1L4moveIRNS_5tupleIJOZ33app_monitor_set_startup_timestampE3$_0EEEEEONS_16remove_referenceIT_E4typeEOS7_
__ZNSt3__1L3getILm0EJOZ33app_monitor_set_startup_timestampE3$_0EEEONS_13tuple_elementIXT_ENS_5tupleIJDpT0_EEEE4typeEOS7_
__ZNSt3__112__tuple_leafILm0EOZ33app_monitor_set_startup_timestampE3$_0Lb0EE3getEv
__ZNSt3__1L8__invokeIZ33app_monitor_set_startup_timestampE3$_0JEEEDTclclsr3std3__1E7forwardIT_Efp_Espclsr3std3__1E7forwardIT0_Efp0_EEEOS2_DpOS3_
__ZZ33app_monitor_set_startup_timestampENK3$_0clEv
_$s8LarkPerf17AppStartupMonitorC17startTimeStampDic33_BFFE2A134B8936ACBFBDD6A2711FAF49LL23ThreadSafeDataStructure0Q10DictionaryCyAA0cdE3KeyOSdGvg
_$s23ThreadSafeDataStructure0B10DictionaryCyq_SgxcisTj
_$s23ThreadSafeDataStructure0B10DictionaryCyq_Sgxcis
_$sq_SgSHRzr0_lWOc
_$s23ThreadSafeDataStructure13ReadWriteLockCAA23SynchronizationDelegateA2aDP14writeOperation5blockyyyXE_tFTW
_$s23ThreadSafeDataStructure13ReadWriteLockC14writeOperation5blockyyyXE_tF
_$s23ThreadSafeDataStructure13ReadWriteLockC02rwG0So24_opaque_pthread_rwlock_tVvM
_$s23ThreadSafeDataStructure13ReadWriteLockC02rwG0So24_opaque_pthread_rwlock_tVvM.resume.0
_$s23ThreadSafeDataStructure0B10DictionaryCyq_SgxcisyyXEfU_TA
_$s23ThreadSafeDataStructure0B10DictionaryCyq_SgxcisyyXEfU_
_$s23ThreadSafeDataStructure0B10DictionaryC4dataSDyxq_GvM
_$s8LarkPerf20AppStartupMonitorKeyOSHAASH13_rawHashValue4seedS2i_tFTW
_$s8LarkPerf20AppStartupMonitorKeyOACSYAAWl
_$s8LarkPerf20AppStartupMonitorKeyOSHAASH4hash4intoys6HasherVz_tFTW
_$s8LarkPerf20AppStartupMonitorKeyOSYAASY8rawValue03RawH0QzvgTW
_$s8LarkPerf20AppStartupMonitorKeyO8rawValueSSvg
_$s23ThreadSafeDataStructure0B10DictionaryC4dataSDyxq_GvM.resume.0
_$sq_SgSHRzr0_lWOh
_$s8LarkPerf17AppStartupMonitorC13uploadTimeout33_BFFE2A134B8936ACBFBDD6A2711FAF49LLSbvg
_$s8LarkPerf17AppStartupMonitorC12startTimeDic33_BFFE2A134B8936ACBFBDD6A2711FAF49LL23ThreadSafeDataStructure0P10DictionaryCyAA0cdE3KeyOSdGvg
_$s23ThreadSafeDataStructure0B10DictionaryCyq_SgxcigTj
_$s23ThreadSafeDataStructure0B10DictionaryCyq_Sgxcig
_$s23ThreadSafeDataStructure13ReadWriteLockCAA23SynchronizationDelegateA2aDP13readOperation5blockqd__qd__yXE_tlFTW
_$s23ThreadSafeDataStructure13ReadWriteLockC13readOperation5blockxxyXE_tlF
_$s23ThreadSafeDataStructure0B10DictionaryCyq_SgxcigADyXEfU_TA
_$s23ThreadSafeDataStructure0B10DictionaryCyq_SgxcigADyXEfU_
_$s23ThreadSafeDataStructure0B10DictionaryC4dataSDyxq_Gvg
_$s8LarkPerf17AppStartupMonitorC11hadUploadedSbvg
_$s8LarkPerf5StateOwui
_$s8LarkPerf11ColdStartupC2doyyAA5StateOFTj
_$s8LarkPerf11ColdStartupC2doyyAA5StateOF
_$s8LarkPerf0A11ProcessInfoCMa
_$s8LarkPerf0A11ProcessInfoC10sinceStartSdyFZ
_$s8LarkPerf0A11ProcessInfoC16processStartTimeSdvgZ
+[LarkProcessInfoPrivate processStartTime]
+[LarkProcessInfoPrivate processInfoForPID:procInfo:]
_$sSo6NSDateCMa
_$sSo6NSDateCABycfC
_$sSo6NSDateCABycfcTO
_$s8LarkPerf11ColdStartupC6metric33_177D0FB12C8E946A95473E3A2DE8A8F2LL23ThreadSafeDataStructure0Q10DictionaryCyAA5StateOSdGvg
_$s8LarkPerf5StateOSHAASH13_rawHashValue4seedS2i_tFTW
_$s8LarkPerf5StateOSHAASH4hash4intoys6HasherVz_tFTW
_$s8LarkPerf5StateO4hash4intoys6HasherVz_tF
_$s23ThreadSafeDataStructure0B10DictionaryC4keysAA0B5ArrayCyxGvgTj
_$s23ThreadSafeDataStructure0B10DictionaryC4keysAA0B5ArrayCyxGvg
_$s23ThreadSafeDataStructure0B5ArrayCyxGIgo_ADIegr_SHRzr0_lTRTA
_$s23ThreadSafeDataStructure0B5ArrayCyxGIgo_ADIegr_SHRzr0_lTR
_$s23ThreadSafeDataStructure0B10DictionaryC4keysAA0B5ArrayCyxGvgAGyXEfU_TA
_$s23ThreadSafeDataStructure0B10DictionaryC4keysAA0B5ArrayCyxGvgAGyXEfU_
_$s23ThreadSafeDataStructure0B10DictionaryC4keysAA0B5ArrayCyxGvgAGyXEfU_xxXEfU_TA
_$s23ThreadSafeDataStructure0B10DictionaryC4keysAA0B5ArrayCyxGvgAGyXEfU_xxXEfU_
_$sSD4KeysVyxq__GSHRzr0_lWOh
_$s23ThreadSafeDataStructure0B10DictionaryC31generateSynchronizationDelegate33_23D1B4C1DEB1B60C237B8A9D03355CDCLLAA0gH0_pyF
_$s23ThreadSafeDataStructure19SynchronizationTypeO8delegateAcA0E8Delegate_p_tcfC
_$s23ThreadSafeDataStructure15ConcurrentQueueCMa
_$s23ThreadSafeDataStructure9SemaphoreCMa
_$s23ThreadSafeDataStructure13RecursiveLockCMa
_$s23ThreadSafeDataStructure0B5ArrayC5countSivgTj
_$s23ThreadSafeDataStructure0B5ArrayC5countSivg
_$sSiIgd_SiIegr_TRTA
_$sSiIgd_SiIegr_TR
_$s23ThreadSafeDataStructure0B5ArrayC5countSivgSiyXEfU_TA
_$s23ThreadSafeDataStructure0B5ArrayC5countSivgSiyXEfU_
_$s23ThreadSafeDataStructure0B5ArrayC4dataSayxGvg
_$s23ThreadSafeDataStructure0B5ArrayCfD
_$s23ThreadSafeDataStructure0B5ArrayCfd
_$s23ThreadSafeDataStructure13ReadWriteLockCfD
_$s23ThreadSafeDataStructure13ReadWriteLockCfd
_$sSayxGlWOh
_$s8LarkPerf5StateO5countSivau
_globalinit_33_177D0FB12C8E946A95473E3A2DE8A8F2_func7
_$s8LarkPerf5StateO2eeoiySbAC_ACtFZ
_$s12RunloopTools0A7MonitorCMa
_$s12RunloopTools0A7MonitorC6sharedACvgZ
_$s12RunloopTools0A7MonitorC6sharedACvau
_globalinit_33_2A15566C480CA1C94C247D41A9EAD366_func3
_$s12RunloopTools0A7MonitorCACyc33_2A15566C480CA1C94C247D41A9EAD366LlfC
_$s12RunloopTools0A7MonitorCACyc33_2A15566C480CA1C94C247D41A9EAD366Llfc
_$sSo9OS_os_logCMa
_$s12RunloopTools0A7MonitorC20startRunLoopObserveryyFTj
_$s12RunloopTools0A7MonitorC20startRunLoopObserveryyF
_$sSo17CFRunLoopActivityVMa
_$sSo17CFRunLoopActivityVABs10SetAlgebraSCWl
_$sSo17CFRunLoopActivityVs10SetAlgebraSCSQWb
_$sSo17CFRunLoopActivityVABSQSCWl
_$sSo17CFRunLoopActivityVs10SetAlgebraSCs25ExpressibleByArrayLiteralPWb
_$sSo17CFRunLoopActivityVABs25ExpressibleByArrayLiteralSCWl
_$sSo17CFRunLoopActivityVs10SetAlgebraSCsACPyxqd__ncSTRd__7ElementQyd__AERtzlufCTW
_$sSo17CFRunLoopActivityVs10SetAlgebraSCsACPxycfCTW
_$sSo17CFRunLoopActivityVABs9OptionSetSCWl
_$sSo17CFRunLoopActivityVs9OptionSetSCSYWb
_$sSo17CFRunLoopActivityVABSYSCWl
_$sSo17CFRunLoopActivityVs9OptionSetSCs0E7AlgebraPWb
_$sSo17CFRunLoopActivityVs9OptionSetSCsACP8rawValuex03RawG0Qz_tcfCTW
_$sSo17CFRunLoopActivityV8rawValueABSu_tcfC
_$sSo17CFRunLoopActivityVs10SetAlgebraSCsACP6insertySb8inserted_7ElementQz17memberAfterInserttAHnFTW
_$sSo17CFRunLoopActivityVs10SetAlgebraSCsACP12intersectionyxxFTW
_$sSo17CFRunLoopActivityVSYSCSY8rawValue03RawE0QzvgTW
_$sSo17CFRunLoopActivityV8rawValueSuvg
_$sSo17CFRunLoopActivityVs10SetAlgebraSCsACP16formIntersectionyyxFTW
_$sSo17CFRunLoopActivityVSQSCSQ2eeoiySbx_xtFZTW
_$sSo17CFRunLoopActivityVs10SetAlgebraSCsACP9formUnionyyxnFTW
_$s8LarkChat0B8AssemblyC16criticalLeakListSayyXlXpGvau
_globalinit_33_4722D937B7273100394EFEF5880CABFB_func17
_$s8LarkChat03NewB14ViewControllerCMa
_$s8LarkChat27MessageDetailViewControllerCMa
+[NSObject(MemoryLeak) addClassToCriticalList:]
+[NSObject(MemoryLeak) criticalClassList]
___41+[NSObject(MemoryLeak) criticalClassList]_block_invoke
_$s7LarkSDK16SQLiteConfigTaskCMa
_$s7LarkSDK16SQLiteConfigTaskCACycfC
_$s7LarkSDK16SQLiteConfigTaskCACycfcTo
_$s7LarkSDK16SQLiteConfigTaskCACycfc
_$s7LarkSDK16SQLiteConfigTaskC7executeyyF
_$s11LarkFileKit4PathVMa
_$s11LarkFileKit4PathV09documentsD0ACvgZ
_$s11LarkFileKit4PathVyACSScfC
_$s11LarkFileKit4PathV9FMWrapperCMa
_$s11LarkFileKit4PathV9FMWrapperCAEycfC
_$s11LarkFileKit4PathV9FMWrapperCAEycfc
_$s11LarkFileKit4PathVWOh
_$s11LarkFileKit4PathV13stringLiteralACSS_tcfC
_$s11LarkFileKit1poiyAA4PathVAD_ADtF
_$s11LarkFileKit4PathV9separatorSSvau
_globalinit_33_0BF164236A09217320287C88CABF6A35_func2
_$s11LarkFileKit4PathVwxx
_$s11LarkFileKit4PathV9FMWrapperCfD
_$s11LarkFileKit4PathV9FMWrapperCfd
_$sSo13NSFileManagerCSgWOh
_$sSo21NSFileManagerDelegate_pSgXwWOh
_$s11LarkFileKit4PathV4readxyKAA8ReadableRzAA8WritableRzlF
_$s10Foundation4DataV11LarkFileKit8ReadableA2dEP4read4fromxAD4PathV_tKFZTW
_$s10Foundation4DataV11LarkFileKitE4read4fromAcD4PathV_tKFZ
_$sSo20NSDataReadingOptionsVABs10SetAlgebraSCWl
_$sSo20NSDataReadingOptionsVs10SetAlgebraSCSQWb
_$sSo20NSDataReadingOptionsVABSQSCWl
_$sSo20NSDataReadingOptionsVs10SetAlgebraSCs25ExpressibleByArrayLiteralPWb
_$sSo20NSDataReadingOptionsVABs25ExpressibleByArrayLiteralSCWl
_$sSo20NSDataReadingOptionsVs10SetAlgebraSCsACPyxqd__ncSTRd__7ElementQyd__AERtzlufCTW
_$sSo20NSDataReadingOptionsVs10SetAlgebraSCsACPxycfCTW
_$sSo20NSDataReadingOptionsVABs9OptionSetSCWl
_$sSo20NSDataReadingOptionsVs9OptionSetSCSYWb
_$sSo20NSDataReadingOptionsVABSYSCWl
_$sSo20NSDataReadingOptionsVs9OptionSetSCs0E7AlgebraPWb
_$sSo20NSDataReadingOptionsVs9OptionSetSCsACP8rawValuex03RawG0Qz_tcfCTW
_$sSo20NSDataReadingOptionsV8rawValueABSu_tcfC
_$s10Foundation4DataV11LarkFileKitE4read4from7optionsAcD4PathV_So20NSDataReadingOptionsVtKFZ
_$s11LarkFileKit0B7TrackerCMa
_$s11LarkFileKit0B7TrackerC5track_9operation5blockxAA4PathV_AA0B16ManagerOperationOxyKXEtKlFZ
_$s10Foundation4DataVs5Error_pIgozo_ACsAD_pIegrzo_TRTA
_$s10Foundation4DataVs5Error_pIgozo_ACsAD_pIegrzo_TR
_$s10Foundation4DataV11LarkFileKitE4read4from7optionsAcD4PathV_So20NSDataReadingOptionsVtKFZACyKXEfU_TA
_$s10Foundation4DataV11LarkFileKitE4read4from7optionsAcD4PathV_So20NSDataReadingOptionsVtKFZACyKXEfU_
_$s11LarkFileKit4PathV3url10Foundation3URLVvg
_$s11LarkFileKit4PathV12safeRawValueSSvg
_$s11LarkFileKit4PathV11isDirectorySbvg
_$s11LarkFileKit4PathV9FMWrapperC11fileManagerSo06NSFileG0Cvg
_$s11LarkFileKit4PathV9FMWrapperC12_fileManager33_0BF164236A09217320287C88CABF6A35LLSo06NSFileG0Cvg
_$sSo13NSFileManagerCMa
_$sSo13NSFileManagerCABycfC
_$sSo13NSFileManagerCABycfcTO
_$s11LarkFileKit4PathV9FMWrapperC8delegateSo21NSFileManagerDelegate_pSgvg
_$s10Foundation4DataVWOh
_$s11LarkFileKit0B7TrackerC5track33_8A4097DC9459175907B2B833052F051DLL_9operation8duration5erroryAA4PathV_AA0B16ManagerOperationOSds5Error_pSgtFZfA2_
_$s11LarkFileKit0B7TrackerC5track33_8A4097DC9459175907B2B833052F051DLL_9operation8duration5erroryAA4PathV_AA0B16ManagerOperationOSds5Error_pSgtFZ
_$s11LarkFileKit0B7TrackerC13trackerEnableSbvau
_globalinit_33_8A4097DC9459175907B2B833052F051D_func0
_$s11LarkFileKit0B16ManagerOperationO13shouldLogSizeSbvg
_$s11LarkFileKit4PathV8fileSizes6UInt64VSgvg
_$s11LarkFileKit4PathV10attributesSo12NSDictionaryCvg
_$sSo12NSDictionaryCs5Error_pIgozo_ABsAC_pIegrzo_TRTA
_$sSo12NSDictionaryCs5Error_pIgozo_ABsAC_pIegrzo_TR
_$s11LarkFileKit4PathV10attributesSo12NSDictionaryCvgAFyXEfU_TA
_$s11LarkFileKit4PathV10attributesSo12NSDictionaryCvgAFyXEfU_
_$s11LarkFileKit0B9TrackInfoV4path12isMainThread4size9operation8duration5errorAcA4PathV_Sbs6UInt64VSgAA0B16ManagerOperationOSds5Error_pSgtcfC
_$s11LarkFileKit0B24TrackInfoHandlerRegistryCMa
_$s11LarkFileKit0B24TrackInfoHandlerRegistryC8handlersSayAA0bdeF0_pGvau
_globalinit_33_8A4097DC9459175907B2B833052F051D_func1
_$s11LarkFileKit0B9TrackInfoVWOr
_$sSay11LarkFileKit0B16TrackInfoHandler_pGSayxGSTsWl
_$sSay11LarkFileKit0B16TrackInfoHandler_pGMa
_$s11LarkFileKit0B16TrackInfoHandler_pMa
_$s11LarkFileKit0B9TrackInfoVWOs
_$sSay11LarkFileKit0B16TrackInfoHandler_pGWOh
_$sSo18NSFileAttributeKeyaMa
_$sSo18NSFileAttributeKeyas21_ObjectiveCBridgeableSCsACP09_bridgeToD1C01_D5CTypeQzyFTW
_$sSo18NSFileAttributeKeyaABs20_SwiftNewtypeWrapperSCWl
_$sSo18NSFileAttributeKeyas20_SwiftNewtypeWrapperSCSYWb
_$sSo18NSFileAttributeKeyaABSYSCWl
_$sSo18NSFileAttributeKeyas20_SwiftNewtypeWrapperSCs35_HasCustomAnyHashableRepresentationPWb
_$sSo18NSFileAttributeKeyaABs35_HasCustomAnyHashableRepresentationSCWl
_$sSo18NSFileAttributeKeyaSYSCSY8rawValue03RawE0QzvgTW
_$sSo18NSFileAttributeKeya8rawValueSSvg
_$sSo8NSNumberCMa
_$s7LarkSDK16SQLiteConfigTaskCfETo
_$s11BootManagerAACMa
_$s11BootManagerAAC07preloadA6ConfigyyFZ
_$s11BootManagerAAC6sharedABvau
_globalinit_33_5B32D4AE43C74C5E0A1E0666AA0EB2D5_func7
_$s11BootManagerAACABycfC
_$s11BootManagerAACABycfc
_$s11BootManager06GlobalA7ContextCMa
_$s11BootManager06GlobalA7ContextCACycfC
_$s11BootManager06GlobalA7ContextCACycfc
_$s11BootManager0A7ContextCMa
_$s11BootManager04MockaB10DependencyCMa
_$s11BootManager04MockaB10DependencyCACycfC
_$s11BootManager04MockaB10DependencyCACycfc
_$s11BootManager0A10Dependency_pWOb
_$s11BootManager14GlobalTaskRepoCMa
_$s11BootManager14GlobalTaskRepoCACycfC
_$s11BootManager14GlobalTaskRepoCACycfc
_$s11BootManager10LaunchTaskCMa
_$s11BootManager9WorkSpaceCMa
_$s11BootManager13TaskSchedulerCMa
_$s11BootManager13TaskSchedulerCACycfC
_$s11BootManager13TaskSchedulerCACycfc
_$s11BootManagerAAC24observeSceneNotification33_5B32D4AE43C74C5E0A1E0666AA0EB2D5LLyyF
_$s11BootManagerAAC23didDisconnectNotiObject33_5B32D4AE43C74C5E0A1E0666AA0EB2D5LLSo8NSObject_pSgvs
_$s11BootManagerAAC17addConcurrentTaskyyyycF
_$s11BootManager13TaskSchedulerC15concurrentQueueSo011NSOperationF0Cvg
_$s11BootManager13TaskSchedulerC15concurrentQueueSo011NSOperationF0CvgAFyXEfU_
_$sSo16NSOperationQueueCMa
_$sSo16NSOperationQueueCABycfC
_$sSo16NSOperationQueueCABycfcTO
_$s11BootManagerAAC07preloadA6ConfigyyFZyycfU_
_globalinit_33_CF61AA9A6F46BD086817F5DC3B0081E1_func10
_$s11BootManager14FlowLaunchTaskCMa
_$s11BootManagerAAC8registeryyxmAA10LaunchTaskCRbzAA12IdentifiableRzlFZ
_$s11BootManager12TaskRegistryCMa
_$s11BootManager12TaskRegistryC8registeryyxmAA06LaunchC0CRbzAA12IdentifiableRzlFZ
_$s11BootManager12TaskRegistryC8registeryyxmAA06LaunchC0CRbzAA12IdentifiableRzlFZAFycAFmcfu_
_$s11BootManager12TaskRegistryC8register_8provideryxm_AA06LaunchC0CyctAGRbzAA12IdentifiableRzlFZ
_$s11BootManager12TaskRegistryC13tasksProviderSDySSAA06LaunchC0CycGvau
_globalinit_33_9E7F1810A87E5B46C10D1E6A10ECAD4F_func13
_$sSD4KeysVySS11BootManager10LaunchTaskCyc_GAByxq__GSTsWl
_$sSD4KeysVySS11BootManager10LaunchTaskCyc_GMa
_$s11BootManager10LaunchTaskCycMa
_$sSD4KeysVySS11BootManager10LaunchTaskCyc_GWOh
_$s11BootManager0A10TaskConfigVACSeAAWl
_$s12LarkSafeMode0abC4TaskCMa
_$s12LarkSafeMode0abC4TaskCMr
_$s11BootManager16BranchLaunchTaskCMa
_$s12LarkSafeMode0abC4TaskC11BootManager12IdentifiableAadEP8identifySSvgZTW
_$s12LarkSafeMode0abC4TaskC8identifySSvgZ
_$s12LarkSafeMode0abC4TaskC8identifySSvau
_globalinit_33_7D63FCEC64E870E4A10B89D197C6AE54_func11
_$s12LarkSafeMode0a5EnterbC4TaskCMa
_$s12LarkSafeMode0a5EnterbC4TaskCMr
_$s11BootManager15AsyncLaunchTaskCMa
_$s12LarkSafeMode0a5EnterbC4TaskC11BootManager12IdentifiableAadEP8identifySSvgZTW
_$s12LarkSafeMode0a5EnterbC4TaskC8identifySSvgZ
_$s12LarkSafeMode0a5EnterbC4TaskC8identifySSvau
_globalinit_33_7D63FCEC64E870E4A10B89D197C6AE54_func12
_$s11BootManagerAAC6sharedABvgZ
_$s11BootManagerAAC10dependencyAA0A10Dependency_pvsTj
_$s11BootManager0A10TaskConfigVSeAASe4fromxs7Decoder_p_tKcfCTW
_$s11BootManagerAAC10dependencyAA0A10Dependency_pvs
_$s11BootManager0A10Dependency_pWOc
_$s11BootManager04MockaB10DependencyCfD
_$s11BootManager04MockaB10DependencyCfd
_$s11BootManager0A10TaskConfigV4fromACs7Decoder_p_tKcfC
_$s11BootManager0A10TaskConfigV10CodingKeys33_CF61AA9A6F46BD086817F5DC3B0081E1LLOMa
_$s12AppContainer0A8DelegateCMa
_$s12AppContainer0A6ConfigV7defaultACvgZ
_$s12AppContainer0A6ConfigV7defaultACvau
_globalinit_33_B6D99508F4FEBE41616DFE31C9B08D24_func0
_$s12AppContainer0A6ConfigV39defaultValueForRespondsToSceneSelectorsSbyFZ
_$s12AppContainer0A6ConfigV3env24respondsToSceneSelectorsAcA7EnvTypeO_SbtcfC
_$s12AppContainer0A6ConfigV3envAA7EnvTypeOvg
_$s12AppContainer10BootLoaderCMa
_$s12AppContainer10BootLoaderC6sharedACvgZ
_$s12AppContainer10BootLoaderC6sharedACvau
_globalinit_33_D47E146FCDA0DAE0F5A047A6F7F64886_func4
_$s12AppContainer10BootLoaderCACycfC
_$s12AppContainer10BootLoaderCACycfc
_$s12AppContainer10BootLoaderC5start8delegate6configyxm_AA0A6ConfigVtAA0A8DelegateCRbzlF
_$s12AppContainer0A12InnerContextCMa
_$s12AppContainer10BootLoaderC9container8Swinject0B0Cvau
_globalinit_33_D47E146FCDA0DAE0F5A047A6F7F64886_func5
_$s8Swinject9ContainerCMa
_$s8Swinject9ContainerC6parentA2CSg_tcfcfA_
_$s8Swinject9ContainerC6parentA2CSg_tcfC
_$s8Swinject9ContainerC6parentA2CSg_tcfc
_$s8Swinject10ServiceKeyVACSHAAWl
_$s8Swinject10ServiceKeyVSHAASQWb
_$s8Swinject10ServiceKeyVACSQAAWl
_$s12AppContainer0A12InnerContextC6config9containerAcA0A6ConfigV_8Swinject0B0CtcfC
_$s11BootManager0A10TaskConfigV10CodingKeys33_CF61AA9A6F46BD086817F5DC3B0081E1LLOs0E3KeyAAs28CustomDebugStringConvertiblePWb
_$s12AppContainer0A12InnerContextC6config9containerAcA0A6ConfigV_8Swinject0B0Ctcfc
_$s12AppContainer10DispatcherCMa
_$s11BootManager0A10TaskConfigV10CodingKeys33_CF61AA9A6F46BD086817F5DC3B0081E1LLOAFs28CustomDebugStringConvertibleAAWl
_$s12AppContainer10DispatcherCACycfC
_$s11BootManager0A10TaskConfigV10CodingKeys33_CF61AA9A6F46BD086817F5DC3B0081E1LLOs0E3KeyAAs23CustomStringConvertiblePWb
_$s12AppContainer10DispatcherCACycfc
_$s11BootManager0A10TaskConfigV10CodingKeys33_CF61AA9A6F46BD086817F5DC3B0081E1LLOAFs23CustomStringConvertibleAAWl
_$s11BootManager0A10TaskConfigV10CodingKeys33_CF61AA9A6F46BD086817F5DC3B0081E1LLOAFs0E3KeyAAWl
_$s12AppContainer11ApplicationCMa
_$s8Swinject9ContainerC11synchronizeAA8Resolver_pyF
_$s13LarkContainer16implicitResolver8Swinject0D0_pSgvs
_$s13LarkContainer16implicitResolver8Swinject0D0_pSgvau
_globalinit_33_1D73AA3ED20E58A3CC2C463613B528F0_func2
_$s11BootManager9StageTypeOMa
_$sSay11BootManager9StageTypeOGSayxGSesSeRzlWl
_$sSay11BootManager9StageTypeOGMa
_$s11BootManager9StageTypeOACSeAAWl
_$s11BootManager0A10TaskConfigV10CodingKeys33_CF61AA9A6F46BD086817F5DC3B0081E1LLOs0E3KeyAAsAGP11stringValueSSvgTW
_$s11BootManager0A10TaskConfigV10CodingKeys33_CF61AA9A6F46BD086817F5DC3B0081E1LLO11stringValueSSvg
_$s8Swinject8Resolver_pSgWOc
_$s11BootManager9StageTypeOSeAASe4fromxs7Decoder_p_tKcfCTW
_$s11BootManager9StageTypeOACSYAAWl
_$s11BootManager9StageTypeOSYAASY8rawValuexSg03RawF0Qz_tcfCTW
_$s11BootManager9StageTypeO8rawValueACSgSS_tcfC
_$s11BootManager9StageTypeOwet
_$s11BootManager9StageTypeOwst
_$sSDySSSay11BootManager9StageTypeOGGSDyxq_GSesSeRzSeR_rlWl
_$sSDySSSay11BootManager9StageTypeOGGMa
_$s8Swinject8Resolver_pSgWOd
_$sSDySSSaySSGGSDyxq_GSesSeRzSeR_rlWl
_$sSDySSSaySSGGMa
_$sSaySSGSayxGSesSeRzlWl
_$s11BootManager0A10TaskConfigVWOh
_$s11BootManager0A10TaskConfigVwst
_$s11BootManager0A10TaskConfigVwet
_$s12AppContainer0A8DelegateCACycfcTo
_$s12AppContainer0A8DelegateCACycfc
_$s12AppContainer0A8DelegateC8responds2toSb10ObjectiveC8SelectorVSg_tFTo
_$s12AppContainer0A8DelegateC8responds2toSb10ObjectiveC8SelectorVSg_tF
_$s12AppContainer0A6ConfigV14sceneSelectorsSay10ObjectiveC8SelectorVGvau
_globalinit_33_B6D99508F4FEBE41616DFE31C9B08D24_func1
_$sSay10ObjectiveC8SelectorVGSayxGSTsWl
_$sSay10ObjectiveC8SelectorVGMa
_$s10ObjectiveC8SelectorVACSQAAWl
_$sSay10ObjectiveC8SelectorVGWOh
_$s12AppContainer0A8DelegateC7contextAA0A12InnerContextCvg
_$s12AppContainer0A12InnerContextC6configAA0A6ConfigVvg
_$sSo20CFRunLoopObserverRefaSgSo0aB8ActivityVIeggy_AcEIeyByy_TR
_$s12RunloopTools0A7MonitorC20startRunLoopObserveryyFySo05CFRunfG3RefaSg_So0hF8ActivityVtcfU_TA
_$s12RunloopTools0A7MonitorC20startRunLoopObserveryyFySo05CFRunfG3RefaSg_So0hF8ActivityVtcfU_
_$s12RunloopTools0A7MonitorC6enable33_2A15566C480CA1C94C247D41A9EAD366LLSbvg
_$s12RunloopTools0A7MonitorC04lastA9StartTime33_2A15566C480CA1C94C247D41A9EAD366LLSdSgvg
_$s12RunloopTools0A7MonitorC04lastA9StartTime33_2A15566C480CA1C94C247D41A9EAD366LLSdSgvs
_$s12RunloopTools0A7MonitorC12runLoopCount33_2A15566C480CA1C94C247D41A9EAD366LLs6UInt64Vvg
_$s12RunloopTools0A7MonitorC12runLoopCount33_2A15566C480CA1C94C247D41A9EAD366LLs6UInt64Vvs
___19+[FLEXManager load]_block_invoke
+[FLEXManager sharedManager]
___28+[FLEXManager sharedManager]_block_invoke
-[FLEXManager init]
-[FLEXManager registerDefaultSimulatorShortcuts]
-[FLEXManager registerSimulatorShortcutWithKey:modifiers:action:description:]
+[FLEXKeyboardShortcutManager sharedManager]
___44+[FLEXKeyboardShortcutManager sharedManager]_block_invoke
-[FLEXKeyboardShortcutManager init]
-[FLEXKeyboardShortcutManager registerSimulatorShortcutWithKey:modifiers:action:description:]
+[FLEXKeyInput keyInputForKey:flags:helpDescription:]
-[FLEXKeyboardShortcutManager actionsForKeyInputs]
-[FLEXKeyInput hash]
-[FLEXKeyInput key]
-[FLEXKeyInput flags]
-[FLEXKeyInput copyWithZone:]
-[FLEXKeyInput helpDescription]
-[FLEXKeyInput .cxx_destruct]
-[FLEXKeyInput isEqual:]
___destroy_helper_block_e8_
___27+[FLEXNetworkObserver load]_block_invoke
+[FLEXNetworkObserver isEnabled]
___43+[NSObject(MemoryLeak) swizzleSEL:withSEL:]_block_invoke_2
+[FBAssociationManager hook]
__ZNSt3__110lock_guardINS_5mutexEEC1ERS1_
__ZNSt3__110lock_guardINS_5mutexEEC2ERS1_
_rcd_rebind_symbols
_rcd_prepend_rebindings
__rebind_symbols_for_image
_rebind_symbols_for_image
_rcd_perform_rebinding_with_section
_get_protection
__ZNSt3__110lock_guardINS_5mutexEED1Ev
__ZNSt3__110lock_guardINS_5mutexEED2Ev
___29+[YYTextKeyboardManager load]_block_invoke
+[YYTextKeyboardManager defaultManager]
___39+[YYTextKeyboardManager defaultManager]_block_invoke
_YYTextIsAppExtension
___YYTextIsAppExtension_block_invoke
-[YYTextKeyboardManager _init]
___35+[FLEXKeyboardShortcutManager load]_block_invoke_2
__ZN2FB18AssociationManagerL31fb_objc_removeAssociatedObjectsEP11objc_object
__ZN2FB18AssociationManager31_threadUnsafeRemoveAssociationsEP11objc_object
__ZNKSt3__113unordered_mapIP11objc_objectPNS_13unordered_setIPvNS_4hashIS4_EENS_8equal_toIS4_EENS_9allocatorIS4_EEEENS5_IS2_EENS7_IS2_EENS9_INS_4pairIKS2_SC_EEEEE4sizeEv
__ZNKSt3__112__hash_tableINS_17__hash_value_typeIP11objc_objectPNS_13unordered_setIPvNS_4hashIS5_EENS_8equal_toIS5_EENS_9allocatorIS5_EEEEEENS_22__unordered_map_hasherIS3_SE_NS6_IS3_EELb1EEENS_21__unordered_map_equalIS3_SE_NS8_IS3_EELb1EEENSA_ISE_EEE4sizeEv
__ZNKSt3__117__compressed_pairImNS_22__unordered_map_hasherIP11objc_objectNS_17__hash_value_typeIS3_PNS_13unordered_setIPvNS_4hashIS6_EENS_8equal_toIS6_EENS_9allocatorIS6_EEEEEENS7_IS3_EELb1EEEE5firstEv
_$s12AppContainer0A8DelegateC11application_29didFinishLaunchingWithOptionsSbSo13UIApplicationC_SDySo0j6LaunchI3KeyaypGSgtFTo
_$s12AppContainer0A8DelegateC11application_29didFinishLaunchingWithOptionsSbSo13UIApplicationC_SDySo0j6LaunchI3KeyaypGSgtF
_$s12AppContainer10TimeLoggerC6sharedACvau
_globalinit_33_D34C668261CE429F70BD4E620425FB58_func33
_$s12AppContainer10TimeLoggerCMa
_$s12AppContainer10TimeLoggerCACyc33_D34C668261CE429F70BD4E620425FB58LlfC
_$s12AppContainer10TimeLoggerCACyc33_D34C668261CE429F70BD4E620425FB58Llfc
_$s12AppContainer10TimeLoggerC8logBegin9eventNameyXlSS_tF
_$s12AppContainer10TimeLoggerC05startC8StampDic33_D34C668261CE429F70BD4E620425FB58LL23ThreadSafeDataStructure0P10DictionaryCySSSdGSgvg
_$s23ThreadSafeDataStructure0B10DictionaryCySSSdGSgWOh
_$s12AppContainer10TimeLoggerC6logger33_D34C668261CE429F70BD4E620425FB58LL16LKCommonsLogging3Log_pvau
_globalinit_33_D34C668261CE429F70BD4E620425FB58_func34
_$sSo8NSObjectCABycfC
_$sSo8NSObjectCABycfcTO
_$sS2Ss7CVarArg10FoundationWl
_$s12AppContainer0A8DelegateC15addNotification33_A10F17957E76F99798C8A73CAB9B0A16LL2toSDySo29UIApplicationLaunchOptionsKeyaypGSgAJ_tF
_$s12AppContainer12NotificationVMa
_$s12AppContainer12NotificationVwet
_$sSDySo29UIApplicationLaunchOptionsKeyaypGSgWOh
_$s12AppContainer20StartApplicationTaskCMa
_$s12AppContainer20StartApplicationTaskCMr
_$s12AppContainer20StartApplicationTaskCAC11BootManager12IdentifiableAAWl
_$s12AppContainer20StartApplicationTaskC11BootManager12IdentifiableAadEP8identifySSvgZTW
_$s12AppContainer20StartApplicationTaskC8identifySSvgZ
_$s12AppContainer20StartApplicationTaskC8identifySSvau
_globalinit_33_C78CC0F6425E50D2D26D42A0A2C6DA1D_func3
_$s11BootManagerAAC7contextAA06GlobalA7ContextCvg
_$s11BootManager06GlobalA7ContextC13launchOptionsSDySo019UIApplicationLaunchF3KeyaypGSgvsTj
_$s11BootManager06GlobalA7ContextC13launchOptionsSDySo019UIApplicationLaunchF3KeyaypGSgvs
_$s11BootManager06GlobalA7ContextC23blockDispatcherCallBackySbcSgvsTj
_$s11BootManager06GlobalA7ContextC23blockDispatcherCallBackySbcSgvs
_$sSo8UIWindowCABycfC
_$sSo8UIWindowCABycfcTO
__ZN2FB18AssociationManagerL27fb_objc_setAssociatedObjectEP11objc_objectPvS2_22objc_AssociationPolicy
__ZN2FB18AssociationManager33_threadUnsafeSetStrongAssociationEP11objc_objectPvS2_
__ZN2FB18AssociationManager34_threadUnsafeResetAssociationAtKeyEP11objc_objectPv
__ZNSt3__113unordered_mapIP11objc_objectPNS_13unordered_setIPvNS_4hashIS4_EENS_8equal_toIS4_EENS_9allocatorIS4_EEEENS5_IS2_EENS7_IS2_EENS9_INS_4pairIKS2_SC_EEEEE4findERSG_
__ZNSt3__112__hash_tableINS_17__hash_value_typeIP11objc_objectPNS_13unordered_setIPvNS_4hashIS5_EENS_8equal_toIS5_EENS_9allocatorIS5_EEEEEENS_22__unordered_map_hasherIS3_SE_NS6_IS3_EELb1EEENS_21__unordered_map_equalIS3_SE_NS8_IS3_EELb1EEENSA_ISE_EEE4findIS3_EENS_15__hash_iteratorIPNS_11__hash_nodeISE_S5_EEEERKT_
__ZNSt3__112__hash_tableINS_17__hash_value_typeIP11objc_objectPNS_13unordered_setIPvNS_4hashIS5_EENS_8equal_toIS5_EENS_9allocatorIS5_EEEEEENS_22__unordered_map_hasherIS3_SE_NS6_IS3_EELb1EEENS_21__unordered_map_equalIS3_SE_NS8_IS3_EELb1EEENSA_ISE_EEE13hash_functionEv
__ZNSt3__117__compressed_pairImNS_22__unordered_map_hasherIP11objc_objectNS_17__hash_value_typeIS3_PNS_13unordered_setIPvNS_4hashIS6_EENS_8equal_toIS6_EENS_9allocatorIS6_EEEEEENS7_IS3_EELb1EEEE6secondEv
__ZNSt3__122__compressed_pair_elemINS_22__unordered_map_hasherIP11objc_objectNS_17__hash_value_typeIS3_PNS_13unordered_setIPvNS_4hashIS6_EENS_8equal_toIS6_EENS_9allocatorIS6_EEEEEENS7_IS3_EELb1EEELi1ELb1EE5__getEv
__ZNKSt3__122__unordered_map_hasherIP11objc_objectNS_17__hash_value_typeIS2_PNS_13unordered_setIPvNS_4hashIS5_EENS_8equal_toIS5_EENS_9allocatorIS5_EEEEEENS6_IS2_EELb1EEclERKS2_
__ZNKSt3__14hashIP11objc_objectEclES2_
__ZNKSt3__112__hash_tableINS_17__hash_value_typeIP11objc_objectPNS_13unordered_setIPvNS_4hashIS5_EENS_8equal_toIS5_EENS_9allocatorIS5_EEEEEENS_22__unordered_map_hasherIS3_SE_NS6_IS3_EELb1EEENS_21__unordered_map_equalIS3_SE_NS8_IS3_EELb1EEENSA_ISE_EEE12bucket_countEv
__ZNKSt3__110unique_ptrIA_PNS_16__hash_node_baseIPNS_11__hash_nodeINS_17__hash_value_typeIP11objc_objectPNS_13unordered_setIPvNS_4hashIS7_EENS_8equal_toIS7_EENS_9allocatorIS7_EEEEEES7_EEEENS_25__bucket_list_deallocatorINSC_ISK_EEEEE11get_deleterEv
__ZNKSt3__117__compressed_pairIPPNS_16__hash_node_baseIPNS_11__hash_nodeINS_17__hash_value_typeIP11objc_objectPNS_13unordered_setIPvNS_4hashIS7_EENS_8equal_toIS7_EENS_9allocatorIS7_EEEEEES7_EEEENS_25__bucket_list_deallocatorINSC_ISK_EEEEE6secondEv
__ZNKSt3__122__compressed_pair_elemINS_25__bucket_list_deallocatorINS_9allocatorIPNS_16__hash_node_baseIPNS_11__hash_nodeINS_17__hash_value_typeIP11objc_objectPNS_13unordered_setIPvNS_4hashIS9_EENS_8equal_toIS9_EENS2_IS9_EEEEEES9_EEEEEEEELi1ELb0EE5__getEv
__ZNKSt3__125__bucket_list_deallocatorINS_9allocatorIPNS_16__hash_node_baseIPNS_11__hash_nodeINS_17__hash_value_typeIP11objc_objectPNS_13unordered_setIPvNS_4hashIS8_EENS_8equal_toIS8_EENS1_IS8_EEEEEES8_EEEEEEE4sizeEv
__ZNKSt3__117__compressed_pairImNS_9allocatorIPNS_16__hash_node_baseIPNS_11__hash_nodeINS_17__hash_value_typeIP11objc_objectPNS_13unordered_setIPvNS_4hashIS8_EENS_8equal_toIS8_EENS1_IS8_EEEEEES8_EEEEEEE5firstEv
__ZNSt3__112__hash_tableINS_17__hash_value_typeIP11objc_objectPNS_13unordered_setIPvNS_4hashIS5_EENS_8equal_toIS5_EENS_9allocatorIS5_EEEEEENS_22__unordered_map_hasherIS3_SE_NS6_IS3_EELb1EEENS_21__unordered_map_equalIS3_SE_NS8_IS3_EELb1EEENSA_ISE_EEE3endEv
__ZNSt3__115__hash_iteratorIPNS_11__hash_nodeINS_17__hash_value_typeIP11objc_objectPNS_13unordered_setIPvNS_4hashIS6_EENS_8equal_toIS6_EENS_9allocatorIS6_EEEEEES6_EEEC1EPNS_16__hash_node_baseISH_EE
__ZNSt3__115__hash_iteratorIPNS_11__hash_nodeINS_17__hash_value_typeIP11objc_objectPNS_13unordered_setIPvNS_4hashIS6_EENS_8equal_toIS6_EENS_9allocatorIS6_EEEEEES6_EEEC2EPNS_16__hash_node_baseISH_EE
__ZNSt3__119__hash_map_iteratorINS_15__hash_iteratorIPNS_11__hash_nodeINS_17__hash_value_typeIP11objc_objectPNS_13unordered_setIPvNS_4hashIS7_EENS_8equal_toIS7_EENS_9allocatorIS7_EEEEEES7_EEEEEC1ESJ_
__ZNSt3__119__hash_map_iteratorINS_15__hash_iteratorIPNS_11__hash_nodeINS_17__hash_value_typeIP11objc_objectPNS_13unordered_setIPvNS_4hashIS7_EENS_8equal_toIS7_EENS_9allocatorIS7_EEEEEES7_EEEEEC2ESJ_
__ZNSt3__113unordered_mapIP11objc_objectPNS_13unordered_setIPvNS_4hashIS4_EENS_8equal_toIS4_EENS_9allocatorIS4_EEEENS5_IS2_EENS7_IS2_EENS9_INS_4pairIKS2_SC_EEEEE3endEv
__ZNSt3__1eqERKNS_19__hash_map_iteratorINS_15__hash_iteratorIPNS_11__hash_nodeINS_17__hash_value_typeIP11objc_objectPNS_13unordered_setIPvNS_4hashIS7_EENS_8equal_toIS7_EENS_9allocatorIS7_EEEEEES7_EEEEEESM_
__ZNSt3__1eqERKNS_15__hash_iteratorIPNS_11__hash_nodeINS_17__hash_value_typeIP11objc_objectPNS_13unordered_setIPvNS_4hashIS6_EENS_8equal_toIS6_EENS_9allocatorIS6_EEEEEES6_EEEESK_
-[CALayer(crashProtect) my_setBounds:]
-[UIView(LarkMainThreadCheck) swizzlingForSetNeedsDisplay]
-[UIView(LarkMainThreadCheck) mainThreadCheck]
__Z22isValidOnCurrentThreadv
-[CALayer(LarkMainThreadCheck) swizzlingForSetNeedsLayout]
-[CALayer(LarkMainThreadCheck) mainThreadCheck]
__ZNSt3__1neERKNS_19__hash_map_iteratorINS_15__hash_iteratorIPNS_11__hash_nodeINS_17__hash_value_typeIP11objc_objectPNS_13unordered_setIPvNS_4hashIS7_EENS_8equal_toIS7_EENS_9allocatorIS7_EEEEEES7_EEEEEESM_
__ZNSt3__1neERKNS_15__hash_iteratorIPNS_11__hash_nodeINS_17__hash_value_typeIP11objc_objectPNS_13unordered_setIPvNS_4hashIS6_EENS_8equal_toIS6_EENS_9allocatorIS6_EEEEEES6_EEEESK_
__ZNSt3__113unordered_setIPvNS_4hashIS1_EENS_8equal_toIS1_EENS_9allocatorIS1_EEEC1Ev
__ZNSt3__113unordered_setIPvNS_4hashIS1_EENS_8equal_toIS1_EENS_9allocatorIS1_EEEC2Ev
__ZNSt3__112__hash_tableIPvNS_4hashIS1_EENS_8equal_toIS1_EENS_9allocatorIS1_EEEC1Ev
__ZNSt3__112__hash_tableIPvNS_4hashIS1_EENS_8equal_toIS1_EENS_9allocatorIS1_EEEC2Ev
__ZNSt3__110unique_ptrIA_PNS_16__hash_node_baseIPNS_11__hash_nodeIPvS3_EEEENS_25__bucket_list_deallocatorINS_9allocatorIS7_EEEEEC1ILb1EvEEv
__ZNSt3__110unique_ptrIA_PNS_16__hash_node_baseIPNS_11__hash_nodeIPvS3_EEEENS_25__bucket_list_deallocatorINS_9allocatorIS7_EEEEEC2ILb1EvEEv
__ZNSt3__117__compressed_pairIPPNS_16__hash_node_baseIPNS_11__hash_nodeIPvS3_EEEENS_25__bucket_list_deallocatorINS_9allocatorIS7_EEEEEC1IS8_NS_18__default_init_tagEEEOT_OT0_
__ZNSt3__117__compressed_pairIPPNS_16__hash_node_baseIPNS_11__hash_nodeIPvS3_EEEENS_25__bucket_list_deallocatorINS_9allocatorIS7_EEEEEC2IS8_NS_18__default_init_tagEEEOT_OT0_
__ZNSt3__1L7forwardIPPNS_16__hash_node_baseIPNS_11__hash_nodeIPvS3_EEEEEEOT_RNS_16remove_referenceIS9_E4typeE
__ZNSt3__122__compressed_pair_elemIPPNS_16__hash_node_baseIPNS_11__hash_nodeIPvS3_EEEELi0ELb0EEC2IS8_vEEOT_
__ZNSt3__122__compressed_pair_elemINS_25__bucket_list_deallocatorINS_9allocatorIPNS_16__hash_node_baseIPNS_11__hash_nodeIPvS5_EEEEEEEELi1ELb0EEC2ENS_18__default_init_tagE
__ZNSt3__125__bucket_list_deallocatorINS_9allocatorIPNS_16__hash_node_baseIPNS_11__hash_nodeIPvS4_EEEEEEEC1Ev
__ZNSt3__125__bucket_list_deallocatorINS_9allocatorIPNS_16__hash_node_baseIPNS_11__hash_nodeIPvS4_EEEEEEEC2Ev
__ZNSt3__117__compressed_pairImNS_9allocatorIPNS_16__hash_node_baseIPNS_11__hash_nodeIPvS4_EEEEEEEC1IiNS_18__default_init_tagEEEOT_OT0_
__ZNSt3__117__compressed_pairImNS_9allocatorIPNS_16__hash_node_baseIPNS_11__hash_nodeIPvS4_EEEEEEEC2IiNS_18__default_init_tagEEEOT_OT0_
__ZNSt3__122__compressed_pair_elemINS_9allocatorIPNS_16__hash_node_baseIPNS_11__hash_nodeIPvS4_EEEEEELi1ELb1EEC2ENS_18__default_init_tagE
__ZNSt3__19allocatorIPNS_16__hash_node_baseIPNS_11__hash_nodeIPvS3_EEEEEC2Ev
__ZNSt3__117__compressed_pairINS_16__hash_node_baseIPNS_11__hash_nodeIPvS3_EEEENS_9allocatorIS4_EEEC1ILb1EvEEv
__ZNSt3__117__compressed_pairINS_16__hash_node_baseIPNS_11__hash_nodeIPvS3_EEEENS_9allocatorIS4_EEEC2ILb1EvEEv
__ZNSt3__122__compressed_pair_elemINS_16__hash_node_baseIPNS_11__hash_nodeIPvS3_EEEELi0ELb0EEC2ENS_16__value_init_tagE
__ZNSt3__116__hash_node_baseIPNS_11__hash_nodeIPvS2_EEEC1Ev
__ZNSt3__116__hash_node_baseIPNS_11__hash_nodeIPvS2_EEEC2Ev
__ZNSt3__122__compressed_pair_elemINS_9allocatorINS_11__hash_nodeIPvS3_EEEELi1ELb1EEC2ENS_16__value_init_tagE
__ZNSt3__19allocatorINS_11__hash_nodeIPvS2_EEEC2Ev
__ZNSt3__117__compressed_pairImNS_4hashIPvEEEC1IiNS_18__default_init_tagEEEOT_OT0_
__ZNSt3__117__compressed_pairImNS_4hashIPvEEEC2IiNS_18__default_init_tagEEEOT_OT0_
__ZNSt3__122__compressed_pair_elemINS_4hashIPvEELi1ELb1EEC2ENS_18__default_init_tagE
__ZNSt3__117__compressed_pairIfNS_8equal_toIPvEEEC1IfNS_18__default_init_tagEEEOT_OT0_
__ZNSt3__117__compressed_pairIfNS_8equal_toIPvEEEC2IfNS_18__default_init_tagEEEOT_OT0_
__ZNSt3__122__compressed_pair_elemINS_8equal_toIPvEELi1ELb1EEC2ENS_18__default_init_tagE
__ZNSt3__113unordered_mapIP11objc_objectPNS_13unordered_setIPvNS_4hashIS4_EENS_8equal_toIS4_EENS_9allocatorIS4_EEEENS5_IS2_EENS7_IS2_EENS9_INS_4pairIKS2_SC_EEEEEixERSG_
__ZNSt3__1L16forward_as_tupleIJRKP11objc_objectEEENS_5tupleIJDpOT_EEES8_
__ZNSt3__1L7forwardIRKP11objc_objectEEOT_RNS_16remove_referenceIS5_E4typeE
__ZNSt3__15tupleIJRKP11objc_objectEEC1ILb1ELb0EEES4_
__ZNSt3__15tupleIJRKP11objc_objectEEC2ILb1ELb0EEES4_
__ZNSt3__112__tuple_implINS_15__tuple_indicesIJLm0EEEEJRKP11objc_objectEEC1IJLm0EEJS6_EJEJEJS6_EEENS1_IJXspT_EEEENS_13__tuple_typesIJDpT0_EEENS1_IJXspT1_EEEENSA_IJDpT2_EEEDpOT3_
__ZNSt3__112__tuple_implINS_15__tuple_indicesIJLm0EEEEJRKP11objc_objectEEC2IJLm0EEJS6_EJEJEJS6_EEENS1_IJXspT_EEEENS_13__tuple_typesIJDpT0_EEENS1_IJXspT1_EEEENSA_IJDpT2_EEEDpOT3_
__ZNSt3__112__tuple_leafILm0ERKP11objc_objectLb0EEC2IS4_vEEOT_
__ZNSt3__1L16forward_as_tupleIJEEENS_5tupleIJDpOT_EEES4_
__ZNSt3__112__hash_tableINS_17__hash_value_typeIP11objc_objectPNS_13unordered_setIPvNS_4hashIS5_EENS_8equal_toIS5_EENS_9allocatorIS5_EEEEEENS_22__unordered_map_hasherIS3_SE_NS6_IS3_EELb1EEENS_21__unordered_map_equalIS3_SE_NS8_IS3_EELb1EEENSA_ISE_EEE25__emplace_unique_key_argsIS3_JRKNS_21piecewise_construct_tENS_5tupleIJRKS3_EEENSR_IJEEEEEENS_4pairINS_15__hash_iteratorIPNS_11__hash_nodeISE_S5_EEEEbEERKT_DpOT0_
__ZNSt3__1L7forwardIRKNS_21piecewise_construct_tEEEOT_RNS_16remove_referenceIS4_E4typeE
__ZNSt3__1L7forwardINS_5tupleIJRKP11objc_objectEEEEEOT_RNS_16remove_referenceIS7_E4typeE
__ZNSt3__1L7forwardINS_5tupleIJEEEEEOT_RNS_16remove_referenceIS3_E4typeE
__ZNSt3__112__hash_tableINS_17__hash_value_typeIP11objc_objectPNS_13unordered_setIPvNS_4hashIS5_EENS_8equal_toIS5_EENS_9allocatorIS5_EEEEEENS_22__unordered_map_hasherIS3_SE_NS6_IS3_EELb1EEENS_21__unordered_map_equalIS3_SE_NS8_IS3_EELb1EEENSA_ISE_EEE21__construct_node_hashIRKNS_21piecewise_construct_tEJNS_5tupleIJRKS3_EEENSR_IJEEEEEENS_10unique_ptrINS_11__hash_nodeISE_S5_EENS_22__hash_node_destructorINSA_ISY_EEEEEEmOT_DpOT0_
__ZNSt3__112__hash_tableINS_17__hash_value_typeIP11objc_objectPNS_13unordered_setIPvNS_4hashIS5_EENS_8equal_toIS5_EENS_9allocatorIS5_EEEEEENS_22__unordered_map_hasherIS3_SE_NS6_IS3_EELb1EEENS_21__unordered_map_equalIS3_SE_NS8_IS3_EELb1EEENSA_ISE_EEE12__node_allocEv
__ZNSt3__117__compressed_pairINS_16__hash_node_baseIPNS_11__hash_nodeINS_17__hash_value_typeIP11objc_objectPNS_13unordered_setIPvNS_4hashIS7_EENS_8equal_toIS7_EENS_9allocatorIS7_EEEEEES7_EEEENSC_ISH_EEE6secondEv
__ZNSt3__122__compressed_pair_elemINS_9allocatorINS_11__hash_nodeINS_17__hash_value_typeIP11objc_objectPNS_13unordered_setIPvNS_4hashIS7_EENS_8equal_toIS7_EENS1_IS7_EEEEEES7_EEEELi1ELb1EE5__getEv
__ZNSt3__116allocator_traitsINS_9allocatorINS_11__hash_nodeINS_17__hash_value_typeIP11objc_objectPNS_13unordered_setIPvNS_4hashIS7_EENS_8equal_toIS7_EENS1_IS7_EEEEEES7_EEEEE8allocateERSH_m
__ZNSt3__19allocatorINS_11__hash_nodeINS_17__hash_value_typeIP11objc_objectPNS_13unordered_setIPvNS_4hashIS6_EENS_8equal_toIS6_EENS0_IS6_EEEEEES6_EEE8allocateEmPKv
__ZNKSt3__19allocatorINS_11__hash_nodeINS_17__hash_value_typeIP11objc_objectPNS_13unordered_setIPvNS_4hashIS6_EENS_8equal_toIS6_EENS0_IS6_EEEEEES6_EEE8max_sizeEv
__ZNSt3__122__hash_node_destructorINS_9allocatorINS_11__hash_nodeINS_17__hash_value_typeIP11objc_objectPNS_13unordered_setIPvNS_4hashIS7_EENS_8equal_toIS7_EENS1_IS7_EEEEEES7_EEEEEC1ERSH_b
__ZNSt3__122__hash_node_destructorINS_9allocatorINS_11__hash_nodeINS_17__hash_value_typeIP11objc_objectPNS_13unordered_setIPvNS_4hashIS7_EENS_8equal_toIS7_EENS1_IS7_EEEEEES7_EEEEEC2ERSH_b
__ZNSt3__110unique_ptrINS_11__hash_nodeINS_17__hash_value_typeIP11objc_objectPNS_13unordered_setIPvNS_4hashIS6_EENS_8equal_toIS6_EENS_9allocatorIS6_EEEEEES6_EENS_22__hash_node_destructorINSB_ISG_EEEEEC1ILb1EvEEPSG_NS_16__dependent_typeINS_27__unique_ptr_deleter_sfinaeISJ_EEXT_EE20__good_rval_ref_typeE
__ZNSt3__110unique_ptrINS_11__hash_nodeINS_17__hash_value_typeIP11objc_objectPNS_13unordered_setIPvNS_4hashIS6_EENS_8equal_toIS6_EENS_9allocatorIS6_EEEEEES6_EENS_22__hash_node_destructorINSB_ISG_EEEEEC2ILb1EvEEPSG_NS_16__dependent_typeINS_27__unique_ptr_deleter_sfinaeISJ_EEXT_EE20__good_rval_ref_typeE
__ZNSt3__1L4moveIRNS_22__hash_node_destructorINS_9allocatorINS_11__hash_nodeINS_17__hash_value_typeIP11objc_objectPNS_13unordered_setIPvNS_4hashIS8_EENS_8equal_toIS8_EENS2_IS8_EEEEEES8_EEEEEEEEONS_16remove_referenceIT_E4typeEOSM_
__ZNSt3__117__compressed_pairIPNS_11__hash_nodeINS_17__hash_value_typeIP11objc_objectPNS_13unordered_setIPvNS_4hashIS6_EENS_8equal_toIS6_EENS_9allocatorIS6_EEEEEES6_EENS_22__hash_node_destructorINSB_ISG_EEEEEC1IRSH_SK_EEOT_OT0_
__ZNSt3__117__compressed_pairIPNS_11__hash_nodeINS_17__hash_value_typeIP11objc_objectPNS_13unordered_setIPvNS_4hashIS6_EENS_8equal_toIS6_EENS_9allocatorIS6_EEEEEES6_EENS_22__hash_node_destructorINSB_ISG_EEEEEC2IRSH_SK_EEOT_OT0_
__ZNSt3__1L7forwardIRPNS_11__hash_nodeINS_17__hash_value_typeIP11objc_objectPNS_13unordered_setIPvNS_4hashIS6_EENS_8equal_toIS6_EENS_9allocatorIS6_EEEEEES6_EEEEOT_RNS_16remove_referenceISJ_E4typeE
__ZNSt3__122__compressed_pair_elemIPNS_11__hash_nodeINS_17__hash_value_typeIP11objc_objectPNS_13unordered_setIPvNS_4hashIS6_EENS_8equal_toIS6_EENS_9allocatorIS6_EEEEEES6_EELi0ELb0EEC2IRSH_vEEOT_
__ZNSt3__1L7forwardINS_22__hash_node_destructorINS_9allocatorINS_11__hash_nodeINS_17__hash_value_typeIP11objc_objectPNS_13unordered_setIPvNS_4hashIS8_EENS_8equal_toIS8_EENS2_IS8_EEEEEES8_EEEEEEEEOT_RNS_16remove_referenceISK_E4typeE
__ZNSt3__122__compressed_pair_elemINS_22__hash_node_destructorINS_9allocatorINS_11__hash_nodeINS_17__hash_value_typeIP11objc_objectPNS_13unordered_setIPvNS_4hashIS8_EENS_8equal_toIS8_EENS2_IS8_EEEEEES8_EEEEEELi1ELb0EEC2ISJ_vEEOT_
__ZNKSt3__110unique_ptrINS_11__hash_nodeINS_17__hash_value_typeIP11objc_objectPNS_13unordered_setIPvNS_4hashIS6_EENS_8equal_toIS6_EENS_9allocatorIS6_EEEEEES6_EENS_22__hash_node_destructorINSB_ISG_EEEEEptEv
__ZNKSt3__117__compressed_pairIPNS_11__hash_nodeINS_17__hash_value_typeIP11objc_objectPNS_13unordered_setIPvNS_4hashIS6_EENS_8equal_toIS6_EENS_9allocatorIS6_EEEEEES6_EENS_22__hash_node_destructorINSB_ISG_EEEEE5firstEv
__ZNKSt3__122__compressed_pair_elemIPNS_11__hash_nodeINS_17__hash_value_typeIP11objc_objectPNS_13unordered_setIPvNS_4hashIS6_EENS_8equal_toIS6_EENS_9allocatorIS6_EEEEEES6_EELi0ELb0EE5__getEv
__ZNSt3__122__hash_key_value_typesINS_17__hash_value_typeIP11objc_objectPNS_13unordered_setIPvNS_4hashIS5_EENS_8equal_toIS5_EENS_9allocatorIS5_EEEEEEE9__get_ptrERSE_
__ZNSt3__117__hash_value_typeIP11objc_objectPNS_13unordered_setIPvNS_4hashIS4_EENS_8equal_toIS4_EENS_9allocatorIS4_EEEEE11__get_valueEv
__ZNSt3__1L9addressofINS_4pairIKP11objc_objectPNS_13unordered_setIPvNS_4hashIS6_EENS_8equal_toIS6_EENS_9allocatorIS6_EEEEEEEEPT_RSG_
__ZNSt3__116allocator_traitsINS_9allocatorINS_11__hash_nodeINS_17__hash_value_typeIP11objc_objectPNS_13unordered_setIPvNS_4hashIS7_EENS_8equal_toIS7_EENS1_IS7_EEEEEES7_EEEEE9constructINS_4pairIKS5_SE_EEJRKNS_21piecewise_construct_tENS_5tupleIJRSL_EEENSQ_IJEEEEEEvRSH_PT_DpOT0_
__ZNSt3__116allocator_traitsINS_9allocatorINS_11__hash_nodeINS_17__hash_value_typeIP11objc_objectPNS_13unordered_setIPvNS_4hashIS7_EENS_8equal_toIS7_EENS1_IS7_EEEEEES7_EEEEE11__constructINS_4pairIKS5_SE_EEJRKNS_21piecewise_construct_tENS_5tupleIJRSL_EEENSQ_IJEEEEEEvNS_17integral_constantIbLb1EEERSH_PT_DpOT0_
__ZNSt3__19allocatorINS_11__hash_nodeINS_17__hash_value_typeIP11objc_objectPNS_13unordered_setIPvNS_4hashIS6_EENS_8equal_toIS6_EENS0_IS6_EEEEEES6_EEE9constructINS_4pairIKS4_SD_EEJRKNS_21piecewise_construct_tENS_5tupleIJRSJ_EEENSO_IJEEEEEEvPT_DpOT0_
__ZNSt3__14pairIKP11objc_objectPNS_13unordered_setIPvNS_4hashIS5_EENS_8equal_toIS5_EENS_9allocatorIS5_EEEEEC1IJRS3_EJEEENS_21piecewise_construct_tENS_5tupleIJDpT_EEENSI_IJDpT0_EEE
__ZNSt3__14pairIKP11objc_objectPNS_13unordered_setIPvNS_4hashIS5_EENS_8equal_toIS5_EENS_9allocatorIS5_EEEEEC1IJRS3_EJEJLm0EEJEEENS_21piecewise_construct_tERNS_5tupleIJDpT_EEERNSI_IJDpT0_EEENS_15__tuple_indicesIJXspT1_EEEENSR_IJXspT2_EEEE
__ZNSt3__14pairIKP11objc_objectPNS_13unordered_setIPvNS_4hashIS5_EENS_8equal_toIS5_EENS_9allocatorIS5_EEEEEC2IJRS3_EJEJLm0EEJEEENS_21piecewise_construct_tERNS_5tupleIJDpT_EEERNSI_IJDpT0_EEENS_15__tuple_indicesIJXspT1_EEEENSR_IJXspT2_EEEE
__ZNSt3__1L3getILm0EJRKP11objc_objectEEERNS_13tuple_elementIXT_ENS_5tupleIJDpT0_EEEE4typeERS9_
__ZNSt3__112__tuple_leafILm0ERKP11objc_objectLb0EE3getEv
__ZNSt3__110unique_ptrINS_11__hash_nodeINS_17__hash_value_typeIP11objc_objectPNS_13unordered_setIPvNS_4hashIS6_EENS_8equal_toIS6_EENS_9allocatorIS6_EEEEEES6_EENS_22__hash_node_destructorINSB_ISG_EEEEE11get_deleterEv
__ZNSt3__117__compressed_pairIPNS_11__hash_nodeINS_17__hash_value_typeIP11objc_objectPNS_13unordered_setIPvNS_4hashIS6_EENS_8equal_toIS6_EENS_9allocatorIS6_EEEEEES6_EENS_22__hash_node_destructorINSB_ISG_EEEEE6secondEv
__ZNSt3__122__compressed_pair_elemINS_22__hash_node_destructorINS_9allocatorINS_11__hash_nodeINS_17__hash_value_typeIP11objc_objectPNS_13unordered_setIPvNS_4hashIS8_EENS_8equal_toIS8_EENS2_IS8_EEEEEES8_EEEEEELi1ELb0EE5__getEv
__ZNSt3__112__hash_tableINS_17__hash_value_typeIP11objc_objectPNS_13unordered_setIPvNS_4hashIS5_EENS_8equal_toIS5_EENS_9allocatorIS5_EEEEEENS_22__unordered_map_hasherIS3_SE_NS6_IS3_EELb1EEENS_21__unordered_map_equalIS3_SE_NS8_IS3_EELb1EEENSA_ISE_EEE4sizeEv
__ZNSt3__117__compressed_pairImNS_22__unordered_map_hasherIP11objc_objectNS_17__hash_value_typeIS3_PNS_13unordered_setIPvNS_4hashIS6_EENS_8equal_toIS6_EENS_9allocatorIS6_EEEEEENS7_IS3_EELb1EEEE5firstEv
__ZNSt3__112__hash_tableINS_17__hash_value_typeIP11objc_objectPNS_13unordered_setIPvNS_4hashIS5_EENS_8equal_toIS5_EENS_9allocatorIS5_EEEEEENS_22__unordered_map_hasherIS3_SE_NS6_IS3_EELb1EEENS_21__unordered_map_equalIS3_SE_NS8_IS3_EELb1EEENSA_ISE_EEE15max_load_factorEv
__ZNSt3__117__compressed_pairIfNS_21__unordered_map_equalIP11objc_objectNS_17__hash_value_typeIS3_PNS_13unordered_setIPvNS_4hashIS6_EENS_8equal_toIS6_EENS_9allocatorIS6_EEEEEENS9_IS3_EELb1EEEE5firstEv
__ZNSt3__112__hash_tableINS_17__hash_value_typeIP11objc_objectPNS_13unordered_setIPvNS_4hashIS5_EENS_8equal_toIS5_EENS_9allocatorIS5_EEEEEENS_22__unordered_map_hasherIS3_SE_NS6_IS3_EELb1EEENS_21__unordered_map_equalIS3_SE_NS8_IS3_EELb1EEENSA_ISE_EEE6rehashEm
__ZNSt3__112__hash_tableINS_17__hash_value_typeIP11objc_objectPNS_13unordered_setIPvNS_4hashIS5_EENS_8equal_toIS5_EENS_9allocatorIS5_EEEEEENS_22__unordered_map_hasherIS3_SE_NS6_IS3_EELb1EEENS_21__unordered_map_equalIS3_SE_NS8_IS3_EELb1EEENSA_ISE_EEE8__rehashEm
__ZNSt3__110unique_ptrIA_PNS_16__hash_node_baseIPNS_11__hash_nodeINS_17__hash_value_typeIP11objc_objectPNS_13unordered_setIPvNS_4hashIS7_EENS_8equal_toIS7_EENS_9allocatorIS7_EEEEEES7_EEEENS_25__bucket_list_deallocatorINSC_ISK_EEEEE11get_deleterEv
__ZNSt3__117__compressed_pairIPPNS_16__hash_node_baseIPNS_11__hash_nodeINS_17__hash_value_typeIP11objc_objectPNS_13unordered_setIPvNS_4hashIS7_EENS_8equal_toIS7_EENS_9allocatorIS7_EEEEEES7_EEEENS_25__bucket_list_deallocatorINSC_ISK_EEEEE6secondEv
__ZNSt3__122__compressed_pair_elemINS_25__bucket_list_deallocatorINS_9allocatorIPNS_16__hash_node_baseIPNS_11__hash_nodeINS_17__hash_value_typeIP11objc_objectPNS_13unordered_setIPvNS_4hashIS9_EENS_8equal_toIS9_EENS2_IS9_EEEEEES9_EEEEEEEELi1ELb0EE5__getEv
__ZNSt3__125__bucket_list_deallocatorINS_9allocatorIPNS_16__hash_node_baseIPNS_11__hash_nodeINS_17__hash_value_typeIP11objc_objectPNS_13unordered_setIPvNS_4hashIS8_EENS_8equal_toIS8_EENS1_IS8_EEEEEES8_EEEEEEE7__allocEv
__ZNSt3__117__compressed_pairImNS_9allocatorIPNS_16__hash_node_baseIPNS_11__hash_nodeINS_17__hash_value_typeIP11objc_objectPNS_13unordered_setIPvNS_4hashIS8_EENS_8equal_toIS8_EENS1_IS8_EEEEEES8_EEEEEEE6secondEv
__ZNSt3__122__compressed_pair_elemINS_9allocatorIPNS_16__hash_node_baseIPNS_11__hash_nodeINS_17__hash_value_typeIP11objc_objectPNS_13unordered_setIPvNS_4hashIS8_EENS_8equal_toIS8_EENS1_IS8_EEEEEES8_EEEEEELi1ELb1EE5__getEv
__ZNSt3__116allocator_traitsINS_9allocatorIPNS_16__hash_node_baseIPNS_11__hash_nodeINS_17__hash_value_typeIP11objc_objectPNS_13unordered_setIPvNS_4hashIS8_EENS_8equal_toIS8_EENS1_IS8_EEEEEES8_EEEEEEE8allocateERSL_m
__ZNSt3__19allocatorIPNS_16__hash_node_baseIPNS_11__hash_nodeINS_17__hash_value_typeIP11objc_objectPNS_13unordered_setIPvNS_4hashIS7_EENS_8equal_toIS7_EENS0_IS7_EEEEEES7_EEEEE8allocateEmPKv
__ZNKSt3__19allocatorIPNS_16__hash_node_baseIPNS_11__hash_nodeINS_17__hash_value_typeIP11objc_objectPNS_13unordered_setIPvNS_4hashIS7_EENS_8equal_toIS7_EENS0_IS7_EEEEEES7_EEEEE8max_sizeEv
__ZNSt3__110unique_ptrIA_PNS_16__hash_node_baseIPNS_11__hash_nodeINS_17__hash_value_typeIP11objc_objectPNS_13unordered_setIPvNS_4hashIS7_EENS_8equal_toIS7_EENS_9allocatorIS7_EEEEEES7_EEEENS_25__bucket_list_deallocatorINSC_ISK_EEEEE5resetIPSK_EENS_9enable_ifIXsr28_CheckArrayPointerConversionIT_EE5valueEvE4typeEST_
__ZNSt3__117__compressed_pairIPPNS_16__hash_node_baseIPNS_11__hash_nodeINS_17__hash_value_typeIP11objc_objectPNS_13unordered_setIPvNS_4hashIS7_EENS_8equal_toIS7_EENS_9allocatorIS7_EEEEEES7_EEEENS_25__bucket_list_deallocatorINSC_ISK_EEEEE5firstEv
__ZNSt3__122__compressed_pair_elemIPPNS_16__hash_node_baseIPNS_11__hash_nodeINS_17__hash_value_typeIP11objc_objectPNS_13unordered_setIPvNS_4hashIS7_EENS_8equal_toIS7_EENS_9allocatorIS7_EEEEEES7_EEEELi0ELb0EE5__getEv
__ZNSt3__125__bucket_list_deallocatorINS_9allocatorIPNS_16__hash_node_baseIPNS_11__hash_nodeINS_17__hash_value_typeIP11objc_objectPNS_13unordered_setIPvNS_4hashIS8_EENS_8equal_toIS8_EENS1_IS8_EEEEEES8_EEEEEEE4sizeEv
__ZNSt3__117__compressed_pairImNS_9allocatorIPNS_16__hash_node_baseIPNS_11__hash_nodeINS_17__hash_value_typeIP11objc_objectPNS_13unordered_setIPvNS_4hashIS8_EENS_8equal_toIS8_EENS1_IS8_EEEEEES8_EEEEEEE5firstEv
__ZNKSt3__110unique_ptrIA_PNS_16__hash_node_baseIPNS_11__hash_nodeINS_17__hash_value_typeIP11objc_objectPNS_13unordered_setIPvNS_4hashIS7_EENS_8equal_toIS7_EENS_9allocatorIS7_EEEEEES7_EEEENS_25__bucket_list_deallocatorINSC_ISK_EEEEEixEm
__ZNKSt3__117__compressed_pairIPPNS_16__hash_node_baseIPNS_11__hash_nodeINS_17__hash_value_typeIP11objc_objectPNS_13unordered_setIPvNS_4hashIS7_EENS_8equal_toIS7_EENS_9allocatorIS7_EEEEEES7_EEEENS_25__bucket_list_deallocatorINSC_ISK_EEEEE5firstEv
__ZNKSt3__122__compressed_pair_elemIPPNS_16__hash_node_baseIPNS_11__hash_nodeINS_17__hash_value_typeIP11objc_objectPNS_13unordered_setIPvNS_4hashIS7_EENS_8equal_toIS7_EENS_9allocatorIS7_EEEEEES7_EEEELi0ELb0EE5__getEv
__ZNSt3__117__compressed_pairINS_16__hash_node_baseIPNS_11__hash_nodeINS_17__hash_value_typeIP11objc_objectPNS_13unordered_setIPvNS_4hashIS7_EENS_8equal_toIS7_EENS_9allocatorIS7_EEEEEES7_EEEENSC_ISH_EEE5firstEv
__ZNSt3__122__compressed_pair_elemINS_16__hash_node_baseIPNS_11__hash_nodeINS_17__hash_value_typeIP11objc_objectPNS_13unordered_setIPvNS_4hashIS7_EENS_8equal_toIS7_EENS_9allocatorIS7_EEEEEES7_EEEELi0ELb0EE5__getEv
__ZNSt3__116__hash_node_baseIPNS_11__hash_nodeINS_17__hash_value_typeIP11objc_objectPNS_13unordered_setIPvNS_4hashIS6_EENS_8equal_toIS6_EENS_9allocatorIS6_EEEEEES6_EEE5__ptrEv
__ZNSt3__114pointer_traitsIPNS_16__hash_node_baseIPNS_11__hash_nodeINS_17__hash_value_typeIP11objc_objectPNS_13unordered_setIPvNS_4hashIS7_EENS_8equal_toIS7_EENS_9allocatorIS7_EEEEEES7_EEEEE10pointer_toERSJ_
__ZNSt3__1L9addressofINS_16__hash_node_baseIPNS_11__hash_nodeINS_17__hash_value_typeIP11objc_objectPNS_13unordered_setIPvNS_4hashIS7_EENS_8equal_toIS7_EENS_9allocatorIS7_EEEEEES7_EEEEEEPT_RSK_
__ZNKSt3__110unique_ptrINS_11__hash_nodeINS_17__hash_value_typeIP11objc_objectPNS_13unordered_setIPvNS_4hashIS6_EENS_8equal_toIS6_EENS_9allocatorIS6_EEEEEES6_EENS_22__hash_node_destructorINSB_ISG_EEEEE3getEv
__ZNSt3__110unique_ptrINS_11__hash_nodeINS_17__hash_value_typeIP11objc_objectPNS_13unordered_setIPvNS_4hashIS6_EENS_8equal_toIS6_EENS_9allocatorIS6_EEEEEES6_EENS_22__hash_node_destructorINSB_ISG_EEEEE7releaseEv
__ZNSt3__117__compressed_pairIPNS_11__hash_nodeINS_17__hash_value_typeIP11objc_objectPNS_13unordered_setIPvNS_4hashIS6_EENS_8equal_toIS6_EENS_9allocatorIS6_EEEEEES6_EENS_22__hash_node_destructorINSB_ISG_EEEEE5firstEv
__ZNSt3__122__compressed_pair_elemIPNS_11__hash_nodeINS_17__hash_value_typeIP11objc_objectPNS_13unordered_setIPvNS_4hashIS6_EENS_8equal_toIS6_EENS_9allocatorIS6_EEEEEES6_EELi0ELb0EE5__getEv
__ZNSt3__110unique_ptrINS_11__hash_nodeINS_17__hash_value_typeIP11objc_objectPNS_13unordered_setIPvNS_4hashIS6_EENS_8equal_toIS6_EENS_9allocatorIS6_EEEEEES6_EENS_22__hash_node_destructorINSB_ISG_EEEEED1Ev
__ZNSt3__110unique_ptrINS_11__hash_nodeINS_17__hash_value_typeIP11objc_objectPNS_13unordered_setIPvNS_4hashIS6_EENS_8equal_toIS6_EENS_9allocatorIS6_EEEEEES6_EENS_22__hash_node_destructorINSB_ISG_EEEEED2Ev
__ZNSt3__110unique_ptrINS_11__hash_nodeINS_17__hash_value_typeIP11objc_objectPNS_13unordered_setIPvNS_4hashIS6_EENS_8equal_toIS6_EENS_9allocatorIS6_EEEEEES6_EENS_22__hash_node_destructorINSB_ISG_EEEEE5resetEPSG_
__ZNSt3__14pairINS_15__hash_iteratorIPNS_11__hash_nodeINS_17__hash_value_typeIP11objc_objectPNS_13unordered_setIPvNS_4hashIS7_EENS_8equal_toIS7_EENS_9allocatorIS7_EEEEEES7_EEEEbEC1ISJ_RbLb0EEEOT_OT0_
__ZNSt3__14pairINS_15__hash_iteratorIPNS_11__hash_nodeINS_17__hash_value_typeIP11objc_objectPNS_13unordered_setIPvNS_4hashIS7_EENS_8equal_toIS7_EENS_9allocatorIS7_EEEEEES7_EEEEbEC2ISJ_RbLb0EEEOT_OT0_
__ZNSt3__1L7forwardINS_15__hash_iteratorIPNS_11__hash_nodeINS_17__hash_value_typeIP11objc_objectPNS_13unordered_setIPvNS_4hashIS7_EENS_8equal_toIS7_EENS_9allocatorIS7_EEEEEES7_EEEEEEOT_RNS_16remove_referenceISK_E4typeE
__ZNKSt3__115__hash_iteratorIPNS_11__hash_nodeINS_17__hash_value_typeIP11objc_objectPNS_13unordered_setIPvNS_4hashIS6_EENS_8equal_toIS6_EENS_9allocatorIS6_EEEEEES6_EEEptEv
__ZNSt3__116__hash_node_baseIPNS_11__hash_nodeINS_17__hash_value_typeIP11objc_objectPNS_13unordered_setIPvNS_4hashIS6_EENS_8equal_toIS6_EENS_9allocatorIS6_EEEEEES6_EEE8__upcastEv
__ZNSt3__114pointer_traitsIPNS_17__hash_value_typeIP11objc_objectPNS_13unordered_setIPvNS_4hashIS5_EENS_8equal_toIS5_EENS_9allocatorIS5_EEEEEEE10pointer_toERSE_
__ZNSt3__1L9addressofINS_17__hash_value_typeIP11objc_objectPNS_13unordered_setIPvNS_4hashIS5_EENS_8equal_toIS5_EENS_9allocatorIS5_EEEEEEEEPT_RSF_
__ZNSt3__113unordered_setIPvNS_4hashIS1_EENS_8equal_toIS1_EENS_9allocatorIS1_EEE6insertERKS1_
__ZNSt3__112__hash_tableIPvNS_4hashIS1_EENS_8equal_toIS1_EENS_9allocatorIS1_EEE15__insert_uniqueERKS1_
__ZNSt3__122__hash_key_value_typesIPvE9__get_keyERKS1_
__ZNSt3__112__hash_tableIPvNS_4hashIS1_EENS_8equal_toIS1_EENS_9allocatorIS1_EEE25__emplace_unique_key_argsIS1_JRKS1_EEENS_4pairINS_15__hash_iteratorIPNS_11__hash_nodeIS1_S1_EEEEbEERKT_DpOT0_
__ZNSt3__112__hash_tableIPvNS_4hashIS1_EENS_8equal_toIS1_EENS_9allocatorIS1_EEE13hash_functionEv
__ZNSt3__117__compressed_pairImNS_4hashIPvEEE6secondEv
__ZNSt3__122__compressed_pair_elemINS_4hashIPvEELi1ELb1EE5__getEv
__ZNKSt3__14hashIPvEclES1_
__ZNKSt3__112__hash_tableIPvNS_4hashIS1_EENS_8equal_toIS1_EENS_9allocatorIS1_EEE12bucket_countEv
__ZNKSt3__110unique_ptrIA_PNS_16__hash_node_baseIPNS_11__hash_nodeIPvS3_EEEENS_25__bucket_list_deallocatorINS_9allocatorIS7_EEEEE11get_deleterEv
__ZNKSt3__117__compressed_pairIPPNS_16__hash_node_baseIPNS_11__hash_nodeIPvS3_EEEENS_25__bucket_list_deallocatorINS_9allocatorIS7_EEEEE6secondEv
__ZNKSt3__122__compressed_pair_elemINS_25__bucket_list_deallocatorINS_9allocatorIPNS_16__hash_node_baseIPNS_11__hash_nodeIPvS5_EEEEEEEELi1ELb0EE5__getEv
__ZNKSt3__125__bucket_list_deallocatorINS_9allocatorIPNS_16__hash_node_baseIPNS_11__hash_nodeIPvS4_EEEEEEE4sizeEv
__ZNKSt3__117__compressed_pairImNS_9allocatorIPNS_16__hash_node_baseIPNS_11__hash_nodeIPvS4_EEEEEEE5firstEv
__ZNSt3__1L7forwardIRKPvEEOT_RNS_16remove_referenceIS4_E4typeE
__ZNSt3__112__hash_tableIPvNS_4hashIS1_EENS_8equal_toIS1_EENS_9allocatorIS1_EEE21__construct_node_hashIRKS1_JEEENS_10unique_ptrINS_11__hash_nodeIS1_S1_EENS_22__hash_node_destructorINS6_ISE_EEEEEEmOT_DpOT0_
__ZNSt3__112__hash_tableIPvNS_4hashIS1_EENS_8equal_toIS1_EENS_9allocatorIS1_EEE12__node_allocEv
__ZNSt3__117__compressed_pairINS_16__hash_node_baseIPNS_11__hash_nodeIPvS3_EEEENS_9allocatorIS4_EEE6secondEv
__ZNSt3__122__compressed_pair_elemINS_9allocatorINS_11__hash_nodeIPvS3_EEEELi1ELb1EE5__getEv
__ZNSt3__116allocator_traitsINS_9allocatorINS_11__hash_nodeIPvS3_EEEEE8allocateERS5_m
__ZNSt3__19allocatorINS_11__hash_nodeIPvS2_EEE8allocateEmPKv
__ZNKSt3__19allocatorINS_11__hash_nodeIPvS2_EEE8max_sizeEv
__ZNSt3__122__hash_node_destructorINS_9allocatorINS_11__hash_nodeIPvS3_EEEEEC1ERS5_b
__ZNSt3__122__hash_node_destructorINS_9allocatorINS_11__hash_nodeIPvS3_EEEEEC2ERS5_b
__ZNSt3__110unique_ptrINS_11__hash_nodeIPvS2_EENS_22__hash_node_destructorINS_9allocatorIS3_EEEEEC1ILb1EvEEPS3_NS_16__dependent_typeINS_27__unique_ptr_deleter_sfinaeIS7_EEXT_EE20__good_rval_ref_typeE
__ZNSt3__110unique_ptrINS_11__hash_nodeIPvS2_EENS_22__hash_node_destructorINS_9allocatorIS3_EEEEEC2ILb1EvEEPS3_NS_16__dependent_typeINS_27__unique_ptr_deleter_sfinaeIS7_EEXT_EE20__good_rval_ref_typeE
__ZNSt3__1L4moveIRNS_22__hash_node_destructorINS_9allocatorINS_11__hash_nodeIPvS4_EEEEEEEEONS_16remove_referenceIT_E4typeEOSA_
__ZNSt3__117__compressed_pairIPNS_11__hash_nodeIPvS2_EENS_22__hash_node_destructorINS_9allocatorIS3_EEEEEC1IRS4_S8_EEOT_OT0_
__ZNSt3__117__compressed_pairIPNS_11__hash_nodeIPvS2_EENS_22__hash_node_destructorINS_9allocatorIS3_EEEEEC2IRS4_S8_EEOT_OT0_
__ZNSt3__1L7forwardIRPNS_11__hash_nodeIPvS2_EEEEOT_RNS_16remove_referenceIS6_E4typeE
__ZNSt3__122__compressed_pair_elemIPNS_11__hash_nodeIPvS2_EELi0ELb0EEC2IRS4_vEEOT_
__ZNSt3__1L7forwardINS_22__hash_node_destructorINS_9allocatorINS_11__hash_nodeIPvS4_EEEEEEEEOT_RNS_16remove_referenceIS8_E4typeE
__ZNSt3__122__compressed_pair_elemINS_22__hash_node_destructorINS_9allocatorINS_11__hash_nodeIPvS4_EEEEEELi1ELb0EEC2IS7_vEEOT_
__ZNKSt3__110unique_ptrINS_11__hash_nodeIPvS2_EENS_22__hash_node_destructorINS_9allocatorIS3_EEEEEptEv
__ZNKSt3__117__compressed_pairIPNS_11__hash_nodeIPvS2_EENS_22__hash_node_destructorINS_9allocatorIS3_EEEEE5firstEv
__ZNKSt3__122__compressed_pair_elemIPNS_11__hash_nodeIPvS2_EELi0ELb0EE5__getEv
__ZNSt3__122__hash_key_value_typesIPvE9__get_ptrERS1_
__ZNSt3__1L9addressofIPvEEPT_RS2_
__ZNSt3__116allocator_traitsINS_9allocatorINS_11__hash_nodeIPvS3_EEEEE9constructIS3_JRKS3_EEEvRS5_PT_DpOT0_
__ZNSt3__116allocator_traitsINS_9allocatorINS_11__hash_nodeIPvS3_EEEEE11__constructIS3_JRKS3_EEEvNS_17integral_constantIbLb1EEERS5_PT_DpOT0_
__ZNSt3__19allocatorINS_11__hash_nodeIPvS2_EEE9constructIS2_JRKS2_EEEvPT_DpOT0_
__ZNSt3__110unique_ptrINS_11__hash_nodeIPvS2_EENS_22__hash_node_destructorINS_9allocatorIS3_EEEEE11get_deleterEv
__ZNSt3__117__compressed_pairIPNS_11__hash_nodeIPvS2_EENS_22__hash_node_destructorINS_9allocatorIS3_EEEEE6secondEv
__ZNSt3__122__compressed_pair_elemINS_22__hash_node_destructorINS_9allocatorINS_11__hash_nodeIPvS4_EEEEEELi1ELb0EE5__getEv
__ZNSt3__112__hash_tableIPvNS_4hashIS1_EENS_8equal_toIS1_EENS_9allocatorIS1_EEE4sizeEv
__ZNSt3__117__compressed_pairImNS_4hashIPvEEE5firstEv
__ZNSt3__112__hash_tableIPvNS_4hashIS1_EENS_8equal_toIS1_EENS_9allocatorIS1_EEE15max_load_factorEv
__ZNSt3__117__compressed_pairIfNS_8equal_toIPvEEE5firstEv
__ZNSt3__112__hash_tableIPvNS_4hashIS1_EENS_8equal_toIS1_EENS_9allocatorIS1_EEE6rehashEm
__ZNSt3__112__hash_tableIPvNS_4hashIS1_EENS_8equal_toIS1_EENS_9allocatorIS1_EEE8__rehashEm
__ZNSt3__110unique_ptrIA_PNS_16__hash_node_baseIPNS_11__hash_nodeIPvS3_EEEENS_25__bucket_list_deallocatorINS_9allocatorIS7_EEEEE11get_deleterEv
__ZNSt3__117__compressed_pairIPPNS_16__hash_node_baseIPNS_11__hash_nodeIPvS3_EEEENS_25__bucket_list_deallocatorINS_9allocatorIS7_EEEEE6secondEv
__ZNSt3__122__compressed_pair_elemINS_25__bucket_list_deallocatorINS_9allocatorIPNS_16__hash_node_baseIPNS_11__hash_nodeIPvS5_EEEEEEEELi1ELb0EE5__getEv
__ZNSt3__125__bucket_list_deallocatorINS_9allocatorIPNS_16__hash_node_baseIPNS_11__hash_nodeIPvS4_EEEEEEE7__allocEv
__ZNSt3__117__compressed_pairImNS_9allocatorIPNS_16__hash_node_baseIPNS_11__hash_nodeIPvS4_EEEEEEE6secondEv
__ZNSt3__122__compressed_pair_elemINS_9allocatorIPNS_16__hash_node_baseIPNS_11__hash_nodeIPvS4_EEEEEELi1ELb1EE5__getEv
__ZNSt3__116allocator_traitsINS_9allocatorIPNS_16__hash_node_baseIPNS_11__hash_nodeIPvS4_EEEEEEE8allocateERS9_m
__ZNSt3__19allocatorIPNS_16__hash_node_baseIPNS_11__hash_nodeIPvS3_EEEEE8allocateEmPKv
__ZNKSt3__19allocatorIPNS_16__hash_node_baseIPNS_11__hash_nodeIPvS3_EEEEE8max_sizeEv
__ZNSt3__110unique_ptrIA_PNS_16__hash_node_baseIPNS_11__hash_nodeIPvS3_EEEENS_25__bucket_list_deallocatorINS_9allocatorIS7_EEEEE5resetIPS7_EENS_9enable_ifIXsr28_CheckArrayPointerConversionIT_EE5valueEvE4typeESH_
__ZNSt3__117__compressed_pairIPPNS_16__hash_node_baseIPNS_11__hash_nodeIPvS3_EEEENS_25__bucket_list_deallocatorINS_9allocatorIS7_EEEEE5firstEv
__ZNSt3__122__compressed_pair_elemIPPNS_16__hash_node_baseIPNS_11__hash_nodeIPvS3_EEEELi0ELb0EE5__getEv
__ZNSt3__125__bucket_list_deallocatorINS_9allocatorIPNS_16__hash_node_baseIPNS_11__hash_nodeIPvS4_EEEEEEE4sizeEv
__ZNSt3__117__compressed_pairImNS_9allocatorIPNS_16__hash_node_baseIPNS_11__hash_nodeIPvS4_EEEEEEE5firstEv
__ZNKSt3__110unique_ptrIA_PNS_16__hash_node_baseIPNS_11__hash_nodeIPvS3_EEEENS_25__bucket_list_deallocatorINS_9allocatorIS7_EEEEEixEm
__ZNKSt3__117__compressed_pairIPPNS_16__hash_node_baseIPNS_11__hash_nodeIPvS3_EEEENS_25__bucket_list_deallocatorINS_9allocatorIS7_EEEEE5firstEv
__ZNKSt3__122__compressed_pair_elemIPPNS_16__hash_node_baseIPNS_11__hash_nodeIPvS3_EEEELi0ELb0EE5__getEv
__ZNSt3__117__compressed_pairINS_16__hash_node_baseIPNS_11__hash_nodeIPvS3_EEEENS_9allocatorIS4_EEE5firstEv
__ZNSt3__122__compressed_pair_elemINS_16__hash_node_baseIPNS_11__hash_nodeIPvS3_EEEELi0ELb0EE5__getEv
__ZNSt3__116__hash_node_baseIPNS_11__hash_nodeIPvS2_EEE5__ptrEv
__ZNSt3__114pointer_traitsIPNS_16__hash_node_baseIPNS_11__hash_nodeIPvS3_EEEEE10pointer_toERS6_
__ZNSt3__1L9addressofINS_16__hash_node_baseIPNS_11__hash_nodeIPvS3_EEEEEEPT_RS7_
__ZNKSt3__110unique_ptrINS_11__hash_nodeIPvS2_EENS_22__hash_node_destructorINS_9allocatorIS3_EEEEE3getEv
__ZNSt3__110unique_ptrINS_11__hash_nodeIPvS2_EENS_22__hash_node_destructorINS_9allocatorIS3_EEEEE7releaseEv
__ZNSt3__117__compressed_pairIPNS_11__hash_nodeIPvS2_EENS_22__hash_node_destructorINS_9allocatorIS3_EEEEE5firstEv
__ZNSt3__122__compressed_pair_elemIPNS_11__hash_nodeIPvS2_EELi0ELb0EE5__getEv
__ZNSt3__110unique_ptrINS_11__hash_nodeIPvS2_EENS_22__hash_node_destructorINS_9allocatorIS3_EEEEED1Ev
__ZNSt3__110unique_ptrINS_11__hash_nodeIPvS2_EENS_22__hash_node_destructorINS_9allocatorIS3_EEEEED2Ev
__ZNSt3__110unique_ptrINS_11__hash_nodeIPvS2_EENS_22__hash_node_destructorINS_9allocatorIS3_EEEEE5resetEPS3_
__ZNSt3__115__hash_iteratorIPNS_11__hash_nodeIPvS2_EEEC1EPNS_16__hash_node_baseIS4_EE
__ZNSt3__115__hash_iteratorIPNS_11__hash_nodeIPvS2_EEEC2EPNS_16__hash_node_baseIS4_EE
__ZNSt3__14pairINS_15__hash_iteratorIPNS_11__hash_nodeIPvS3_EEEEbEC1IS6_RbLb0EEEOT_OT0_
__ZNSt3__14pairINS_15__hash_iteratorIPNS_11__hash_nodeIPvS3_EEEEbEC2IS6_RbLb0EEEOT_OT0_
__ZNSt3__1L7forwardINS_15__hash_iteratorIPNS_11__hash_nodeIPvS3_EEEEEEOT_RNS_16remove_referenceIS7_E4typeE
__ZNSt3__14pairINS_21__hash_const_iteratorIPNS_11__hash_nodeIPvS3_EEEEbEC1INS_15__hash_iteratorIS5_EEbLb0EEEONS0_IT_T0_EE
__ZNSt3__14pairINS_21__hash_const_iteratorIPNS_11__hash_nodeIPvS3_EEEEbEC2INS_15__hash_iteratorIS5_EEbLb0EEEONS0_IT_T0_EE
__ZNSt3__121__hash_const_iteratorIPNS_11__hash_nodeIPvS2_EEEC1ERKNS_15__hash_iteratorIS4_EE
__ZNSt3__121__hash_const_iteratorIPNS_11__hash_nodeIPvS2_EEEC2ERKNS_15__hash_iteratorIS4_EE
__ZNSt3__1L7forwardIbEEOT_RNS_16remove_referenceIS1_E4typeE
__ZNKSt3__116__hash_node_baseIPNS_11__hash_nodeINS_17__hash_value_typeIP11objc_objectPNS_13unordered_setIPvNS_4hashIS6_EENS_8equal_toIS6_EENS_9allocatorIS6_EEEEEES6_EEE6__hashEv
__ZNSt3__112__hash_tableINS_17__hash_value_typeIP11objc_objectPNS_13unordered_setIPvNS_4hashIS5_EENS_8equal_toIS5_EENS_9allocatorIS5_EEEEEENS_22__unordered_map_hasherIS3_SE_NS6_IS3_EELb1EEENS_21__unordered_map_equalIS3_SE_NS8_IS3_EELb1EEENSA_ISE_EEE6key_eqEv
__ZNSt3__117__compressed_pairIfNS_21__unordered_map_equalIP11objc_objectNS_17__hash_value_typeIS3_PNS_13unordered_setIPvNS_4hashIS6_EENS_8equal_toIS6_EENS_9allocatorIS6_EEEEEENS9_IS3_EELb1EEEE6secondEv
__ZNSt3__122__compressed_pair_elemINS_21__unordered_map_equalIP11objc_objectNS_17__hash_value_typeIS3_PNS_13unordered_setIPvNS_4hashIS6_EENS_8equal_toIS6_EENS_9allocatorIS6_EEEEEENS9_IS3_EELb1EEELi1ELb1EE5__getEv
__ZNKSt3__121__unordered_map_equalIP11objc_objectNS_17__hash_value_typeIS2_PNS_13unordered_setIPvNS_4hashIS5_EENS_8equal_toIS5_EENS_9allocatorIS5_EEEEEENS8_IS2_EELb1EEclERKSE_RKS2_
__ZNKSt3__117__hash_value_typeIP11objc_objectPNS_13unordered_setIPvNS_4hashIS4_EENS_8equal_toIS4_EENS_9allocatorIS4_EEEEE11__get_valueEv
__ZNKSt3__18equal_toIP11objc_objectEclERKS2_S5_
__ZNKSt3__119__hash_map_iteratorINS_15__hash_iteratorIPNS_11__hash_nodeINS_17__hash_value_typeIP11objc_objectPNS_13unordered_setIPvNS_4hashIS7_EENS_8equal_toIS7_EENS_9allocatorIS7_EEEEEES7_EEEEEptEv
__ZNSt3__114pointer_traitsIPNS_4pairIKP11objc_objectPNS_13unordered_setIPvNS_4hashIS6_EENS_8equal_toIS6_EENS_9allocatorIS6_EEEEEEE10pointer_toERSF_
__ZNKSt3__116__hash_node_baseIPNS_11__hash_nodeIPvS2_EEE6__hashEv
__ZNSt3__112__hash_tableIPvNS_4hashIS1_EENS_8equal_toIS1_EENS_9allocatorIS1_EEE6key_eqEv
__ZNSt3__117__compressed_pairIfNS_8equal_toIPvEEE6secondEv
__ZNSt3__122__compressed_pair_elemINS_8equal_toIPvEELi1ELb1EE5__getEv
__ZNSt3__116__hash_node_baseIPNS_11__hash_nodeIPvS2_EEE8__upcastEv
__ZNKSt3__18equal_toIPvEclERKS1_S4_
__ZNSt3__113unordered_setIPvNS_4hashIS1_EENS_8equal_toIS1_EENS_9allocatorIS1_EEE5eraseERKS1_
__ZNSt3__112__hash_tableIPvNS_4hashIS1_EENS_8equal_toIS1_EENS_9allocatorIS1_EEE14__erase_uniqueIS1_EEmRKT_
__ZNSt3__112__hash_tableIPvNS_4hashIS1_EENS_8equal_toIS1_EENS_9allocatorIS1_EEE4findIS1_EENS_15__hash_iteratorIPNS_11__hash_nodeIS1_S1_EEEERKT_
__ZNSt3__112__hash_tableIPvNS_4hashIS1_EENS_8equal_toIS1_EENS_9allocatorIS1_EEE3endEv
__ZNSt3__1eqERKNS_15__hash_iteratorIPNS_11__hash_nodeIPvS2_EEEES7_
__ZNSt3__125__bucket_list_deallocatorINS_9allocatorIPNS_16__hash_node_baseIPNS_11__hash_nodeIPvS4_EEEEEEEclEPS8_
__ZNSt3__116allocator_traitsINS_9allocatorIPNS_16__hash_node_baseIPNS_11__hash_nodeIPvS4_EEEEEEE10deallocateERS9_PS8_m
__ZNSt3__19allocatorIPNS_16__hash_node_baseIPNS_11__hash_nodeIPvS3_EEEEE10deallocateEPS7_m
-[UIView(LarkMainThreadCheck) swizzlingForSetNeedsLayout]
_$s12AppContainer0A8DelegateC6windowSo8UIWindowCSgvs
_$s12AppContainer0A8DelegateC6windowSo8UIWindowCSgvg
_$sSo8UIWindowCSgWOh
+[CAContextHook remoteContext:]
-[UIView(crash) s_countOfMotionEffectsInSubtree]
_$s11BootManagerAAC4boot10rootWindow5scope8firstTabySo8UIWindowC_ShyAA8BizScopeVGSSSgtFfA0_
_$s11BootManager8BizScopeVMa
_$s11BootManager8BizScopeVACSHAAWl
_$s11BootManager8BizScopeVSHAASQWb
_$s11BootManager8BizScopeVACSQAAWl
_$s11BootManagerAAC4boot10rootWindow5scope8firstTabySo8UIWindowC_ShyAA8BizScopeVGSSSgtFfA1_
_$s11BootManagerAAC4boot10rootWindow5scope8firstTabySo8UIWindowC_ShyAA8BizScopeVGSSSgtFTj
_$s11BootManagerAAC4boot10rootWindow5scope8firstTabySo8UIWindowC_ShyAA8BizScopeVGSSSgtF
_$s11BootManager0A7ContextC9contextID06globelC0ACSS_AA06GlobalaC0CtcfC
_$s11BootManager0A7ContextC9contextID06globelC0ACSS_AA06GlobalaC0Ctcfc
_$s11BootManager06GlobalA7ContextC13launchOptionsSDySo019UIApplicationLaunchF3KeyaypGSgvg
_$s11BootManager0A7ContextC26updateScopeByLaunchOptions33_F2B9F5BDDF9A5753EDAA8E0894BEC9E1LLyySDySo013UIApplicationgH3KeyaypGSgF
_$s11BootManager0A7ContextC6windowSo8UIWindowCSgvs
_$s11BootManager0A7ContextC5scopeShyAA8BizScopeVGvs
_$s11BootManager0A7ContextC5scopeShyAA8BizScopeVGvW
_$s11BootManagerAAC6logger16LKCommonsLogging3Log_pvau
_globalinit_33_5B32D4AE43C74C5E0A1E0666AA0EB2D5_func9
_$sShy11BootManager8BizScopeVGShyxGs23CustomStringConvertiblesWl
_$sShy11BootManager8BizScopeVGMa
_$sShy11BootManager8BizScopeVGWOh
_$s11BootManager0A7ContextC8firstTabSSSgvs
_$s11BootManager0A7ContextC8firstTabSSSgvW
_$s11BootManager0A7ContextC9contextIDSSvg
_$s11BootManagerAAC17connectedContextsSDySSAA0A7ContextCGvM
_$s11BootManagerAAC17connectedContextsSDySSAA0A7ContextCGvM.resume.0
_$s11BootManagerAAC06customA011branchStage5stage12taskIdentify7contextyAA0E4TypeOSg_AJSSSgAA0A7ContextCtFfA_
_$s11BootManagerAAC06customA011branchStage5stage12taskIdentify7contextyAA0E4TypeOSg_AJSSSgAA0A7ContextCtFfA0_
_$s11BootManagerAAC06customA011branchStage5stage12taskIdentify7contextyAA0E4TypeOSg_AJSSSgAA0A7ContextCtFfA1_
_$s11BootManagerAAC06customA011branchStage5stage12taskIdentify7contextyAA0E4TypeOSg_AJSSSgAA0A7ContextCtF
_$s11BootManagerAAC10workplacesSDySSAA9WorkSpaceCGvg
_$s11BootManager9WorkSpaceCSgWOh
_$s11BootManager9WorkSpaceC7contextAcA0A7ContextC_tcfC
_$s11BootManager9WorkSpaceC7contextAcA0A7ContextC_tcfc
_$s11BootManager8TaskRepoCMa
_$s11BootManager8TaskRepoCACycfC
_$s11BootManager8TaskRepoCACycfc
_$s11BootManager6BranchCMa
_$s11BootManager0A10TaskConfigVSgWOy
_$s11BootManager0A10TaskConfigVSgWOe
_$s11BootManager6BranchC4withACSayAA9StageTypeOG_tcfC
_$s11BootManager6BranchC4withACSayAA9StageTypeOG_tcfc
_$s11BootManager5StageCMa
_$sSay11BootManager9StageTypeOGSayxGSlsWl
_$s11BootManager9StageTypeOAA0C0Cs5Error_pIgnozo_AcEsAF_pIegnrzo_TRTA
_$s11BootManager9StageTypeOAA0C0Cs5Error_pIgnozo_AcEsAF_pIegnrzo_TR
_$s11BootManager6BranchC4withACSayAA9StageTypeOG_tcfcAA0E0CAFXEfU_
_$s11BootManager13StageRegistryCMa
_$s11BootManager13StageRegistryC7resolveyAA0C0CAA0C4TypeOFZ
_$s11BootManager13StageRegistryC7factorySDyAA0C4TypeOAA0C0CmGvau
_globalinit_33_16BDF50858D1C7A3828B3A9268C21085_func12
_$s11BootManager16BeforeLoginStageCMa
_$s11BootManager15AfterLoginStageCMa
_$s11BootManager16FirstRenderStageCMa
_$s11BootManager9IdleStageCMa
_$s11BootManager16AfterSwitchStageCMa
_$s11BootManager17PrivacyAlertStageCMa
_$s11BootManager10LoginStageCMa
_$s11BootManager15CreateTeamStageCMa
_$s11BootManager17LoginSuccessStageCMa
_$s11BootManager16LaunchGuideStageCMa
_$s11BootManager19VCGuestMeetingStageCMa
_$s11BootManager21LaunchGuideLoginStageCMa
_$s11BootManager13SafeModeStageCMa
_$s11BootManager15OnBoardingStageCMa
_$s11BootManager9StageTypeOACSHAAWl
_$s11BootManager9StageTypeOSHAASQWb
_$s11BootManager9StageTypeOACSQAAWl
_$s11BootManager9StageTypeOSHAASH13_rawHashValue4seedS2i_tFTW
_$s11BootManager9StageTypeOSHAASH4hash4intoys6HasherVz_tFTW
_$s11BootManager9StageTypeOSYAASY8rawValue03RawF0QzvgTW
_$s11BootManager9StageTypeO8rawValueSSvg
_$s11BootManager9StageTypeOSQAASQ2eeoiySbx_xtFZTW
_$s11BootManager16BeforeLoginStageCACycfC
_$s11BootManager16BeforeLoginStageCACycfc
_$s11BootManager5StageCACycfc
_$s11BootManager5StageC4typeAA0C4TypeOSgvs
_$s11BootManager15AfterLoginStageCACycfC
_$s11BootManager15AfterLoginStageCACycfc
_$s11BootManager16FirstRenderStageCACycfC
_$s11BootManager16FirstRenderStageCACycfc
_$s11BootManager17AwaitTriggerStageCACycfc
_$s11BootManager9IdleStageCACycfC
_$s11BootManager9IdleStageCACycfc
_$sSay11BootManager5StageCGSayxGSTsWl
_$sSay11BootManager5StageCGMa
_$s11BootManager5StageCs5Error_pIggzo_ACsAD_pIegnzo_TRTA
_$s11BootManager5StageCs5Error_pIggzo_ACsAD_pIegnzo_TR
_$s11BootManager6BranchC4withACSayAA9StageTypeOG_tcfcyAA0E0CXEfU0_TA
_$s11BootManager6BranchC4withACSayAA9StageTypeOG_tcfcyAA0E0CXEfU0_
_$s11BootManager5StageC6branchAA6BranchCSgvs
_$sSay11BootManager5StageCGWOh
_$s11BootManager9WorkSpaceC11storeBranch33_62E1CDF6512EC9BD3647CFC7EAFE7A2DLLyyAA0F0CF
_$sSay11BootManager6BranchCGSayxGSTsWl
_$sSay11BootManager6BranchCGMa
_$s11BootManager6BranchCACSQAAWl
_$sSay11BootManager6BranchCGWOh
_$s11BootManager6BranchC9workSpaceAA04WorkE0CSgvs
_$s11BootManager9WorkSpaceC6commityyF
_$s11BootManager9WorkSpaceC4headAA6BranchCSgvs
_$s11BootManager9WorkSpaceC4headAA6BranchCSgvg
_$s11BootManager6BranchCSgWOh
_$s11BootManager6BranchC8continueyyF
_$s11BootManager6BranchC4headAA5StageCSgvg
_$sSay11BootManager5StageCGSayxGSlsWl
_$s11BootManager5StageC5stateAA0C5StateOvg
_$s11BootManager10StageStateOACSYAAWl
_$s11BootManager10StageStateOSYAASY8rawValue03RawF0QzvgTW
_$s11BootManager10StageStateO8rawValueSSvg
_$s11BootManager6BranchC4headAA5StageCSgvs
_$s11BootManager6BranchC4headAA5StageCSgvW
_$s11BootManager5StageCACSQAAWl
_$s11BootManager5StageCSgWOh
_$s11BootManager10StageStateOACSQAAWl
_$s11BootManager10StageStateOwet
_$s11BootManager10StageStateOSQAASQ2eeoiySbx_xtFZTW
_$s11BootManager5StageC5startyyF
_$s11BootManager5StageC014isAwaitTriggerC0Sbvg
_$s11BootManager5StageC5stateAA0C5StateOvs
_$s11BootManager5StageC5stateAA0C5StateOvW
_$s11BootManager12EventMonitorCMa
_$s11BootManager12EventMonitorC6sharedACvau
_globalinit_33_4199881CA4C73568060CCA81F82D5C30_func11
_$s11BootManager12EventMonitorCACycfC
_$s11BootManager12EventMonitorCACycfc
_$s11BootManager12EventMonitorC6update5stage3old3newyAA5StageC_AA0I5StateOAKtF
_$s11BootManagerAAC10dependencyAA0A10Dependency_pvg
_$s11LarkMonitor17LaunchOpenTracingCMa
_$s11LarkMonitor17LaunchOpenTracingC6sharedACSgvau
_globalinit_33_B7E0E990B694719B598C38665CEB7E94_func17
_$s11LarkMonitor17LaunchOpenTracingCACycfC
_$s11LarkMonitor17LaunchOpenTracingCACycfc
_$s13LarkOpenTrace8LKOTSpanCMa
_$s11BootManager20EventMonitorProtocol_pSgWOc
_$s11BootManager5StageC8identifySSvg
_$s11BootManager5StageC4typeAA0C4TypeOSgvg
_$s11LarkMonitor17LaunchOpenTracingC11BootManager05EventB8ProtocolAadEP6update5stage3old3newySS_AD10StageStateOALtFTW
_$s11LarkMonitor17LaunchOpenTracingC6update5stage3old3newySS_11BootManager10StageStateOAJtF
_$s11BootManager10StageStateOMa
_$s11LarkMonitor17LaunchOpenTracingC11launchTrace0adG09LKOTTraceCSgvg
_$s13LarkOpenTrace9LKOTTraceCSgSgWOy
_$s11LarkMonitor17LaunchOpenTracingC11launchTrace0adG09LKOTTraceCSgvgAGyXEfU_
_$s13LarkOpenTrace9LKOTTraceCMa
_$s11LarkMonitor17LaunchOpenTracingC9traceName33_B7E0E990B694719B598C38665CEB7E94LLSSvau
_globalinit_33_B7E0E990B694719B598C38665CEB7E94_func18
_$s13LarkOpenTrace9LKOTTraceC5startyACSSFZ
+[HMDOTTrace startTrace:]
+[HMDOTTrace startTrace:startDate:]
+[HMDOTTrace startTrace:startDate:insertMode:]
+[HMDOTManager sharedInstance]
___30+[HMDOTManager sharedInstance]_block_invoke
-[HMDOTManager init]
+[Heimdallr shared]
___19+[Heimdallr shared]_block_invoke
+[Heimdallr allocWithZone:]
___27+[Heimdallr allocWithZone:]_block_invoke
-[Heimdallr init]
_hmd_setTotalMemoryBytes
+[HMDConfigManager sharedInstance]
___34+[HMDConfigManager sharedInstance]_block_invoke
-[HMDConfigManager init]
-[Heimdallr setConfigManager:]
-[BGDB initWithPath:]
-[BGDB setRootPath:]
-[BGDB setSemaphore:]
-[BGDB rootPath]
+[FMDatabaseQueue databaseQueueWithPath:]
-[FMDatabaseQueue initWithPath:]
-[FMDatabaseQueue initWithPath:flags:vfs:]
+[FMDatabaseQueue databaseClass]
+[FMDatabase databaseWithPath:]
-[FMDatabase initWithPath:]
-[FMDatabase openWithFlags:vfs:]
-[FMDatabase sqlitePath]
-[FMDatabase setMaxBusyRetryTimeInterval:]
-[BGDB setQueue:]
_HMDDynamicCall
___21-[BGDB initWithPath:]_block_invoke
+[BGDB currentDBUserVersion]
-[BGDB queue]
-[FMDatabaseQueue inDatabase:]
___30-[FMDatabaseQueue inDatabase:]_block_invoke
-[FMDatabaseQueue database]
-[FMDatabase isOpen]
___21-[BGDB initWithPath:]_block_invoke_2
+[HMDDiskSpaceDistribution sharedInstance]
___42+[HMDDiskSpaceDistribution sharedInstance]_block_invoke
-[HMDDiskSpaceDistribution init]
-[FMDatabase(FMDatabaseAdditions) userVersion]
-[HMDDiskSpaceDistribution _moduleClassFromDefaultModuls]
_removableFileModules
-[FMDatabase executeQuery:]
-[FMDatabase executeQuery:withArgumentsInArray:orDictionary:orVAList:shouldBind:]
-[FMDatabase databaseExists]
-[NSMutableArray(HMDSafe) hmd_addObject:]
_HMDDCReturnsIsRetained
_HMDDCIsMatchFamily
_HMDDCSkipMethodEncodings
-[HMDDiskSpaceDistribution registerModule:]
-[HMDDiskSpaceDistribution moduleClass]
-[HMDDiskSpaceDistribution modules]
+[HMDWeakProxy proxyWithTarget:]
-[HMDWeakProxy initWithTarget:]
-[NSMutableDictionary(HMDSafe) hmd_setSafeObject:forKey:]
-[Heimdallr setStore:]
+[HMDInfo defaultInfo]
___22+[HMDInfo defaultInfo]_block_invoke
-[HMDInfo(AppInfo) shortVersion]
-[HMDInfo(AppInfo) buildVersion]
-[HMDInfo(AppInfo) sdkVersion]
-[HMDInfo(SystemInfo) systemVersion]
+[HeimdallrUtilities systemVersion]
___35+[HeimdallrUtilities systemVersion]_block_invoke
+[HMDInjectedInfo defaultInfo]
___30+[HMDInjectedInfo defaultInfo]_block_invoke
+[HMDInjectedInfo allocWithZone:]
___33+[HMDInjectedInfo allocWithZone:]_block_invoke
-[HMDInjectedInfo init]
-[HMDInjectedInfo addBytestFilterIfNeed]
+[HMDInfo(AutoTestInfo) isBytest]
+[HMDInfo(AutoTestInfo) _automationTestInfoDictionary]
-[NSDictionary(HMDSafe) hmd_dictForKey:]
-[NSDictionary(HMDSafe) hmd_objectForKey:class:]
-[HMDInjectedInfo sessionID]
_hmd_getMemoryBytes
_hmd_getTotalMemoryBytes
_hmd_obtainPresetMemoryLimitMBForDeviceModel
_hmd_safe_dispatch_async
-[FMDatabase bindStatement:WithArgumentsInArray:orDictionary:orVAList:]
-[FMStatement setStatement:]
+[FMResultSet resultSetWithStatement:usingParentDatabase:shouldAutoClose:]
-[FMResultSet setStatement:]
-[FMResultSet setParentDB:]
-[FMResultSet setShouldAutoClose:]
-[FMStatement inUse]
-[FMStatement setInUse:]
-[FMResultSet setQuery:]
-[FMStatement useCount]
-[FMStatement setUseCount:]
-[FMResultSet next]
-[FMResultSet nextWithError:]
-[FMResultSet internalStepWithError:]
-[FMStatement statement]
___copy_helper_block_e8_32b
___hmd_safe_dispatch_async_block_invoke
+[HMDDiskUsage getFreeDiskSpace]
-[HMDInjectedInfo userID]
-[HMDInjectedInfo dynamicUID]
-[HMDInjectedInfo userName]
-[HMDInjectedInfo email]
-[HMDInjectedInfo customContext]
-[HMDInjectedInfo filters]
+[BGTool getTableNameWithObject:]
-[BGDB bg_isExistWithTableName:]
-[BGDB executeDB:]
-[BGDB inTransaction]
-[BGDB semaphore]
-[Heimdallr setSessionTracker:]
-[Heimdallr setShowDebugAlert:]
-[Heimdallr isRemoteReady]
-[FMResultSet longLongIntForColumnIndex:]
-[FMResultSet close]
-[FMStatement reset]
-[FMStatement dealloc]
-[FMStatement close]
-[FMStatement .cxx_destruct]
-[FMDatabase resultSetDidClose:]
-[FMDatabase hasOpenResultSets]
___18-[BGDB executeDB:]_block_invoke
-[BGDB setDb:]
___32-[BGDB bg_isExistWithTableName:]_block_invoke
-[FMDatabase(FMDatabaseAdditions) tableExists:]
__ZNSt3__125__bucket_list_deallocatorINS_9allocatorIPNS_16__hash_node_baseIPNS_11__hash_nodeINS_17__hash_value_typeIP11objc_objectPNS_13unordered_setIPvNS_4hashIS8_EENS_8equal_toIS8_EENS1_IS8_EEEEEES8_EEEEEEEclEPSK_
__ZNSt3__116allocator_traitsINS_9allocatorIPNS_16__hash_node_baseIPNS_11__hash_nodeINS_17__hash_value_typeIP11objc_objectPNS_13unordered_setIPvNS_4hashIS8_EENS_8equal_toIS8_EENS1_IS8_EEEEEES8_EEEEEEE10deallocateERSL_PSK_m
__ZNSt3__19allocatorIPNS_16__hash_node_baseIPNS_11__hash_nodeINS_17__hash_value_typeIP11objc_objectPNS_13unordered_setIPvNS_4hashIS7_EENS_8equal_toIS7_EENS0_IS7_EEEEEES7_EEEEE10deallocateEPSJ_m
-[HMDOTManager hasStopped]
-[HMDOTTrace setServiceName:]
-[HMDOTTrace setTraceID:]
-[HMDOTTrace setStartTimestamp:]
-[HMDOTTrace setAppVersion:]
-[HMDOTTrace setUpdateVersionCode:]
-[HMDOTTrace setOsVersion:]
-[HMDOTTrace setSessionID:]
-[HMDOTTrace setTags:]
-[HMDOTTrace setCachedSpans:]
-[HMDOTTrace setCacheLock:]
-[HMDOTTrace updateHitRules]
-[HMDOTManager enternalConfig]
-[HMDOTTrace serviceName]
-[HMDOTTrace hasError]
-[HMDOTTrace setHitRules:]
-[HMDOTTrace setSampleRate:]
-[HMDOTTrace decideInsertPolicyWithMode:]
-[HMDOTTrace setInsertMode:]
-[HMDOTManager isValid]
___23-[HMDOTManager isValid]_block_invoke
+[TTMacroManager isDebug]
-[HMDOTTrace setNeedCache:]
-[HMDOTTrace traceID]
-[HMDOTBridge registerTrace:forTraceID:]
-[HMDOTBridge enableBinding]
-[HMDOTBridge callbackQeueue]
___copy_helper_block_e8_32s40s
___copy_helper_block_e8_32s48r56w
___40-[HMDOTBridge registerTrace:forTraceID:]_block_invoke
-[HMDOTBridge cachedTraces]
_$s13LarkOpenTrace9LKOTTraceCyACSo10HMDOTTraceCSgcfC
_$s13LarkOpenTrace9LKOTTraceCyACSo10HMDOTTraceCSgcfc
_$s13LarkOpenTrace9LKOTTraceCSgSgWOe
_$s11BootManager10StageStateOwui
-[NSMutableDictionary(HMDSafe) hmd_setObject:forKey:]
_$s11LarkMonitor17LaunchOpenTracingC15firstRenderSpan33_B7E0E990B694719B598C38665CEB7E94LL0aD5Trace8LKOTSpanCSgvg
___46+[HMDOTTrace startTrace:startDate:insertMode:]_block_invoke
_$s13LarkOpenTrace8LKOTSpanCSgSgWOy
_$s11LarkMonitor17LaunchOpenTracingC15firstRenderSpan33_B7E0E990B694719B598C38665CEB7E94LL0aD5Trace8LKOTSpanCSgvgAIyXEfU_
___destroy_helper_block_e8_32s40s
_$s11LarkMonitor17LaunchOpenTracingC11firstRender33_B7E0E990B694719B598C38665CEB7E94LLSSvau
_globalinit_33_B7E0E990B694719B598C38665CEB7E94_func19
_$s13LarkOpenTrace8LKOTSpanC5start2of13operationNameAcA9LKOTTraceCSg_SStFZ
+[HMDOTSpan startSpanOfTrace:operationName:]
+[HMDOTSpan startSpanOfTrace:operationName:spanStartDate:]
-[HMDOTTrace isFinished]
+[HMDOTSpan newRecord]
+[HMDOTSpan currentThreadID]
-[HMDOTSpan setThreadID:]
-[HMDOTSpan setStartTimestamp:]
-[HMDOTSpan setLogs:]
-[HMDOTSpan setTags:]
-[HMDOTSpan setTraceID:]
-[HMDOTSpan setOperationName:]
-[HMDOTSpan setServiceName:]
-[HMDOTSpan setSpanID:]
___22+[HMDOTSpan newRecord]_block_invoke
-[HMDOTTrace latestSpanID]
-[HMDOTSpan setReferenceID:]
-[HMDOTSpan setTrace:]
-[HMDOTSpan spanID]
-[HMDOTTrace setLatestSpanID:]
-[HMDOTSpan insertPlaceHolderIfNeeded]
-[HMDOTSpan trace]
-[HMDOTTrace needCache]
-[HMDOTSpan setTag:value:]
-[HMDOTTrace obtainTraceTags]
-[HMDOTTrace tags]
-[HMDOTSpan tags]
_$s13LarkOpenTrace8LKOTSpanCyACSo9HMDOTSpanCSg_AA9LKOTTraceCSgtcfC
_$s13LarkOpenTrace8LKOTSpanCyACSo9HMDOTSpanCSg_AA9LKOTTraceCSgtcfc
_$s13LarkOpenTrace9LKOTTraceC10activeSpanyyAA8LKOTSpanCF
_$s13LarkOpenTrace8LKOTSpanCSgSgWOe
_$s13LarkOpenTrace8LKOTSpanC5start_7childOfACSS_ACSgtFZ
+[HMDOTSpan startSpan:childOf:]
+[HMDOTSpan startSpan:childOf:spanStartDate:]
-[HMDOTSpan traceID]
-[HMDOTSpan serviceName]
-[HMDOTSpan setParentID:]
-[HMDOTSpan latestChildSpanID]
-[HMDOTSpan setParentSpan:]
-[HMDOTSpan setLatestChildSpanID:]
-[FMDatabase bindObject:toColumn:inStatement:]
_$s11BootManager10StageStateOwug
+[BGTool executeSelector:forClass:]
___21-[BGDB initWithPath:]_block_invoke_3
-[BGDB saveObject:ignoredKeys:complete:]
-[FMDatabase(FMDatabaseAdditions) stringForQuery:]
-[BGDB ifNotExistWillCreateTableWithObject:ignoredKeys:]
-[BGDB isExistWithTableName:complete:]
-[FMResultSet stringForColumnIndex:]
-[FMResultSet dealloc]
-[FMResultSet .cxx_destruct]
___38-[BGDB isExistWithTableName:complete:]_block_invoke
___56-[BGDB ifNotExistWillCreateTableWithObject:ignoredKeys:]_block_invoke
-[BGDB insertWithObject:ignoredKeys:complete:]
+[BGTool getDictWithObject:ignoredKeys:filtModelInfoType:]
+[BGTool getDictWithObject:ignoredKeys:]
+[BGTool getClassIvarList:onlyKey:]
+[NSCache(BGCache) bg_cache]
___28+[NSCache(BGCache) bg_cache]_block_invoke
+[BGTool bg_enumerateClasses:complete:]
___35+[BGTool getClassIvarList:onlyKey:]_block_invoke
+[BGTool isClassFromFoundation:]
+[BGTool getSqlValue:type:encode:]
+[BGTool jsonStringWithDictionary:]
+[BGTool dataToJson:]
_$s11BootManager20EventMonitorProtocol_pSgWOh
_$s11BootManager5StageC8continueyyF
_$s11BootManager5StageC6branchAA6BranchCSgvg
_$s11BootManager6BranchC9workSpaceAA04WorkE0CSgvg
_$s11BootManager5StageC11configTasksSaySSGvg
_$s11BootManager5StageC6configAA0A10TaskConfigVSgvg
_$s11BootManager0A10TaskConfigVSgWOb
_$s11BootManager0A10TaskConfigVWOs
_$s11BootManager5StageC8taskRepoAA04TaskE0CSgvg
_$s11BootManager8TaskRepoC7enqueue_9workspaceySS_AA9WorkSpaceCtF
_$s11BootManager8TaskRepoC8allTasksSDySSAA06LaunchC0CGvg
_$sSD4KeysVySS11BootManager10LaunchTaskC_GAByxq__GSTsWl
_$sSD4KeysVySS11BootManager10LaunchTaskC_GMa
_$sSD4KeysVySS11BootManager10LaunchTaskC_GWOh
_$s11BootManagerAAC14globalTaskRepoAA06GlobaldE0Cvg
_$s11BootManager14GlobalTaskRepoC9onceTasksShySSGvg
_$s11BootManager14GlobalTaskRepoC18onceUserScopeTasksShySSGvg
_$s11BootManager12TaskRegistryC7resolveyAA06LaunchC0CSgSSFZ
_$s11BootManager10LaunchTaskCIegr_ACIego_TRTA
_$s11BootManager10LaunchTaskCIegr_ACIego_TR
_$s11BootManager10LaunchTaskCIego_ACIegr_TRTA
_$s11BootManager10LaunchTaskCIego_ACIegr_TR
_$s11BootManager12TaskRegistryC8registeryyxmAA06LaunchC0CRbzAA12IdentifiableRzlFZAFycAFmcfu_AFycfu0_TA
_$s11BootManager12TaskRegistryC8registeryyxmAA06LaunchC0CRbzAA12IdentifiableRzlFZAFycAFmcfu_AFycfu0_
_$s11BootManager14FlowLaunchTaskCACycfc
_$s11BootManager10LaunchTaskCACycfc
_$s11BootManager10LaunchTaskC8identifySSSgvs
_$s11BootManager10LaunchTaskC9workspaceAA9WorkSpaceCSgvs
_$s11BootManager8TaskRepoC8allTasksSDySSAA06LaunchC0CGvM
_$s11BootManager8TaskRepoC8allTasksSDySSAA06LaunchC0CGvM.resume.0
_$s11BootManager10LaunchTaskC17isFirstTabPreLoadSbvg
_$s11BootManager10LaunchTaskC5scopeShyAA8BizScopeVGvg
_$s11BootManager8TaskRepoC15foundationTasksSDySSAA06LaunchC0CGvM
_$s11BootManager8TaskRepoC15foundationTasksSDySSAA06LaunchC0CGvM.resume.0
_$s11BootManager10LaunchTaskC6deamonSbvg
_$s11BootManager8TaskRepoC7dequeueyAA06LaunchC0CSgSSSgF
_$s11BootManager8TaskRepoC15foundationTasksSDySSAA06LaunchC0CGvg
_$s11BootManager10LaunchTaskC5stateAA0D5StateOvg
_$s11BootManager9TaskStateOACSYAAWl
_$s11BootManager9TaskStateOSYAASY8rawValue03RawF0QzvgTW
_$s11BootManager9TaskStateO8rawValueSSvg
_$s11BootManager5StageC8continueyyF15shouldBreakLoopL_ySbAA10LaunchTaskCF
_$s11BootManager6BranchC8isMasterSbvg
_$s11BootManager6BranchCSQAASQ2eeoiySbx_xtFZTW
_$s11BootManager6BranchC2eeoiySbAC_ACtFZ
_$s11BootManager5StageC6commit33_B06F1D5C9E6DA20E1E10AF79229CBEC5LLyyAA10LaunchTaskCF
_$s11BootManager10LaunchTaskC8identifySSSgvg
_$s11BootManager5StageC4headSSSgvs
_$s11BootManager5StageC4headSSSgvw
_$s11BootManager5StageC12runtimeTasksSayAA10LaunchTaskCGvg
_$sSay11BootManager10LaunchTaskCGSayxGSlsWl
_$sSay11BootManager10LaunchTaskCGMa
_$sSay11BootManager10LaunchTaskCGWOh
_$sSaySSSgGSayxGSTsWl
_$sSaySSSgGMa
_$sSSSgxSgSQsSQRzlWl
_$s11BootManager10LaunchTaskC5stageAA5StageCSgvs
_$s11BootManager14FlowLaunchTaskC3runyyF
_$s11BootManager10LaunchTaskC3runyyF
_$s11BootManager10LaunchTaskC11runOnlyOnceSbvg
_$s11BootManager10LaunchTaskC22runOnlyOnceInUserScopeSbvg
_$s11BootManager14GlobalTaskRepoC18onceUserScopeTasksShySSGvM
_$s11BootManager14GlobalTaskRepoC18onceUserScopeTasksShySSGvM.resume.0
_$s11BootManager10LaunchTaskC5stateAA0D5StateOvs
_$s11BootManager10LaunchTaskC5stateAA0D5StateOvW
_$s11BootManager12EventMonitorC6update4task3old3newyAA10LaunchTaskC_AA0J5StateOAKtF
_$s11BootManager10LaunchTaskC5stageAA5StageCSgvg
_$s11LarkMonitor17LaunchOpenTracingC11BootManager05EventB8ProtocolAadEP6update4task6belong3old3newySS_SSAD9TaskStateOAMtFTW
_$s11LarkMonitor17LaunchOpenTracingC6update4task6belong3old3newySS_SS11BootManager9TaskStateOAKtF
_$s11BootManager9TaskStateOMa
_$s11BootManager9TaskStateOwui
_bg_sqlKey
-[BGDB ifIvarChangeForObject:ignoredKeys:]
___42-[BGDB ifIvarChangeForObject:ignoredKeys:]_block_invoke
-[FMDatabase executeStatements:withResultBlock:]
-[FMDatabase sqliteHandle]
_FMDBExecuteBulkSQLCallback
___42-[BGDB ifIvarChangeForObject:ignoredKeys:]_block_invoke_2
___42-[BGDB ifIvarChangeForObject:ignoredKeys:]_block_invoke.535
_$s11BootManager9TaskStateOwug
_$s11BootManager10LaunchTaskC08scheduleD0yyF
_$s11BootManager13TaskSchedulerC9scheduleryyAA06LaunchC0CF
_$s11BootManager10LaunchTaskC9workspaceAA9WorkSpaceCSgvg
_$s11BootManager10LaunchTaskC9schedulerAA9SchedulerOvg
_$sSo17OS_dispatch_queueC11BootManagerE17mainAsyncIfNeededyyyycF
_$s11BootManager13TaskSchedulerC9scheduleryyAA06LaunchC0CFyycfU_TA
_$s11BootManager13TaskSchedulerC9scheduleryyAA06LaunchC0CFyycfU_
_$s8EEAtomic14UnfairLockCellVACycfC
_$sSo16os_unfair_lock_sVMa
_$s17LarkLocalizations15LanguageManagerCMa
_$s17LarkLocalizations15LanguageManagerCMr
_$s10Foundation6LocaleVSgMa
-[BGDB insertIntoTableName:Dict:complete:]
___42-[BGDB insertIntoTableName:Dict:complete:]_block_invoke
-[FMDatabase executeUpdate:withArgumentsInArray:]
-[FMDatabase executeUpdate:error:withArgumentsInArray:orDictionary:orVAList:]
_$s10Foundation6LocaleV17LarkLocalizationsE8rawValueACSS_tcfC
_$sSy10FoundationE20replacingOccurrences2of4with7options5rangeSSqd___qd_0_So22NSStringCompareOptionsVSnySS5IndexVGSgtSyRd__SyRd_0_r0_lFfA1_
_$sSa22_allocateUninitializedySayxG_SpyxGtSiFZSo22NSStringCompareOptionsV_Tgq5
_$sSo22NSStringCompareOptionsVMa
_$ss10SetAlgebraPs7ElementQz012ArrayLiteralC0RtzrlE05arrayE0xAFd_tcfCSo22NSStringCompareOptionsV_Tgq5
_$sSa9_getCountSiyFSo22NSStringCompareOptionsV_Tgq5
_$sSy10FoundationE20replacingOccurrences2of4with7options5rangeSSqd___qd_0_So22NSStringCompareOptionsVSnySS5IndexVGSgtSyRd__SyRd_0_r0_lFfA2_
_$s17LarkLocalizations15LanguageManagerC10initialize16supportLanguages7default10dependencyySay10Foundation6LocaleVGSg_AJSgAA0cD10Dependency_pSgtFZ
_$s17LarkLocalizations15LanguageManagerC6sharedACvau
_globalinit_33_25F1715FF74AE4C783116DF68E3F9AD2_func18
_$s17LarkLocalizations15LanguageManagerCACyc33_25F1715FF74AE4C783116DF68E3F9AD2LlfC
_$s17LarkLocalizations15LanguageManagerCACyc33_25F1715FF74AE4C783116DF68E3F9AD2Llfc
_$sSo18c_atomic_uintptr_tVMa
_$s8EEAtomic9AtomicRefCMa
_$s8EEAtomic9AtomicRefCMi
_$s8EEAtomic9AtomicRefCMr
-[BGDB doChangeWithName:flag:state:]
-[BGDB changeBlocks]
_$s8EEAtomic9AtomicRefCAASz5ValueRpzrlEACyxGycfC
_$s8EEAtomic9AtomicRefCyACyxG5ValueQzcfC
_$s8EEAtomic9AtomicRefCyACyxG5ValueQzcfc
_$sSo18c_atomic_uintptr_tV8EEAtomic12CAtomicValueA2cDP6createySpyxG0E0QzFZTW
_$sSo18c_atomic_uintptr_tV6createySpyABGSuFZTO
_$s10Foundation6LocaleVSgWOb
_$s17LarkLocalizations15LanguageManagerC16supportLanguagesSay10Foundation6LocaleVGvpfP
_$s8EEAtomic12AtomicObjectCMa
_$s8EEAtomic12AtomicObjectCMi
_$s8EEAtomic12AtomicObjectCMr
_$s8EEAtomic12AtomicObjectC12wrappedValueACyxGx_tcfC
_$s8EEAtomic12AtomicObjectCyACyxGxcfC
_$s8EEAtomic12AtomicObjectCyACyxGxcfc
_$s17LarkLocalizations15LanguageManagerC10initialize16supportLanguages7default10dependencyySay10Foundation6LocaleVGSg_AJSgAA0cD10Dependency_pSgtF
_$s17LarkLocalizations15LanguageManagerC5state8EEAtomic9AtomicRefCySo18c_atomic_uintptr_tVGvg
_$s8EEAtomic9AtomicRefCySo18c_atomic_uintptr_tVGACyxGAA0B3APIAAWl
_$s8EEAtomic9AtomicRefCySo18c_atomic_uintptr_tVGMa
_$s8EEAtomic9AtomicAPIPAAE2or_5order5CType_5ValueQZAH_So11MemoryOrderVtFfA0_
_$s8EEAtomic9AtomicAPIPAAE2or_5order5CType_5ValueQZAH_So11MemoryOrderVtF
_$s8EEAtomic9AtomicRefCyxGAA0B3APIAA5CType_AA12CAtomicValuePWT
_$s8EEAtomic9AtomicRefCyxGAA0B3APIA2aEP7pointerSpy5CTypeQzGvgTW
_$s8EEAtomic9AtomicRefC7pointerSpyxGvg
_$sSo11MemoryOrderV8EEAtomicE7asCTypeSo12memory_orderVvg
_$sSo11MemoryOrderV8rawValues6UInt32Vvg
_$sSo18c_atomic_uintptr_tV8EEAtomic12CAtomicValueA2cDP2or_5value5order0E0QzSpyxG_AJSo07memory_H0VtFZTW
_$sSo18c_atomic_uintptr_tV2or_5value5orderSuSpyABG_SuSo07memory_E0VtFZTO
_$s17LarkLocalizations15LanguageManagerC10dependencyAA0cD10Dependency_pSgvs
_$s10Foundation6LocaleVSgWOc
_$s17LarkLocalizations15LanguageManagerC08_defaultC033_25F1715FF74AE4C783116DF68E3F9AD2LL10Foundation6LocaleVSgvs
_$s10Foundation6LocaleVSgWOd
_$s17LarkLocalizations15LanguageManagerC16supportLanguagesSay10Foundation6LocaleVGvsTA
_$s17LarkLocalizations15LanguageManagerC16supportLanguagesSay10Foundation6LocaleVGvs
_$s8EEAtomic12AtomicObjectC12wrappedValuexvs
_$s8EEAtomic12AtomicObjectC5valuexvs
_$s8EEAtomic13UnfairLockAPIPAAE11withLocking6actionqd__qd__yKXE_tKlF
_$s8EEAtomic13UnfairLockAPIPAAE4lockyyF
___swift_memcpy8_8
_$s8EEAtomic14UnfairLockCellVAA0bC3APIA2aDP7pointerSpySo16os_unfair_lock_sVGvgTW
_$s8EEAtomic14UnfairLockCellV7pointerSpySo16os_unfair_lock_sVGvg
_$ss5Error_pIgzo_ytsAA_pIegrzo_TRTA
_$s8EEAtomic12AtomicObjectC5valuexvsyyXEfU_TA
_$s8EEAtomic12AtomicObjectC5valuexvsyyXEfU_
_$s8EEAtomic13UnfairLockAPIPAAE11withLocking6actionqd__qd__yKXE_tKlF6$deferL_yyAaBRzr__lF
_$s8EEAtomic13UnfairLockAPIPAAE6unlockyyF
_$s17LarkLocalizations15LanguageManagerC16supportLanguagesSay10Foundation6LocaleVGvW
_$s17LarkLocalizations15LanguageManagerC16supportLanguagesSay10Foundation6LocaleVGvg
_$s8EEAtomic12AtomicObjectC12wrappedValuexvg
_$s8EEAtomic12AtomicObjectC5valuexvg
_$s8EEAtomic12AtomicObjectC5valuexvgxyXEfU_TA
_$s8EEAtomic12AtomicObjectC5valuexvgxyXEfU_
_$sSay10Foundation6LocaleVGSayxGSlsWl
_$s17LarkLocalizations15LanguageManagerC12appleLanguge10Foundation6LocaleVSgvg
_$s17LarkLocalizations15LanguageManagerC18appleLangugeStringSSSgvg
_$s17LarkLocalizations15LanguageManagerC14appleLanguagesSSvau
_globalinit_33_25F1715FF74AE4C783116DF68E3F9AD2_func19
_$s17LarkLocalizations15LanguageManagerC019compatibleSupportedC0y10Foundation6LocaleVSgAGF
-[HMDStoreCondition init]
-[HMDStoreCondition setJudgeType:]
-[HMDStoreCondition setStringValue:]
-[HMDStoreCondition setKey:]
+[HMDFMDBConditionHelper totalFMDBConditionWithAndList:orList:]
+[HMDFMDBConditionHelper totalFMDBConditionWithAndList:]
___56+[HMDFMDBConditionHelper totalFMDBConditionWithAndList:]_block_invoke
-[HMDStoreCondition stringValue]
-[HMDStoreCondition judgeType]
-[HMDStoreCondition key]
+[HMDFMDBConditionHelper totalFMDBConditionWithOrList:]
-[BGDB updateObject:propertyName:propertyValue:conditions:complete:]
+[BGTool getIvarEncoding:class:]
-[BGDB updateQueueWithTableName:valueDict:conditions:complete:]
___63-[BGDB updateQueueWithTableName:valueDict:conditions:complete:]_block_invoke
_$s17LarkLocalizations15LanguageManagerC019compatibleSupportedC0y10Foundation6LocaleVSgAGFSbAGXEfU_TA
_$s17LarkLocalizations15LanguageManagerC019compatibleSupportedC0y10Foundation6LocaleVSgAGFSbAGXEfU_
_$s17LarkLocalizations15LanguageManagerC10dependencyAA0cD10Dependency_pSgvg
_$s17LarkLocalizations25LanguageManagerDependency_pSgWOh
_$s17LarkLocalizations25LanguageManagerDependencyPAAE10compatible8languageSb10Foundation6LocaleV_tF
_block_destroy_helper.5
_$s8EEAtomic13UnfairLockAPIPAAE11assertOwneryyF
_$s13LarkOpenTrace8LKOTSpanCSgWOh
_$s13LarkOpenTrace8LKOTSpanC6finishyyF
_$s13LarkOpenTrace8LKOTSpanC6finish7withEndy10Foundation4DateVSg_tF
_$s13LarkOpenTrace9LKOTTraceC9closeSpanyyF
-[HMDOTSpan finishWithEndDate:]
-[HMDOTSpan isFinished]
-[HMDOTSpan setFinishTimestamp:]
-[HMDOTSpan setIsFinished:]
-[HMDOTTrace cacheOneSpan:]
-[HMDOTTrace isAbandoned]
-[HMDOTTrace cacheLock]
-[HMDOTTrace cachedSpans]
-[HMDOTSpan reportDictionary]
-[HMDOTSpan setIsReporting:]
-[HMDOTSpan operationName]
-[HMDOTSpan parentID]
_$s17LarkFeatureGatingAAC6sharedABvau
_globalinit_33_1DF92BE20E05D5DDF2A98C78FEAC1B19_func0
_$s17LarkFeatureGatingAACMa
_$s17LarkFeatureGatingAACABycfC
_$s17LarkFeatureGatingAACABycfc
_$s17LarkFeatureGating0abC10Dependency_pSgWOb
-[HMDOTSpan referenceID]
-[HMDOTSpan startTimestamp]
-[HMDOTSpan finishTimestamp]
-[HMDOTSpan logs]
-[HMDOTSpan threadID]
-[HMDStoreCondition .cxx_destruct]
_$s17LarkFeatureGating0bC3KeyOMa
_$s13LarkOpenTrace06LKOpenC6LoggerC6logger16LKCommonsLogging3Log_pvau
_globalinit_33_DF7B93735971CF8BC2F48B711AFD7274_func0
_$s13LarkOpenTrace06LKOpenC6LoggerCMa
_$s10Foundation4DateVSgWOh
_$s17LarkFeatureGating0bC3KeyOSHAASQWb
_$s17LarkFeatureGating0bC3KeyOACSQAAWl
_$s7RxSwift14PublishSubjectCMa
_$s7RxSwift14PublishSubjectCMi
_$s7RxSwift14PublishSubjectCMr
_$s7RxSwift5EventOMa
_$s7RxSwift5EventOMi
_$s7RxSwift5EventOMr
_$s7RxSwift10ObservableCMa
_$s7RxSwift10ObservableCMi
_$s7RxSwift10ObservableCMr
_$s7RxSwift14PublishSubjectCACyxGycfC
_$s11LarkAccount0B8AssemblyCMa
_$s11LarkAccount0B8AssemblyCACycfC
_$s11LarkAccount0B8AssemblyCACycfc
_$s14SuiteAppConfig0abC8AssemblyCMa
_$s14SuiteAppConfig0abC8AssemblyCACycfC
_$s14SuiteAppConfig0abC8AssemblyCACycfc
_$s7RxSwift14PublishSubjectCACyxGycfc
_$s7RxSwift3BagVACyxGycfC
_$s7RxSwift3BagVMa
_$s7RxSwift3BagVMi
_$s7RxSwift3BagVMr
_$s7RxSwift6BagKeyV8rawValueACs6UInt64V_tc33_EF97F41FBFA5E75E06F940C78A788615LlfC
_$sxSglWOb
_$s7RxSwift3BagVyxGlWOb
_$s7RxSwift5EventOyxGSglWOb
_$s7RxSwift22SynchronizationTrackerCMa
_$s7RxSwift22SynchronizationTrackerCACycfC
_$s7RxSwift22SynchronizationTrackerCACycfc
_$s7RxSwift10ObservableCACyxGycfc
_$s17LarkFeatureGating0abC21DefaultImplDependencyCMa
_$s17LarkFeatureGating0abC21DefaultImplDependencyCMr
_$s13LarkContainer8ProviderVy0A10RustClient0D7Service_pGMa
_$s14LarkRustClient0B7Service_pMa
_$s17LarkFeatureGating0abC21DefaultImplDependencyCACycfC
_$s17LarkFeatureGating0abC21DefaultImplDependencyCACycfc
_$s13LarkContainer8ProviderVACyxGycfC
_$s17LarkFeatureGating0abC10Dependency_pSgWOd
_$s17LarkFeatureGatingAAC07featureC12StringNotify7RxSwift10ObservableCySDySSSbGGvg
_$s22LarkRustClientAssembly0bcD0CMa
_$s22LarkRustClientAssembly0bcD0CACycfC
_$s22LarkRustClientAssembly0bcD0CACycfc
_$s17LarkFeatureGating0bC8AssemblyCMa
_$s17LarkFeatureGating0bC8AssemblyCACycfC
_$s17LarkFeatureGating0bC8AssemblyCACycfc
_$s13LarkAppConfig0C8AssemblyCMa
_$s13LarkAppConfig0C8AssemblyCACycfC
_$s13LarkAppConfig0C8AssemblyCACycfc
_$s9LarkDebug0B8AssemblyCMa
_$s9LarkDebug0B8AssemblyCACycfC
_$s9LarkDebug0B8AssemblyCACycfc
_$s15LarkBaseService0abC8AssemblyCMa
_$s15LarkBaseService0abC8AssemblyCACycfC
_$s15LarkBaseService0abC8AssemblyCACycfc
_$s16LarkPrivacyAlert0bC8AssemblyCMa
_$s16LarkPrivacyAlert0bC8AssemblyCACycfC
_$s16LarkPrivacyAlert0bC8AssemblyCACycfc
_$s15LarkLaunchGuide0bC8AssemblyCMa
_$s15LarkLaunchGuide0bC8AssemblyCACycfC
_$s15LarkLaunchGuide0bC8AssemblyCACycfc
_$s21LarkPushTokenUploader0abcD8AssemblyCMa
_$s21LarkPushTokenUploader0abcD8AssemblyCACycfC
_$s21LarkPushTokenUploader0abcD8AssemblyCACycfc
_$s8LarkTour0B8AssemblyCMa
_$s7RxSwift14PublishSubjectC10asObserverACyxGyF
_$s8LarkTour0B8AssemblyCACycfC
_$s8LarkTour0B8AssemblyCACycfc
_$s7RxSwift10ObservableCyxGAA0C4TypeAAWI
_$s7RxSwift14ObservableTypePAAE9subscribe6onNext0F5Error0F9Completed0F8DisposedAA10Disposable_py7ElementQzcSg_ys0H0_pcSgyycSgAOtF
_$s7RxSwift11DisposablesV6createAA10Disposable_pyFZ
_$s7RxSwift13NopDisposable33_81EFC8DBABA05BFAC9E8C8953584E729LLV4noOpAA0D0_pvau
_globalinit_33_81EFC8DBABA05BFAC9E8C8953584E729_func13
_$s7RxSwift13NopDisposable33_81EFC8DBABA05BFAC9E8C8953584E729LLVADycfC
_$s7RxSwift10Disposable_pWOc
_$s7RxSwift10Disposable_pWOb
_$s7RxSwift5HooksO22recordCallStackOnErrorSbvau
_globalinit_33_ACD2A811A969D79B6602FCDD255401CE_func17
_$s7RxSwift17AnonymousObserverCMa
_$s7RxSwift17AnonymousObserverCMi
_$s7RxSwift17AnonymousObserverCMr
_$s14LarkCreateTeam0bC8AssemblyCMa
_$s14LarkCreateTeam0bC8AssemblyCMr
_$s13LarkContainer8ProviderVy0A16AccountInterface25PassportWebViewDependency_pGMa
_$s20LarkAccountInterface25PassportWebViewDependency_pMa
_$s14LarkCreateTeam0bC8AssemblyCACycfC
_$s14LarkCreateTeam0bC8AssemblyCACycfc
_$s14LarkNavigation0B8AssemblyCMa
_$s14LarkNavigation0B8AssemblyCACycfC
_$s14LarkNavigation0B8AssemblyCACycfc
_$s7RxSwift12ObserverBaseCMa
_$s7LarkSDK11SDKAssemblyCMa
_$s7RxSwift12ObserverBaseCMi
_$s7LarkSDK11SDKAssemblyCACycfC
_$s7RxSwift12ObserverBaseCMr
_$s7LarkSDK11SDKAssemblyCACycfc
_$sxly7Element7RxSwift25ObservableConvertibleTypePQzIsegn_SgAB0dF0RzlWOy
_$ss5Error_pIegg_SgWOy
_$s7RxSwift17AnonymousObserverCyACyxGyAA5EventOyxGccfC
_$s7RxSwift17AnonymousObserverCyACyxGyAA5EventOyxGccfc
_$s7RxSwift12ObserverBaseCACyxGycfc
_$s7RxSwift9AtomicIntCMa
_$s7RxSwift9AtomicIntCyACs5Int32VcfC
_$s7RxSwift9AtomicIntCyACs5Int32Vcfc
_$s16LarkOpenPlatform0bC8AssemblyCMa
_$s7RxSwift10ObservableCyxGAA0C15ConvertibleTypeA2aEP02asC0ACy7ElementQzGyFTW
_$s7RxSwift10ObservableC02asC0ACyxGyF
_$s16LarkOpenPlatform0bC8AssemblyCACycfC
_$s16LarkOpenPlatform0bC8AssemblyCACycfc
_$s7RxSwift14PublishSubjectC9subscribeyAA10Disposable_pqd__7ElementQyd__RszAA12ObserverTypeRd__lF
_$s7RxSwift14PublishSubjectC23_synchronized_subscribeyAA10Disposable_pqd__7ElementQyd__RszAA12ObserverTypeRd__lF
_$s13LarkMessenger0B8AssemblyCMa
_$s13LarkMessenger0B21AssemblyDefaultConfigVACycfC
_$s13LarkMessenger0B8AssemblyC6configAC0A4Chat0eC6Config_AE03NewecF00A7Contact0hcF00A6Urgent0icF0p_tcfC
_$s13LarkMessenger0B8AssemblyC6configAC0A4Chat0eC6Config_AE03NewecF00A7Contact0hcF00A6Urgent0icF0p_tcfc
_$s8LarkChat0B14AssemblyConfig_AA03NewbcD00A7Contact0fcD00A6Urgent0gcD0pWOc
_$s8LarkChat0B14AssemblyConfig_AA03NewbcD00A7Contact0fcD00A6Urgent0gcD0pWOb
___swift_destroy_boxed_opaque_existential_4
_$s7RxSwift5EventOyxGSg7ElementQyd__RszAA12ObserverTypeRd__r__lWOc
_$s7RxSwift5EventOyxGSg7ElementQyd__RszAA12ObserverTypeRd__r__lWOh
_$s7RxSwift14PublishSubjectC23_synchronized_subscribeyAA10Disposable_pqd__7ElementQyd__RszAA12ObserverTypeRd__lFyAA5EventOyxGcqd__cfu_
_$s7RxSwift3BagV6insertyAA0C3KeyVxF
_$sxSglWOd
_$s7RxSwift22SubscriptionDisposableVMa
_$s7RxSwift22SubscriptionDisposableVMi
_$s7RxSwift22SubscriptionDisposableVMr
_$s7RxSwift6BagKeyVMa
_$s7RxSwift22SubscriptionDisposableV5owner3keyACyxGx_10DisposeKeyQztcfC
_$s7RxSwift22SubscriptionDisposableVyxGAA27SynchronizedUnsubscribeTypeRzlWOc
_$s7RxSwift22SubscriptionDisposableVyxGAA27SynchronizedUnsubscribeTypeRzlWOh
_$s7RxSwift22SubscriptionDisposableVwCP
_$s7RxSwift11DisposablesV6createyAA10Cancelable_pAA10Disposable_p_AaF_ptFZ
_$s7RxSwift16BinaryDisposable33_7413E6CD8B22AEAFB6AE58B0BDB57F57LLCMa
_$s7RxSwift16BinaryDisposable33_7413E6CD8B22AEAFB6AE58B0BDB57F57LLCyAdA0D0_p_AaE_ptcfC
_$s7RxSwift16BinaryDisposable33_7413E6CD8B22AEAFB6AE58B0BDB57F57LLCyAdA0D0_p_AaE_ptcfc
_$s7RxSwift10Disposable_pSgWOb
_$s7RxSwift10Disposable_pSgWOd
_$s7RxSwift10DisposablePAAE8disposed2byyAA10DisposeBagC_tF
_$s7RxSwift10DisposeBagC6insertyyAA10Disposable_pF
_$s7RxSwift10DisposeBagC7_insert33_03E724465796DF1CCE6D54B8F50615F9LLyAA10Disposable_pSgAaF_pF
_$s7RxSwift10DisposeBagC7_insert33_03E724465796DF1CCE6D54B8F50615F9LLyAA10Disposable_pSgAaF_pF6$deferL_yyF
_$s7RxSwift10Disposable_pSgWOh
_$s12LarkLeanMode0bC8AssemblyCMa
_$s12LarkLeanMode0bC8AssemblyCACycfC
_$s12LarkLeanMode0bC8AssemblyCACycfc
_$s8Calendar0A8AssemblyCMa
_$s8Calendar0A8AssemblyCACycfC
_$s8Calendar0A8AssemblyCACycfc
_$s12LarkSpaceKit0bC8AssembleCMa
_$s12LarkSpaceKit0bC8AssembleCACycfC
_$s12LarkSpaceKit0bC8AssembleCACycfc
_$s8LarkMail0B8AssembleCMa
_$s8LarkMail0B8AssembleCACycfC
_$s8LarkMail0B8AssembleCACycfc
_$s8LarkPano0B8AssemblyCMa
_$s8LarkPano0B8AssemblyCACycfC
_$s8LarkPano0B8AssemblyCACycfc
_$s12LarkByteView0abC8AssemblyCMa
_$s12LarkByteView0abC8AssemblyCACycfC
_$s12LarkByteView0abC8AssemblyCACycfc
_$s12LarkByteView0abC8AssemblyC10launchTime10Foundation4DateVvau
_globalinit_33_8C072FA33A3BCE43F2CCC590D6E2FB2C_func41
_$s8ByteView0aB8AssemblyVACycfC
_$s8LarkVoIP0B10IPAssemblyCMa
_$s8LarkVoIP0B10IPAssemblyCACycfC
_$s8LarkVoIP0B10IPAssemblyCACycfc
_$s12LarkWebCache0bC8AssemblyCMa
_$s12LarkWebCache0bC8AssemblyCACycfC
_$s12LarkWebCache0bC8AssemblyCACycfc
_$s15LarkAppStateSDK0abC11SDKAssemblyCMa
_$s15LarkAppStateSDK0abC11SDKAssemblyCACycfC
_$s15LarkAppStateSDK0abC11SDKAssemblyCACycfc
_$s13LarkAppCenter17WorkPlaceAssemblyCMa
_$s13LarkAppCenter17WorkPlaceAssemblyCACycfC
_$s13LarkAppCenter17WorkPlaceAssemblyCACycfc
_$s12LarkMicroApp0bC8AssemblyCMa
_$s12LarkMicroApp0bC8AssemblyCACycfC
_$s12LarkMicroApp0bC8AssemblyCACycfc
_$s14LarkAppLinkSDK0bC8AssemblyCMa
_$s14LarkAppLinkSDK0bC8AssemblyCACycfC
_$s14LarkAppLinkSDK0bC8AssemblyCACycfc
_$s15LarkTabMicroApp0bcD8AssemblyCMa
_$s15LarkTabMicroApp0bcD8AssemblyCACycfC
_$s15LarkTabMicroApp0bcD8AssemblyCACycfc
_$s8LarkTodo0B8AssemblyCMa
_$s8LarkTodo0B8AssemblyCACycfC
_$s8LarkTodo0B8AssemblyCACycfc
_$s12LarkHelpdesk0B8AssemblyCMa
_$s12LarkHelpdesk0B8AssemblyCACycfC
_$s12LarkHelpdesk0B8AssemblyCACycfc
_$s6SecSDK0A13GuardAssemblyCMa
_$s6SecSDK0A13GuardAssemblyCACycfC
_$s6SecSDK0A13GuardAssemblyCACycfc
_$s12LarkSnsShare0abC12BaseAssemblyCMa
_$s12LarkSnsShare0abC12BaseAssemblyCACycfC
_$s12LarkSnsShare0abC12BaseAssemblyCACycfc
_$s12LarkSnsShare0abC8AssemblyCMa
_$s12LarkSnsShare0abC8AssemblyCACycfC
_$s12LarkSnsShare0abC8AssemblyCACycfc
_$s18LarkSettingsBundle0bC8AssemblyCMa
_$s18LarkSettingsBundle0bC8AssemblyCACycfC
_$s18LarkSettingsBundle0bC8AssemblyCACycfc
_$s10LarkBanner0aB8AssemblyCMa
_$s10LarkBanner0aB8AssemblyCACycfC
_$s10LarkBanner0aB8AssemblyCACycfc
_$s10LarkSplash0B8AssemblyCMa
_$s10LarkSplash0B8AssemblyCACycfC
_$s10LarkSplash0B8AssemblyCACycfc
_$s7Blockit0A8AssemblyCMa
_$s7Blockit0A8AssemblyCACycfC
_$s7Blockit0A8AssemblyCACycfc
_$s9ZeroTrust0aB8AssemblyCMa
_$s9ZeroTrust0aB8AssemblyCACycfC
_$s9ZeroTrust0aB8AssemblyCACycfc
_$s9LarkMagic0B8AssemblyCMa
_$s9LarkMagic0B8AssemblyCACycfC
_$s9LarkMagic0B8AssemblyCACycfc
_$s17LarkSecurityAudit0bC8AssemblyCMa
_$s17LarkSecurityAudit0bC8AssemblyCACycfC
_$s17LarkSecurityAudit0bC8AssemblyCACycfc
_$s9LarkGuide0aB8AssemblyCMa
_$s9LarkGuide0aB8AssemblyCACycfC
_$s9LarkGuide0aB8AssemblyCACycfc
_$s17LarkWidgetService0aB8AssemblyCMa
_$s17LarkWidgetService0aB8AssemblyCACycfC
_$s17LarkWidgetService0aB8AssemblyCACycfc
_$s18LarkShareContainer0abC8AssemblyCMa
_$s18LarkShareContainer0abC8AssemblyCACycfC
_$s18LarkShareContainer0abC8AssemblyCACycfc
_$s15LarkSuspendable15SuspendAssemblyCMa
_$s15LarkSuspendable15SuspendAssemblyCACycfC
_$s15LarkSuspendable15SuspendAssemblyCACycfc
_$s11LarkMinutes0aB8AssemblyCMa
_$s11LarkMinutes0aB8AssemblyCACycfC
_$s11LarkMinutes0aB8AssemblyCACycfc
_$s11BootManager14GlobalTaskRepoC9onceTasksShySSGvM
_$s11BootManager14GlobalTaskRepoC9onceTasksShySSGvM.resume.0
_$s13ByteViewDebug0C8AssemblyCMa
_$s13ByteViewDebug0C8AssemblyCACycfC
_$s13ByteViewDebug0C8AssemblyCACycfc
_$s8Swinject9AssemblerCMa
_$s12AppContainer10BootLoaderC9container8Swinject0B0CvgZ
_$s8Swinject9AssemblerC_9containerACSayAA8Assembly_pG_AA9ContainerCtcfC
_$s8Swinject9AssemblerC_9containerACSayAA8Assembly_pG_AA9ContainerCtcfc
_$s8Swinject9AssemblerC_9containerACSayAA8Assembly_pG_AA9ContainerCtcfcyAaE_pXEfU_TA
_$s8Swinject9AssemblerC_9containerACSayAA8Assembly_pG_AA9ContainerCtcfcyAaE_pXEfU_
_$s8Swinject9ContainerC8register_4name7factoryAA12ServiceEntryCyxGxm_SSSgxAA8Resolver_pctlF
_$s8Swinject9ContainerC16internalRegister_4name7factoryAA12ServiceEntryCyxGxm_SSSgxq_ctr0_lF
_$s8Swinject12ServiceEntryCMa
_$s8Swinject12ServiceEntryCMi
_$s8Swinject12ServiceEntryCMr
_$s8Swinject8signPost9eventName0bcE05osLog9isEnabled5blockxSSyXK_s12StaticStringVyXKSo03OS_F4_logCSbxyXEtlFfA1_
_$s8Swinject5osLogSo03OS_B4_logCvg
_$s8Swinject5osLogSo03OS_B4_logCvau
_globalinit_33_5C984F8D5B2400C504D8AF4467141F64_func5
_$s8Swinject8signPost9eventName0bcE05osLog9isEnabled5blockxSSyXK_s12StaticStringVyXKSo03OS_F4_logCSbxyXEtlFfA2_
_$s8Swinject14enableSignPostSbvg
_$s8Swinject14enableSignPostSbvau
_globalinit_33_5C984F8D5B2400C504D8AF4467141F64_func4
_$s8Swinject8signPost9eventName0bcE05osLog9isEnabled5blockxSSyXK_s12StaticStringVyXKSo03OS_F4_logCSbxyXEtlF
_$s8Swinject12ServiceEntryCyxGIgo_ADIegr_r0_lTRTA
_$s8Swinject12ServiceEntryCyxGIgo_ADIegr_r0_lTR
_$s8Swinject9ContainerC16internalRegister_4name7factoryAA12ServiceEntryCyxGxm_SSSgxq_ctr0_lFAIyXEfU_TA
_$s8Swinject9ContainerC16internalRegister_4name7factoryAA12ServiceEntryCyxGxm_SSSgxq_ctr0_lFAIyXEfU_
_$s8Swinject10ServiceKeyV11serviceType09argumentsE04nameACypXp_ypXpSSSgtcfC
_$s8Swinject10ServiceKeyVWOh
_$s8Swinject12ServiceEntryC11serviceType09argumentsE07factoryACyxGxm_ypXpyptcfC
_$s8Swinject12ServiceEntryC11serviceType09argumentsE07factoryACyxGxm_ypXpyptcfc
_$s8Swinject11ObjectScopeCMa
_$s8Swinject11ObjectScopeC7defaultACvgZ
_$s8Swinject11ObjectScopeC5graphACvau
_globalinit_33_DBAC70D65921B7B029DA4439DB68C609_func2
_$s8Swinject11ObjectScopeC9temporaryACSb_tcfC
_$s8Swinject11ObjectScopeC9temporaryACSb_tcfc
_$s8Swinject10ServiceKeyVMa
_$s8Swinject10ServiceKeyVSHAASH13_rawHashValue4seedS2i_tFTW
_$s8Swinject10ServiceKeyVSHAASH4hash4intoys6HasherVz_tFTW
_$s8Swinject10ServiceKeyV4hash4intoys6HasherVz_tF
_$s11LarkAccount0B8AssemblyC8Swinject0C0AadEP8assemble9containeryAD9ContainerC_tFTW
_$s11LarkAccount0B8AssemblyC8assemble9containery8Swinject9ContainerC_tF
_$s8Swinject9AssemblerC32allowResolveListsWhileAssemblingSaySSGvMZ
_$s8Swinject9AssemblerC32allowResolveListsWhileAssemblingSaySSGvau
_globalinit_33_6BC9021A14E6F9B4DEC5F8BF06E74773_func0
_$s8Swinject9AssemblerC32allowResolveListsWhileAssemblingSaySSGvMZ.resume.0
_$s11LarkAccount0B8AssemblyC14publicAssebmle33_65BEB9A337320A208CC125CED6C564BCLL9containery8Swinject9ContainerC_tF
_$s11LarkAccount8LauncherCACycfC
_$s11LarkAccount8LauncherCACycfc
_$s13LarkContainer12InjectedLazyVACyxGycfC
_$s13LarkContainer12InjectedLazyVyxGlWOb
_$s11LarkAccount8LauncherCAC0aB9Interface0B7ServiceAAWl
_$s20LarkAccountInterface0B14ServiceAdapterO5setup07accountD3ImpyAA0bD0_p_tFZ
_$s20LarkAccountInterface06staticB10ServiceImp33_68C5B850F1DCEBD7F7DA7FF0B9ECFB82LLAA0bE0_pSgvau
_globalinit_33_68C5B850F1DCEBD7F7DA7FF0B9ECFB82_func10
_$s8Swinject10ServiceKeyVwcp
_$s8Swinject10ServiceKeyVSQAASQ2eeoiySbx_xtFZTW
_$s8Swinject2eeoiySbAA10ServiceKeyV_ADtF
_$s8Swinject10ServiceKeyVwxx
_$s8Swinject11ObjectScopeC9containerACvgZ
_$s8Swinject11ObjectScopeC9containerACvau
_globalinit_33_DBAC70D65921B7B029DA4439DB68C609_func3
_$s8Swinject12ServiceEntryC13inObjectScopeyACyxGXDAA0eF0CF
_$s11LarkAccount0B8AssemblyC16internalAssemble33_65BEB9A337320A208CC125CED6C564BCLL9containery8Swinject9ContainerC_tF
_$s11LarkAccount12PassportConfCMa
_$s11LarkAccount21UnloginProcessHandlerCMa
_$s11LarkAccount21UnloginProcessHandlerCMr
_$s11LarkAccount15NativeLogoutAPICMa
_$s11LarkAccount15NativeLogoutAPICMr
_$s11LarkAccount0B8AssemblyC22internalPluginAssemble33_65BEB9A337320A208CC125CED6C564BCLL9containery8Swinject9ContainerC_tF
_$s8Swinject11ObjectScopeC13LarkContainerE4userACvgZ
_$s8Swinject11ObjectScopeC13LarkContainerE4userACvau
_globalinit_33_F11A763EBF89F007528799852B88038E_func0
_$s8Swinject11ObjectScopeC14storageFactory11descriptionAcA16PermanentStorageVyc_SStcfcfA0_
_$s8Swinject11ObjectScopeC14storageFactory11descriptionAcA16PermanentStorageVyc_SStcfC
_$s11LarkAccount0B8AssemblyC12subAssemlies33_65BEB9A337320A208CC125CED6C564BCLLSay8Swinject0C0_pGvg
_$s11LarkAccount0B8AssemblyC12subAssemlies33_65BEB9A337320A208CC125CED6C564BCLLSay8Swinject0C0_pGvgAHyXEfU_
_$s11LarkAccount17ExtensionAssemblyCMa
_$s11LarkAccount17ExtensionAssemblyCACycfC
_$s11LarkAccount17ExtensionAssemblyCACycfc
_$s11LarkAccount17ExtensionAssemblyCAC8Swinject0D0AAWl
_$s11LarkAccount18RustPluginAssemblyCMa
_$s11LarkAccount18RustPluginAssemblyCMr
_$s11LarkAccount18RustPluginAssemblyCACycfC
_$s11LarkAccount18RustPluginAssemblyCACycfc
_$s11LarkAccount18RustPluginAssemblyCAC8Swinject0E0AAWl
_$s11LarkAccount20NativePluginAssemblyCMa
_$s11LarkAccount20NativePluginAssemblyCACycfC
_$s11LarkAccount20NativePluginAssemblyCACycfc
_$s11LarkAccount20NativePluginAssemblyCAC8Swinject0E0AAWl
_$s11LarkAccount21AuthorizationAssemblyCMa
_$s11LarkAccount21AuthorizationAssemblyCACycfC
_$s11LarkAccount21AuthorizationAssemblyCACycfc
_$s11LarkAccount21AuthorizationAssemblyCAC8Swinject0D0AAWl
_$s11LarkAccount0B8AssemblyC8assemble9containery8Swinject9ContainerC_tFyAF0C0_pXEfU_TA
_$s11LarkAccount0B8AssemblyC8assemble9containery8Swinject9ContainerC_tFyAF0C0_pXEfU_
_$s8Swinject8AssemblyP8assemble9containeryAA9ContainerC_tFTj
_$s11LarkAccount17ExtensionAssemblyC8Swinject0D0AadEP8assemble9containeryAD9ContainerC_tFTW
_$s11LarkAccount17ExtensionAssemblyC8assemble9containery8Swinject9ContainerC_tF
_$s6RustPB16Basic_V1_CommandOMa
_$s8Swinject8ResolverP13LarkContainerE10pushCenterAD016PushNotificationF0Cvg
_$s13LarkContainer22pushNotificationCenterAA04PushdE0Cvau
_globalinit_33_F11A763EBF89F007528799852B88038E_func1
_$s13LarkContainer22PushNotificationCenterCMa
_$s13LarkContainer22PushNotificationCenterCACycfC
_$s13LarkContainer22PushNotificationCenterCACycfc
_$sSo17OS_dispatch_queueC8DispatchE5label3qos10attributes20autoreleaseFrequency6targetABSS_AC0D3QoSVAbCE10AttributesVAbCE011AutoreleaseI0OABSgtcfcfA0_
_$s6RustPB16Basic_V1_CommandOACSHAAWl
_$s6RustPB16Basic_V1_CommandOSHAASQWb
_$s6RustPB16Basic_V1_CommandOACSQAAWl
_$s6RustPB16Basic_V1_CommandOwui
_$s6RustPB16Basic_V1_CommandOSHAASH13_rawHashValue4seedS2i_tFTW
_$s6RustPB16Basic_V1_CommandOACSYAAWl
_$s6RustPB16Basic_V1_CommandOSHAASH4hash4intoys6HasherVz_tFTW
_$s6RustPB16Basic_V1_CommandOAC13SwiftProtobuf4EnumAAWl
_$s6RustPB16Basic_V1_CommandO13SwiftProtobuf4EnumAASHWb
_$s6RustPB16Basic_V1_CommandO13SwiftProtobuf4EnumAASYWb
_$s13SwiftProtobuf4EnumPAAE4hash4intoys6HasherVz_tF
___swift_memcpy2_2
_$s6RustPB16Basic_V1_CommandO13SwiftProtobuf4EnumAadEP8rawValueSivgTW
_$s6RustPB16Basic_V1_CommandO8rawValueSivg
_$s14LarkRustClient19PushHandlerRegistryO6sharedAA0abdeF0_pvgZ
_$s14LarkRustClient19PushHandlerRegistryO6sharedAA0abdeF0_pvau
_globalinit_33_847379A0E3729CBE348D9C9E17C500E7_func12
_$s14LarkRustClient0aB23PushHandlerRegistryImplCMa
_$s14LarkRustClient0aB23PushHandlerRegistryImplCACycfC
_$s14LarkRustClient0aB23PushHandlerRegistryImplCACycfc
_$s14LarkRustClient0aB19PushHandlerRegistry_pWOc
_$s14LarkRustClient0aB19PushHandlerRegistryP8register12pushHandlersySDy0B2PB16Basic_V1_CommandOAA0bdE0_pycG_tFTj
_$s14LarkRustClient0aB23PushHandlerRegistryImplCAA0abdeF0A2aDP8register12pushHandlersySDy0B2PB16Basic_V1_CommandOAA0bdE0_pycG_tFTW
_$s14LarkRustClient0aB23PushHandlerRegistryImplC8register12pushHandlersySDy0B2PB16Basic_V1_CommandOAA0bdE0_pycG_tF
_$s23LarkDebugExtensionPoint0B8RegistryO08registerB4Item_2toyAA0b4CellG0_pyXA_AA11SectionTypeOtFZ
_$sSDy6RustPB16Basic_V1_CommandO04LarkA6Client0A11PushHandler_pycGWOh
_$s11LarkAccount18RustPluginAssemblyC8Swinject0E0AadEP8assemble9containeryAD9ContainerC_tFTW
_$s11LarkAccount18RustPluginAssemblyC8assemble9containery8Swinject9ContainerC_tF
_$s11LarkAccount18RustPluginAssemblyC6logger16LKCommonsLogging3Log_pvau
_globalinit_33_23AF94F6E4B163A0692AB9B916C7B5C4_func545
_$s11LarkAccount18RustPluginAssemblyC29assembleRegisterDynamicDomain33_23AF94F6E4B163A0692AB9B916C7B5C4LLyyF
_$s20LarkAccountInterface22DomainProviderRegistryCMa
_$s11LarkAccount25RustDynamicDomainProviderCMa
_$s11LarkAccount25RustDynamicDomainProviderCACycfC
_$s11LarkAccount25RustDynamicDomainProviderCACycfc
_$s11LarkAccount25RustDynamicDomainProviderCAC0aB9Interface0eF8ProtocolAAWl
_$sSi20LarkAccountInterfaceE6mediumSivgZ
_$sSi20LarkAccountInterfaceE6mediumSivau
_globalinit_33_459B149EE524BF496773A4391E078A19_func29
_$s20LarkAccountInterface22DomainProviderRegistryC8register5value8priorityyAA0dE8Protocol_p_SitFZ
_$s20LarkAccountInterface22DomainProviderRegistryC10registeredSayAA0dE8Protocol_p5value_Si8prioritytGvau
_globalinit_33_459B149EE524BF496773A4391E078A19_func32
_$s20LarkAccountInterface22DomainProviderProtocol_pWOc
_$s20LarkAccountInterface22DomainProviderProtocol_pWOb
_$s20LarkAccountInterface19URLProviderRegistryCMa
_$s11LarkAccount22RustDynamicURLProviderCMa
_$s11LarkAccount22RustDynamicURLProviderCACycfC
_$s11LarkAccount22RustDynamicURLProviderCACycfc
_$s11LarkAccount22RustDynamicURLProviderCAC0aB9Interface0E8ProtocolAAWl
_$s20LarkAccountInterface19URLProviderRegistryC8register5value8priorityyAA0D8Protocol_p_SitFZ
_$s20LarkAccountInterface19URLProviderRegistryC10registeredSayAA0D8Protocol_p5value_Si8prioritytGvau
_globalinit_33_459B149EE524BF496773A4391E078A19_func33
_$s20LarkAccountInterface19URLProviderProtocol_pWOc
_$s20LarkAccountInterface19URLProviderProtocol_pWOb
_$s11LarkAccount21RustStaticURLProviderCMa
_$s11LarkAccount21RustStaticURLProviderCACycfC
_$s11LarkAccount21RustStaticURLProviderCACycfc
_$s11LarkAccount21RustStaticURLProviderCAC0aB9Interface0E8ProtocolAAWl
_$sSi20LarkAccountInterfaceE3lowSivgZ
_$sSi20LarkAccountInterfaceE3lowSivau
_globalinit_33_459B149EE524BF496773A4391E078A19_func30
_$s11LarkAccount18RustPluginAssemblyC19assemblePushHandler33_23AF94F6E4B163A0692AB9B916C7B5C4LL9containery8Swinject9ContainerC_tF
_$s6RustPB16Basic_V1_CommandOSQAASQ2eeoiySbx_xtFZTW
_$s6RustPB16Basic_V1_CommandOSYAASY8rawValue03RawG0QzvgTW
_$s11LarkAccount18RustPluginAssemblyC28assembleAppLinkAndShareToken33_23AF94F6E4B163A0692AB9B916C7B5C4LLyyF
_$s14LarkAppLinkSDK15registerHandler4path7handlerySS_yAA0bC0VctF
_$s14LarkAppLinkSDK0bcD0C6logger33_F7F8072F5481E35CF7C093104BC45E7ALL16LKCommonsLogging3Log_pvau
_globalinit_33_F7F8072F5481E35CF7C093104BC45E7A_func21
_$s14LarkAppLinkSDK0bcD0CMa
_$s16LKCommonsLogging6LoggerC8ECOProbeE5oplog_8categoryAA3Log_pyp_SStFZ
_$s8ECOProbe16opCategoryPrefix33_5F1A9463D7CFC1BB7ED21BE947E0D60DLLSSvau
_globalinit_33_5F1A9463D7CFC1BB7ED21BE947E0D60D_func0
_$s14LarkAppLinkSDK0bcD0C8handlers33_F7F8072F5481E35CF7C093104BC45E7ALLSDySSyAA0bC0VcGvau
_globalinit_33_F7F8072F5481E35CF7C093104BC45E7A_func22
_$s14LarkAppLinkSDK0bC0VMa
_$s14LarkAppLinkSDK0bC0VMr
_$s11EENavigator8OpenTypeOMa
_$s20LarkAccountInterface24UnloginWhitelistRegistryO08registerdE0yySSFZ
_$s20LarkAccountInterface16unloginWhitelistSaySSGvau
_globalinit_33_7921EBEB54B12358B6717693ABDE71B6_func34
_$s14LarkShareToken0bC7ManagerCMa
_$s14LarkShareToken0bC7ManagerC6sharedACvgZ
_$s14LarkShareToken0bC7ManagerC6sharedACvau
_globalinit_33_8946161E6E4D589F88462C0B67A22756_func2
_$s14LarkShareToken0bC7ManagerCACycfC
_$s14LarkShareToken0bC7ManagerCACycfc
_$s14LarkShareToken0bC7ManagerC15registerHandler6source7handlerySS_ySDyS2SGctF
_$s11LarkAccount18RustPluginAssemblyC28assembleAppLinkAndShareToken33_23AF94F6E4B163A0692AB9B916C7B5C4LLyyFy0agH3SDK0gH0VcfU7_TA
_$s11LarkAccount18BaseSessionManagerCMa
_$s11LarkAccount18BaseSessionManagerC16httpUrlProtocolsSaySo13NSURLProtocolCmGSgvau
_globalinit_33_50002CC23E469B8047EF5B750BECDBBF_func579
_$s11LarkAccount22ApiRustHTTPURLProtocolCMa
_$s11LarkAccount12PassportConfC6sharedACvau
_globalinit_33_49A1810F1618DD36229B941B99ED8CFA_func386
_$s11LarkAccount12PassportConfCACyc33_49A1810F1618DD36229B941B99ED8CFALlfC
_$s11LarkAccount12PassportConfCACyc33_49A1810F1618DD36229B941B99ED8CFALlfc
_$s20LarkAccountInterface0A5AppIDV4larkSivgZ
_$s20LarkAccountInterface0A5AppIDV4larkSivau
_globalinit_33_68C5B850F1DCEBD7F7DA7FF0B9ECFB82_func14
_$s11LarkAccount12PassportConfC7groupIdSSvpfiSSyXEfU_
_$s17LarkReleaseConfig0bC0CMa
_$s17LarkReleaseConfig0bC0C7groupIdSSvgZ
_$s17LarkReleaseConfig0bC0C7groupIdSSvau
_globalinit_33_B0E3233F138E96FFF49724B6C7F3A381_func8
_$s17LarkReleaseConfig0bC0C7groupIdSSvpZfiSSyXEfU_
_$s20LarkAccountInterface16H5ReplaceFeatureO8allCasesSayACGvgZ
_$s11LarkAccount0B9FGDefaultCMa
_$s11LarkAccount0B9FGDefaultCACycfC
_$s11LarkAccount0B9FGDefaultCACycfc
_$s11LarkAccount0B9FGDefaultCAC0aB9Interface10FGProtocolAAWl
_$s20LarkAccountInterface10FGProtocol_pWOb
_$s11LarkAccount0B20FeatureSwitchDefaultCMa
_$s11LarkAccount0B20FeatureSwitchDefaultCACycfC
_$s11LarkAccount0B20FeatureSwitchDefaultCACycfc
_$s11LarkAccount0B20FeatureSwitchDefaultCAC0aB9Interface0cD8ProtocolAAWl
_$s20LarkAccountInterface21FeatureSwitchProtocol_pWOb
_$s11LarkAccount16AppConfigDefaultCMa
_$s11LarkAccount16AppConfigDefaultCACycfC
_$s11LarkAccount16AppConfigDefaultCACycfc
_$s11LarkAccount16AppConfigDefaultCAC0aB9Interface0cD8ProtocolAAWl
_$s20LarkAccountInterface17AppConfigProtocol_pWOb
_$s11LarkAccount18ServerInfoProviderCMa
_$s11LarkAccount18ServerInfoProviderCACycfC
_$s11LarkAccount18ServerInfoProviderCACycfc
_$s11LarkAccount13FeatureGatingCMa
_$s11LarkAccount13FeatureGatingCACycfC
_$s11LarkAccount13FeatureGatingCACycfc
_$s11LarkAccount13FeatureGatingCAC0aB9Interface10FGProtocolAAWl
_$s11LarkAccount12PassportConfC10fgProtocol0aB9Interface10FGProtocol_pvs
_$s20LarkAccountInterface10FGProtocol_pWOc
_$s11LarkAccount0B9FGDefaultCfD
_$s11LarkAccount0B9FGDefaultCfd
_$s11LarkAccount17RustFeatureSwitchCMa
_$s11LarkAccount17RustFeatureSwitchCACycfC
_$s11LarkAccount17RustFeatureSwitchCACycfc
_$s11LarkAccount17RustFeatureSwitchCAC0aB9Interface0dE8ProtocolAAWl
_$s11LarkAccount12PassportConfC13featureSwitch0aB9Interface07FeatureF8Protocol_pvs
_$s20LarkAccountInterface21FeatureSwitchProtocol_pWOc
_$s11LarkAccount0B20FeatureSwitchDefaultCfD
_$s11LarkAccount0B20FeatureSwitchDefaultCfd
_$s11LarkAccount12AppConfigImpCMa
_$s11LarkAccount12AppConfigImpCMr
_$s13LarkContainer12InjectedLazyVy14SuiteAppConfig0fG7Service_pGMa
_$s14SuiteAppConfig0bC7Service_pMa
_$s11LarkAccount12AppConfigImpCACycfC
_$s11LarkAccount12AppConfigImpCACycfc
_$s11LarkAccount12AppConfigImpCAC0aB9Interface0cD8ProtocolAAWl
_$s11LarkAccount12PassportConfC9appConfig0aB9Interface03AppF8Protocol_pvs
_$s20LarkAccountInterface17AppConfigProtocol_pWOc
_$s11LarkAccount16AppConfigDefaultCfD
_$s11LarkAccount16AppConfigDefaultCfd
_$s11LarkAccount20NativePluginAssemblyC8Swinject0E0AadEP8assemble9containeryAD9ContainerC_tFTW
_$s11LarkAccount20NativePluginAssemblyC8assemble9containery8Swinject9ContainerC_tF
_$s11LarkAccount26NativeStaticDomainProviderCMa
_$s11LarkAccount26NativeStaticDomainProviderCACycfC
_$s11LarkAccount26NativeStaticDomainProviderCACycfc
_$s11LarkAccount26NativeStaticDomainProviderCAC0aB9Interface0eF8ProtocolAAWl
_$sSi20LarkAccountInterfaceE6lowestSivgZ
_$sSi20LarkAccountInterfaceE6lowestSivau
_globalinit_33_459B149EE524BF496773A4391E078A19_func31
_$s11LarkAccount23NativeInjectURLProviderCMa
_$s11LarkAccount23NativeInjectURLProviderCACycfC
_$s11LarkAccount23NativeInjectURLProviderCACycfc
_$s11LarkAccount23NativeInjectURLProviderCAC0aB9Interface0E8ProtocolAAWl
_$sSi20LarkAccountInterfaceE4highSivgZ
_$sSi20LarkAccountInterfaceE4highSivau
_globalinit_33_459B149EE524BF496773A4391E078A19_func28
_$s11LarkAccount23NativeStaticURLProviderCMa
_$s11LarkAccount23NativeStaticURLProviderCACycfC
_$s11LarkAccount23NativeStaticURLProviderCACycfc
_$s11LarkAccount23NativeStaticURLProviderCAC0aB9Interface0E8ProtocolAAWl
_$s11LarkAccount21AuthorizationAssemblyC8Swinject0D0AadEP8assemble9containeryAD9ContainerC_tFTW
_$s11LarkAccount21AuthorizationAssemblyC8assemble9containery8Swinject9ContainerC_tF
_$s11LarkAccount6SSOAPICMa
_$s11LarkAccount6SSOAPICMr
_$s11LarkAccount21AuthorizationAssemblyC14registerRouter015_FEFC32659E8AC9H16C051812BB74182BDLL9containery8Swinject9ContainerC_tF
_$s11EENavigator6RouterC8PriorityOMa
_$s11EENavigator9NavigatorCMa
_$s11EENavigator9NavigatorCMr
_$s11EENavigator16NavigatorTracker33_57FE26580095BE1BD9692BECA9F66EA9LLVMa
_$s11EENavigator16NavigatorTracker33_57FE26580095BE1BD9692BECA9F66EA9LLVMr
_$s11EENavigator6RouterCMa
_$s11EENavigator9NavigatorC6sharedACvgZ
_$s11EENavigator9NavigatorC6sharedACvau
_globalinit_33_57FE26580095BE1BD9692BECA9F66EA9_func16
_$s11EENavigator9NavigatorCACyc33_57FE26580095BE1BD9692BECA9F66EA9LlfC
_$s11EENavigator9NavigatorCACyc33_57FE26580095BE1BD9692BECA9F66EA9LlfcTo
_$s11EENavigator9NavigatorCACyc33_57FE26580095BE1BD9692BECA9F66EA9Llfc
_$s11EENavigator16NavigatorTracker33_57FE26580095BE1BD9692BECA9F66EA9LLV18navigatorStartTime15fromVCClassName13toVCHashValue11shouldTrack0jlC0AD10Foundation4DateV_SSSiSbySS_SSAA0B4TypeOs5Int64VtcSgtcfcfA_
_$s11EENavigator16NavigatorTracker33_57FE26580095BE1BD9692BECA9F66EA9LLV18navigatorStartTime15fromVCClassName13toVCHashValue11shouldTrack0jlC0AD10Foundation4DateV_SSSiSbySS_SSAA0B4TypeOs5Int64VtcSgtcfcfA0_
_$s11EENavigator16NavigatorTracker33_57FE26580095BE1BD9692BECA9F66EA9LLV18navigatorStartTime15fromVCClassName13toVCHashValue11shouldTrack0jlC0AD10Foundation4DateV_SSSiSbySS_SSAA0B4TypeOs5Int64VtcSgtcfcfA1_
_$s11EENavigator16NavigatorTracker33_57FE26580095BE1BD9692BECA9F66EA9LLV18navigatorStartTime15fromVCClassName13toVCHashValue11shouldTrack0jlC0AD10Foundation4DateV_SSSiSbySS_SSAA0B4TypeOs5Int64VtcSgtcfcfA2_
_$s11EENavigator16NavigatorTracker33_57FE26580095BE1BD9692BECA9F66EA9LLV18navigatorStartTime15fromVCClassName13toVCHashValue11shouldTrack0jlC0AD10Foundation4DateV_SSSiSbySS_SSAA0B4TypeOs5Int64VtcSgtcfcfA3_
_$s11EENavigator16NavigatorTracker33_57FE26580095BE1BD9692BECA9F66EA9LLV18navigatorStartTime15fromVCClassName13toVCHashValue11shouldTrack0jlC0AD10Foundation4DateV_SSSiSbySS_SSAA0B4TypeOs5Int64VtcSgtcfC
_$sS2S11EENavigator13NavigatorTypeOs5Int64VIegggyy_SgWOy
_$sS2S11EENavigator13NavigatorTypeOs5Int64VIegggyy_SgWOe
_$s11EENavigator16NavigatorTracker33_57FE26580095BE1BD9692BECA9F66EA9LLVWOc
_$s11EENavigator16NavigatorTracker33_57FE26580095BE1BD9692BECA9F66EA9LLVWOh
_$s11EENavigator16NavigatorTracker33_57FE26580095BE1BD9692BECA9F66EA9LLVWOb
_$s11EENavigator10NaviParamsVMa
_$s11EENavigator10NaviParamsVMr
_$s11EENavigator6RouterCACycfcTo
_$s11EENavigator6RouterCACycfc
_$s11EENavigator10MiddlewareVSgWOb
_$s11EENavigator10MiddlewareVMa
_$s11EENavigator6RouterC8PriorityOAESHAAWl
_$s11EENavigator6RouterC8PriorityOSHAASQWb
_$s11EENavigator6RouterC8PriorityOAESQAAWl
_$s11EENavigator6RouterC7decoder12SuiteCodable17DictionaryDecoderCvpfiAGyXEfU_
_$s12SuiteCodable17DictionaryDecoderC19KeyDecodingStrategyOMa
_$s12SuiteCodable17DictionaryDecoderC18DecodeTypeStrategyOMa
_$s12SuiteCodable17DictionaryDecoderCMa
_$s12SuiteCodable17DictionaryDecoderCACycfC
_$s12SuiteCodable17DictionaryDecoderCACycfc
_$s12SuiteCodable7StorageCMa
_$s12SuiteCodable7StorageCACycfC
_$s12SuiteCodable7StorageCACycfc
_$s12SuiteCodable17DictionaryDecoderC18DecodeTypeStrategyOwui
_$s12SuiteCodable17DictionaryDecoderC18decodeTypeStrategyAC06DecodefG0OvsTj
_$s12SuiteCodable17DictionaryDecoderC18decodeTypeStrategyAC06DecodefG0Ovs
_$s12SuiteCodable17DictionaryDecoderC19KeyDecodingStrategyOwui
_$s12SuiteCodable17DictionaryDecoderC19keyDecodingStrategyAC03KeyfG0OvsTj
_$s12SuiteCodable17DictionaryDecoderC19keyDecodingStrategyAC03KeyfG0Ovs
_$s11EENavigator6RouterC19makeRouteMiddleware33_F6468634524AEC61A3A770436DA097E4LL4withAA0E0VyAH_AA7RequestCAA8ResponseCtcSg_tF
_$s11EENavigator4starSSvau
_globalinit_33_9EC61777C3E1A975A46C1632C70EFC3C_func27
_$s11EENavigator10MiddlewareVAA7RequestCAA8ResponseCIegngg_SgWOy
_$s11EENavigator10MiddlewareV7pattern6tester7handler7optionsACSS_SbAA7RequestCcyAI_AA8ResponseCtcAA7OptionsVtcfcfA0_
_$s11EENavigator13defaultTesterySbAA7RequestCcvau
_globalinit_33_C96CD5E04EE3D731CB6830A5DAC75808_func14
_$s11EENavigator10MiddlewareV7pattern6tester7handler7optionsACSS_SbAA7RequestCcyAI_AA8ResponseCtcAA7OptionsVtcfcfA2_
_$s11EENavigator7OptionsV7defaultACvau
_globalinit_33_D668C8FE1A818EF37D5437CD5DE9E2B3_func19
_$s11EENavigator7OptionsV3endACvau
_globalinit_33_D668C8FE1A818EF37D5437CD5DE9E2B3_func18
_$s11EENavigator7OptionsV8rawValueACSu_tcfC
_$s11EENavigator7OptionsVACs10SetAlgebraAAWl
_$s11EENavigator7OptionsVs10SetAlgebraAASQWb
_$s11EENavigator7OptionsVACSQAAWl
_$s11EENavigator7OptionsVs10SetAlgebraAAs25ExpressibleByArrayLiteralPWb
_$s11EENavigator7OptionsVACs25ExpressibleByArrayLiteralAAWl
_$s11EENavigator7OptionsVMa
_$s11EENavigator7OptionsVs10SetAlgebraAAsADPyxqd__ncSTRd__7ElementQyd__AFRtzlufCTW
_$s11EENavigator7OptionsVs10SetAlgebraAAsADPxycfCTW
_$s11EENavigator7OptionsVACs9OptionSetAAWl
_$s11EENavigator7OptionsVs9OptionSetAASYWb
_$s11EENavigator7OptionsVACSYAAWl
_$s11EENavigator7OptionsVs9OptionSetAAs0D7AlgebraPWb
_$s11EENavigator7OptionsVs9OptionSetAAsADP8rawValuex03RawF0Qz_tcfCTW
_$s11EENavigator7OptionsVs10SetAlgebraAAsADP6insertySb8inserted_7ElementQz17memberAfterInserttAInFTW
_$s11EENavigator7OptionsVs10SetAlgebraAAsADP12intersectionyxxFTW
_$s11EENavigator7OptionsVSYAASY8rawValue03RawD0QzvgTW
_$s11EENavigator7OptionsV8rawValueSuvg
_$s11EENavigator7OptionsVs10SetAlgebraAAsADP16formIntersectionyyxFTW
_$s11EENavigator7OptionsVSQAASQ2eeoiySbx_xtFZTW
_$s11EENavigator7OptionsVs10SetAlgebraAAsADP9formUnionyyxnFTW
_$s11EENavigator10MiddlewareV7pattern6tester7handler7optionsACSS_SbAA7RequestCcyAI_AA8ResponseCtcAA7OptionsVtcfC
_$s11EENavigator21PathPatternURLMatcherCMa
_$s11EENavigator21PathPatternURLMatcherC7pattern7options9immediateACSS_AA7OptionsVSbtcfcfA1_
_$s11EENavigator21PathPatternURLMatcherC7pattern7options9immediateACSS_AA7OptionsVSbtcfC
_$s11EENavigator21PathPatternURLMatcherC7pattern7options9immediateACSS_AA7OptionsVSbtcfc
_$s8EEAtomic8SafeLazyCMa
_$s8EEAtomic8SafeLazyCMi
_$s8EEAtomic8SafeLazyCMr
_$s8EEAtomic8SafeLazyC7StorageOMa
_$s8EEAtomic8SafeLazyC7StorageOMi
_$s8EEAtomic8SafeLazyC7StorageOMr
_$s8EEAtomic8SafeLazyC5blockACyxGxyc_tcfC
_$s8EEAtomic8SafeLazyC5blockACyxGxyc_tcfc
_$s8EEAtomic10AtomicOnceCMa
_$s8EEAtomic10AtomicOnceCACycfC
_$s8EEAtomic10AtomicOnceCACycfc
_$s8EEAtomic8SafeLazyC7StorageOyx_GlWOb
_$s11EENavigator12preloadQueueSo17OS_dispatch_queueCvau
_globalinit_33_9EC61777C3E1A975A46C1632C70EFC3C_func28
_$s11EENavigator10URLMatcher_pWOb
_$s11EENavigator10MiddlewareVWOc
_$s11EENavigator10MiddlewareVWOh
_$s11EENavigator10MiddlewareVAA7RequestCAA8ResponseCIegngg_SgWOe
_$s11EENavigator10MiddlewareVSgWOd
_$s11EENavigator6RouterC19makeRouteMiddleware33_F6468634524AEC61A3A770436DA097E4LL4withAA0E0VyAH_AA7RequestCAA8ResponseCtcSg_tFfA_
_$s11EENavigator21PathPatternURLMatcherC7pattern7options9immediateACSS_AA7OptionsVSbtcfcyycfU0_TA
_$s11EENavigator21PathPatternURLMatcherC7pattern7options9immediateACSS_AA7OptionsVSbtcfcyycfU0_
_$s11EENavigator21PathPatternURLMatcherC4loadyyF
_$s8EEAtomic8SafeLazyC5valuexvg
_$s8EEAtomic8SafeLazyC12wrappedValuexvg
_$s8EEAtomic10AtomicOnceC4once7executeyyyXE_tF
_$sIeg_IyB_TR
_$sIg_Ieg_TRTA
_$sIg_Ieg_TR
_$s8EEAtomic8SafeLazyC12wrappedValuexvgyyXEfU_TA
_$s20LarkAccountInterface13SSOVerifyBodyVMa
_$s8EEAtomic8SafeLazyC12wrappedValuexvgyyXEfU_
_$s20LarkAccountInterface13SSOVerifyBodyVAC11EENavigator0E0AAWl
_$s8EEAtomic8SafeLazyC7StorageOyx_GlWOc
_$sSo19NSRegularExpressionCSaySSGIegoo_AB_ACtIegr_TRTA
_$sSo19NSRegularExpressionCSaySSGIegoo_AB_ACtIegr_TR
_$s11EENavigator21PathPatternURLMatcherC7pattern7options9immediateACSS_AA7OptionsVSbtcfcSo19NSRegularExpressionC_SaySSGtycfU_TA
_$s11EENavigator21PathPatternURLMatcherC7pattern7options9immediateACSS_AA7OptionsVSbtcfcSo19NSRegularExpressionC_SaySSGtycfU_
_$s20LarkAccountInterface13SSOVerifyBodyV11EENavigator0E0AaD14URLConvertiblePWb
_$sSS11EENavigatorE5parseSayAA5TokenOGyF
_$s20LarkAccountInterface13SSOVerifyBodyVAC11EENavigator14URLConvertibleAAWl
_$s20LarkAccountInterface13SSOVerifyBodyVACSeAAWl
_$s20LarkAccountInterface13SSOVerifyBodyVACSEAAWl
_$s11EENavigator5Regex33_0A7388E40FFAB87E3DDB564A875E6125LLV04pathB0So19NSRegularExpressionCvau
_globalinit_33_0A7388E40FFAB87E3DDB564A875E6125_func24
_$sSo19NSRegularExpressionCMa
_$s11EENavigator6RouterC13registerRoute4type8priority6tester_yxm_AC8PriorityOSbAA7RequestCcyx_AkA8ResponseCtctAA4BodyRzSeRzSERzlFfA0_
_$s11EENavigator6RouterC8PriorityOwui
_$s11EENavigator6RouterC13registerRoute4type8priority6tester_yxm_AC8PriorityOSbAA7RequestCcyx_AkA8ResponseCtctAA4BodyRzSeRzSERzlFfA1_
_$s11EENavigator13defaultTesterySbAA7RequestCcvg
_$s11EENavigator6RouterC13registerRoute4type8priority6tester_yxm_AC8PriorityOSbAA7RequestCcyx_AkA8ResponseCtctAA4BodyRzSeRzSERzlF
_$s11EENavigator6RouterC19wrapCheckParameters33_A7FC7C69BEDB28D197E32089464EFCA7LL4type7handleryAA7RequestC_AA8ResponseCtcxm_yx_AiKtctAA4BodyRzSeRzSERzlF
_$s20LarkAccountInterface13SSOVerifyBodyV11EENavigator0E0AadEP13patternConfigAD07PatternH0VvgZTW
_$s20LarkAccountInterface13SSOVerifyBodyVAC11EENavigator05PlainE0AAWl
_$s20LarkAccountInterface13SSOVerifyBodyV11EENavigator05PlainE0AaD0E0PWb
_$s11EENavigator9PlainBodyPAAE13patternConfigAA07PatternE0VvgZ
_$s20LarkAccountInterface13SSOVerifyBodyV11EENavigator05PlainE0AadEP7patternSSvgZTW
_$s20LarkAccountInterface13SSOVerifyBodyV7patternSSvgZ
_$s20LarkAccountInterface13SSOVerifyBodyV7patternSSvau
_globalinit_33_BA53CF3D1DE61C8841B15B79968A67BE_func26
_$s11EENavigator13PatternConfigV7pattern4typeACSS_AA0B4TypeOtcfcfA0_
_$s11EENavigator11PatternTypeOMa
_$s11EENavigator11PatternTypeOwui
_$s11EENavigator13PatternConfigV7pattern4typeACSS_AA0B4TypeOtcfC
_$s11EENavigator13PatternConfigVWOh
_$s11EENavigator6RouterC13registerRoute12plainPattern8priority6tester_ySS_AC8PriorityOSbAA7RequestCcyAK_AA8ResponseCtctF
_$s11EENavigator6RouterC9normalizeyS2SF
_$s11EENavigator10MiddlewareV5plain6tester7handlerACSS_SbAA7RequestCcyAH_AA8ResponseCtctcfC
_$s11EENavigator15PlainURLMatcherCMa
_$s11EENavigator15PlainURLMatcherC7patternACSS_tcfC
_$s11EENavigator15PlainURLMatcherC7patternACSS_tcfc
_$sSS11EENavigatorE17trimTrailingSlashSSvg
_$s11EENavigator6RouterC6append_4withyAA10MiddlewareV_AC8PriorityOtF
_$s11EENavigator6RouterC20patternMiddlewareDic33_F6468634524AEC61A3A770436DA097E4LLSDySSAA0D0VGvg
_$s11EENavigator10MiddlewareVwst
_$s11EENavigator10MiddlewareVSgWOc
_$s11EENavigator10MiddlewareVSgWOh
_$s11EENavigator6RouterC20patternMiddlewareDic33_F6468634524AEC61A3A770436DA097E4LLSDySSAA0D0VGvM
_$s11EENavigator10MiddlewareVwet
___swift_memcpy88_8
_$s11EENavigator6RouterC20patternMiddlewareDic33_F6468634524AEC61A3A770436DA097E4LLSDySSAA0D0VGvM.resume.0
_$s11EENavigator6RouterC22priorityMiddlewaresDic33_F6468634524AEC61A3A770436DA097E4LLSDyAC8PriorityOSayAA10MiddlewareVGGvg
_$s11EENavigator6RouterC22priorityMiddlewaresDic33_F6468634524AEC61A3A770436DA097E4LLSDyAC8PriorityOSayAA10MiddlewareVGGvM
_$sSo19NSRegularExpressionC7pattern7optionsABSS_So0aB7OptionsVtKcfC
_$sSo19NSRegularExpressionC7pattern7optionsABSS_So0aB7OptionsVtKcfcTO
_$sSAySo7NSErrorCSgGSAyxGs8_PointersWl
_$sSAySo7NSErrorCSgGMa
_$sSo7NSErrorCSgMa
_$s11EENavigator6RouterC8PriorityOSHAASH13_rawHashValue4seedS2i_tFTW
_$s11EENavigator6RouterC8PriorityOAESYAAWl
_$s11EENavigator6RouterC8PriorityOSHAASH4hash4intoys6HasherVz_tFTW
_$s11EENavigator6RouterC8PriorityOSYAASY8rawValue03RawE0QzvgTW
_$s11EENavigator6RouterC8PriorityO8rawValueSivg
_$s11EENavigator6RouterC22priorityMiddlewaresDic33_F6468634524AEC61A3A770436DA097E4LLSDyAC8PriorityOSayAA10MiddlewareVGGvM.resume.0
_$s11EENavigator21URLInterceptorManagerCMa
_$s11EENavigator21URLInterceptorManagerC6sharedACvgZ
_$s11EENavigator21URLInterceptorManagerC6sharedACvau
_globalinit_33_BC5BC2614DB7926D0665305CFCEC7555_func25
_$s11EENavigator21URLInterceptorManagerCACycfC
_$s11EENavigator21URLInterceptorManagerCACycfc
_$s11EENavigator21URLInterceptorManagerC8register_7handlerySS_y10Foundation3URLV_AA13NavigatorFrom_ptctFTj
_$s11EENavigator21URLInterceptorManagerC8register_7handlerySS_y10Foundation3URLV_AA13NavigatorFrom_ptctF
_$s11EENavigator21URLInterceptorManagerC12interceptors33_BC5BC2614DB7926D0665305CFCEC7555LLSaySbSSSg_10Foundation3URLVAA13NavigatorFrom_ptcGvM
_$s11EENavigator21URLInterceptorManagerC12interceptors33_BC5BC2614DB7926D0665305CFCEC7555LLSaySbSSSg_10Foundation3URLVAA13NavigatorFrom_ptcGvM.resume.0
_$s8Swinject9ContainerC7resolve_4namexSgxm_SSSgtlF
_$s8Swinject9ContainerC15internalResolve_4name7invokerxSgxm_SSSgAGxq_XEXEtr0_lF
_$s8Swinject9ContainerC15internalResolve_4name7invokerxSgxm_SSSgAGxq_XEXEtr0_lFAGyXEfU_TA
_$s8Swinject9ContainerC15internalResolve_4name7invokerxSgxm_SSSgAGxq_XEXEtr0_lFAGyXEfU_
_$s8Swinject9ContainerC24incrementResolutionDepthyyKF
_$s8Swinject9ContainerC15resolutionDepthSivg
_$s8Swinject9ContainerC27resolutionDepthThreadDicKeySSvgZ
_$s8Swinject10ServiceKeyVwst
_$s8Swinject10ServiceKeyVwet
_$s8Swinject9ContainerC18cachedGraphObjectsSDyAA10ServiceKeyVypGvs
_$s8Swinject9ContainerC30cachedGraphObjectsThreadDicKeySSvgZ
_$s8Swinject9ContainerC18maxResolutionDepth33_B0248D9BB4D17AC900F06660C57FEB11LLSivg
_$s8Swinject9ContainerC15resolutionDepthSivs
_$ss26DefaultStringInterpolationV06appendC0yyypXpF
_$s8Swinject20ServiceEntryProtocol_pSgWOc
_$s8Swinject20ServiceEntryProtocol_pWOb
_$s8Swinject20ServiceEntryProtocol_pSgWOh
_$sSo6NSLockC8SwinjectE4lock5blockxxyXE_tlF
_$s8Swinject9ContainerC15internalResolve_4name7invokerxSgxm_SSSgAGxq_XEXEtr0_lFAGyXEfU_AGyXEfU_TA
_$s8Swinject9ContainerC15internalResolve_4name7invokerxSgxm_SSSgAGxq_XEXEtr0_lFAGyXEfU_AGyXEfU_
_$sxSgr0_lWOc
_$sxSgr0_lWOh
_$s8Swinject8Resolver_pxlyxIsgnr_xSgIgyr_xq_r0_lyAaB_pxIsgnr_ACIegyr_lTRTA
_$s8Swinject8Resolver_pxlyxIsgnr_xSgIgyr_xq_r0_lyAaB_pxIsgnr_ACIegyr_lTR
_$s8Swinject8Resolver_pxSglyxIsgnr_ACIgyr_AaB_pxlyxIsgnr_ACIegyr_lTRTA
_$s8Swinject8Resolver_pxSglyxIsgnr_ACIgyr_AaB_pxlyxIsgnr_ACIegyr_lTR
_$s8Swinject9ContainerC7resolve_4namexSgxm_SSSgtlFA2fA8Resolver_pXEXEfU_TA
_$s8Swinject9ContainerC7resolve_4namexSgxm_SSSgtlFA2fA8Resolver_pXEXEfU_
_$s8Swinject8Resolver_pxIgnr_AaB_pxSgIegnr_lTRTA
_$s8Swinject8Resolver_pxIgnr_AaB_pxSgIegnr_lTR
_$s8Swinject8Resolver_p11LarkAccount14V3LoginServiceCIegno_AaB_pAEIegnr_TRTA
_$s8Swinject8Resolver_p11LarkAccount14V3LoginServiceCIegno_AaB_pAEIegnr_TR
_$s11LarkAccount0B8AssemblyC16internalAssemble33_65BEB9A337320A208CC125CED6C564BCLL9containery8Swinject9ContainerC_tFAA14V3LoginServiceCAG8Resolver_pcfU4_
_$s8Swinject8ResolverP7resolveyqd__Sgqd__mlFTj
_$s8Swinject9ContainerCAA8ResolverA2aDP7resolveyqd__Sgqd__mlFTW
_$s8Swinject8ResolverPAAE7resolveyqd__Sgqd__mlF
_$s8Swinject9ContainerCAA8ResolverA2aDP7resolve_4nameqd__Sgqd__m_SSSgtlFTW
_$s8Swinject8Resolver_p11LarkAccount12PassportConfCIegno_AaB_pAEIegnr_TRTA
_$s8Swinject8Resolver_p11LarkAccount12PassportConfCIegno_AaB_pAEIegnr_TR
_$s11LarkAccount0B8AssemblyC16internalAssemble33_65BEB9A337320A208CC125CED6C564BCLL9containery8Swinject9ContainerC_tFAA12PassportConfCAG8Resolver_pcfU3_
_$sxSgr0_lWOd
_$sSo6NSLockC8SwinjectE4lock5blockxxyXE_tlF6$deferL_yylF
_$s8Swinject9ContainerC15internalResolve_4name7invokerxSgxm_SSSgAGxq_XEXEtr0_lFAGyXEfU_6$deferL_yyr0_lF
_$s8Swinject9ContainerC24decrementResolutionDepthyyKF
_$s8Swinject9ContainerC18cachedGraphObjectsSDyAA10ServiceKeyVypGvg
_$sSo17NSMatchingOptionsVMa
_$sSo17NSMatchingOptionsVABs10SetAlgebraSCWl
_$sSo17NSMatchingOptionsVs10SetAlgebraSCSQWb
_$sSo17NSMatchingOptionsVABSQSCWl
_$sSo17NSMatchingOptionsVs10SetAlgebraSCs25ExpressibleByArrayLiteralPWb
_$sSo17NSMatchingOptionsVABs25ExpressibleByArrayLiteralSCWl
_$sSo17NSMatchingOptionsVs10SetAlgebraSCsACPyxqd__ncSTRd__7ElementQyd__AERtzlufCTW
___swift_allocate_boxed_opaque_existential_0
_$s11LarkAccount14V3LoginServiceC13configuration10dependencyAcA12PassportConfC_AA0H10Dependency_ptcfC
_$s11LarkAccount14V3LoginServiceC13configuration10dependencyAcA12PassportConfC_AA0H10Dependency_ptcfc
_$sSo17NSMatchingOptionsVs10SetAlgebraSCsACPxycfCTW
_$sSo17NSMatchingOptionsVABs9OptionSetSCWl
_$sSo17NSMatchingOptionsVs9OptionSetSCSYWb
_$sSo17NSMatchingOptionsVABSYSCWl
_$sSo17NSMatchingOptionsVs9OptionSetSCs0D7AlgebraPWb
_$sSo17NSMatchingOptionsVs9OptionSetSCsACP8rawValuex03RawF0Qz_tcfCTW
_$sSo17NSMatchingOptionsV8rawValueABSu_tcfC
_$s11LarkAccount18PassportDependency_pWOc
_$s11LarkAccount18PassportDependency_pWOb
_$s11LarkAccount14V3LoginServiceC5storeAA05SuiteD5StoreCvg
_$s11LarkAccount15SuiteLoginStoreCMa
_$s11LarkAccount15SuiteLoginStoreCMr
_$s11LarkAccount15SuiteLoginStoreC6sharedACvau
_globalinit_33_613510A7FC3026C183123FBE0E4B322B_func647
_$s11LarkAccount15SuiteLoginStoreCACycfC
_$s11LarkAccount15SuiteLoginStoreCACycfc
_$s20LarkAccountInterface15PassportFeatureOMa
_$s11LarkAccount6genKeyyS2SF
_$s11LarkAccount11UUIDManagerC6sharedACvau
_globalinit_33_852CA9F1D7F4E35C5204CBE1073432FE_func732
_$s11LarkAccount11UUIDManagerCMa
_$s11LarkAccount11UUIDManagerCACyc33_852CA9F1D7F4E35C5204CBE1073432FELlfC
_$s11LarkAccount11UUIDManagerCACyc33_852CA9F1D7F4E35C5204CBE1073432FELlfc
_$s11LarkAccount14SuiteLoginUtilCMa
_$s11LarkAccount14SuiteLoginUtilC11userDefaultSo14NSUserDefaultsCyFZ
_$s11LarkAccount12PassportConfC7groupIdSSvg
_$s11LarkAccount14SuiteLoginUtilC11userDefault9suiteNameSo14NSUserDefaultsCSS_tFZ
_$sSo14NSUserDefaultsCMa
_$sSo14NSUserDefaultsC9suiteNameABSgSSSg_tcfC
_$sSo14NSUserDefaultsC9suiteNameABSgSSSg_tcfcTO
_$s11LarkAccount11UUIDManagerC4uuidAC4UUIDVvg
_$ss16PartialRangeFromVySS5IndexVGAByxGSXsWl
_$ss16PartialRangeFromVySS5IndexVGMa
_$s11LarkAccount11UUIDManagerC15userDefaultUUID33_852CA9F1D7F4E35C5204CBE1073432FELLAC0F0VSgvg
_$s11LarkAccount11UUIDManagerC3get33_852CA9F1D7F4E35C5204CBE1073432FELL3keyAC4UUIDVSgSS_tF
_$s11LarkAccount11UUIDManagerC7pureGet33_852CA9F1D7F4E35C5204CBE1073432FELL3keySSSgSS_tF
_$sSo20NSTextCheckingResultCMa
_$sSaySo20NSTextCheckingResultCGSayxGSlsWl
_$sSaySo20NSTextCheckingResultCGMa
_$sSS11EENavigatorE6substr33_0A7388E40FFAB87E3DDB564A875E6125LL2atSSSgSo8_NSRangeV_tF
_$sSo8NSStringCMa
_$sSo8NSStringC6stringABSS_tcfC
_$sSo8NSStringC6stringABSS_tcfcTO
_$sS2Ss5Error_pIggozo_S2SsAA_pIegnrzo_TRTA
_$sS2Ss5Error_pIggozo_S2SsAA_pIegnrzo_TR
_$sSS11EENavigatorE5parseSayAA5TokenOGyFSSyKXEfu2_SSyKXEfu3_S2SXEfU_
_$sSS11EENavigatorE11escapeGroupSSyF
_$s11EENavigator5Regex33_0A7388E40FFAB87E3DDB564A875E6125LLV011escapeGroupB0So19NSRegularExpressionCvau
_globalinit_33_0A7388E40FFAB87E3DDB564A875E6125_func23
_$s11EENavigator7TokenIdOwst
_$s11EENavigator7TokenIdOWOy
_$s11EENavigator5TokenOMa
___swift_memcpy80_8
_$s11EENavigator7TokenIdOWOh
_$s11EENavigator7TokenIdOWOe
_$ss16IndexingIteratorVySaySo20NSTextCheckingResultCGGWOh
_$sSay11EENavigator5TokenOGWOh
_$s11EENavigator14tokensToRegExp0B07optionsSo19NSRegularExpressionC_SaySSGtSayAA5TokenOG_AA7OptionsVtF
_$s11EENavigator7OptionsVs10SetAlgebraAAsADP10isSuperset2ofSbx_tFTW
_$s11EENavigator7OptionsVs10SetAlgebraAAsADP8isSubset2ofSbx_tFTW
_$s11EENavigator7OptionsV6strictACvau
_globalinit_33_D668C8FE1A818EF37D5437CD5DE9E2B3_func17
_$sSay11EENavigator5TokenOGSayxGSlsWl
_$sSay11EENavigator5TokenOGMa
_$sSay11EENavigator5TokenOGSayxGSTsWl
_$ss18EnumeratedSequenceVySay11EENavigator5TokenOGGAByxGSTsWl
_$ss18EnumeratedSequenceVySay11EENavigator5TokenOGGMa
_$s11EENavigator5TokenOwcp
_$s11EENavigator5TokenOWOy
_$s11EENavigator5TokenOwxx
_$s11EENavigator5TokenOWOe
_$s11EENavigator5TokenOwst
_$s11EENavigator5TokenOwet
_$sSi11EENavigator5TokenOs5Error_pIgygzo_Si6offset_AC7elementtsAD_pIegnzo_TRTA
_$sSi11EENavigator5TokenOs5Error_pIgygzo_Si6offset_AC7elementtsAD_pIegnzo_TR
_$s11EENavigator5TokenOWOb
_$s11EENavigator14tokensToRegExp0B07optionsSo19NSRegularExpressionC_SaySSGtSayAA5TokenOG_AA7OptionsVtFySi_AItXEfU_TA
_$s11EENavigator14tokensToRegExp0B07optionsSo19NSRegularExpressionC_SaySSGtSayAA5TokenOG_AA7OptionsVtFySi_AItXEfU_
_$sSS11EENavigatorE7escapedSSyF
_$s11EENavigator5Regex33_0A7388E40FFAB87E3DDB564A875E6125LLV06escapeB0So19NSRegularExpressionCvau
_globalinit_33_0A7388E40FFAB87E3DDB564A875E6125_func22
_$ss18EnumeratedSequenceVySay11EENavigator5TokenOGGWOh
_$s8EEAtomic8SafeLazyC7StorageOyx_GlWOd
_$s8EEAtomic8SafeLazyC7StorageOyx_GlWOh
_$s11LarkAccount11UUIDManagerC4UUIDV4fromyAESgSSFZ
_$sSy10FoundationE4data5using20allowLossyConversionAA4DataVSgSSAAE8EncodingV_SbtFfA0_
_$s11LarkAccount11UUIDManagerC4UUIDVAESeAAWl
_$s11LarkAccount11UUIDManagerC4UUIDVSeAASe4fromxs7Decoder_p_tKcfCTW
_$s11LarkAccount11UUIDManagerC4UUIDV4fromAEs7Decoder_p_tKcfC
_$s11LarkAccount11UUIDManagerC4UUIDV10CodingKeysOMa
_$s11LarkAccount11UUIDManagerC4UUIDV10CodingKeysOs0E3KeyAAs28CustomDebugStringConvertiblePWb
_$s11LarkAccount11UUIDManagerC4UUIDV10CodingKeysOAGs28CustomDebugStringConvertibleAAWl
_$s11LarkAccount11UUIDManagerC4UUIDV10CodingKeysOs0E3KeyAAs23CustomStringConvertiblePWb
_$s11LarkAccount11UUIDManagerC4UUIDV10CodingKeysOAGs23CustomStringConvertibleAAWl
_$s11LarkAccount11UUIDManagerC4UUIDV10CodingKeysOAGs0E3KeyAAWl
_$s11LarkAccount11UUIDManagerC4FromOAESeAAWl
_$s11LarkAccount11UUIDManagerC4UUIDV10CodingKeysOs0E3KeyAAsAHP11stringValueSSvgTW
_$s11LarkAccount11UUIDManagerC4UUIDV10CodingKeysO11stringValueSSvg
_$s11LarkAccount11UUIDManagerC4UUIDV10CodingKeysO8rawValueSSvg
_$s11LarkAccount11UUIDManagerC4FromOSeAASe4fromxs7Decoder_p_tKcfCTW
_$s11LarkAccount11UUIDManagerC4FromOAESYAAWl
_$s11LarkAccount11UUIDManagerC4FromOSYAASY8rawValuexSg03RawF0Qz_tcfCTW
_$s11LarkAccount11UUIDManagerC4FromO8rawValueAESgSS_tcfC
_$s11LarkAccount11UUIDManagerC4FromOwet
_$s11LarkAccount11UUIDManagerC4FromOwst
_$s11LarkAccount11UUIDManagerC4UUIDVWOh
_$s11LarkAccount11UUIDManagerC4UUIDVwcp
_$s11LarkAccount11UUIDManagerC4UUIDVwxx
___swift_memcpy24_8
_$s11LarkAccount11UUIDManagerC4UUIDVwst
_$s11LarkAccount11UUIDManagerC4UUIDVwet
_$s11LarkAccount11UUIDManagerC6logger33_852CA9F1D7F4E35C5204CBE1073432FELL16LKCommonsLogging3Log_pvau
_globalinit_33_852CA9F1D7F4E35C5204CBE1073432FE_func734
_$s11LarkAccount11UUIDManagerC4UUIDVAEs23CustomStringConvertibleAAWl
_$s11LarkAccount11UUIDManagerC4UUIDVs23CustomStringConvertibleAAsAFP11descriptionSSvgTW
_$s11LarkAccount11UUIDManagerC4UUIDV11descriptionSSvg
_$s11LarkAccount11UUIDManagerC4FromO11descriptionSSvg
_$s11LarkAccount11UUIDManagerC9CacheTypeOwug
_$s11LarkAccount11UUIDManagerC4uuidAC4UUIDVvg6$deferL_yyF
_$ss5Int32VABSzsWl
_$sSo15NSMutableStringCMa
_$sSo15NSMutableStringCABycfC
_$sSo15NSMutableStringCABycfcTO
_$sSnySiGSnyxGSlsSxRzSZ6StrideRpzrlWl
_$sSnySiGMa
_$s11LarkAccount10V3UserInfoVMa
_$s11LarkAccount10V3UserInfoVMr
_$s11LarkAccount12V3TenantInfoVSgMa
_$s11LarkAccount12V3TenantInfoVMa
_$s11LarkAccount12V3TenantInfoVMr
_$s20LarkAccountInterface9TenantTagOSgMa
_$s20LarkAccountInterface9TenantTagOMa
_$s11LarkAccount13V3DerivedUserVMa
_$s11LarkAccount14PassportSwitchC6sharedACvau
_globalinit_33_E0DF430AF9E82ACE69E90EBC72BC381F_func484
_$s11LarkAccount14PassportSwitchCMa
_$s11LarkAccount14PassportSwitchCACyc33_E0DF430AF9E82ACE69E90EBC72BC381FLlfC
_$s11LarkAccount14PassportSwitchCACyc33_E0DF430AF9E82ACE69E90EBC72BC381FLlfc
_$s17LarkReleaseConfig0bC0C4isKASbvgZ
_$s17LarkReleaseConfig0bC0C4isKASbvau
_globalinit_33_B0E3233F138E96FFF49724B6C7F3A381_func11
_$s17LarkReleaseConfig0bC0C4isKASbvpZfiSbyXEfU_
_$s11LarkAccount14PassportSwitchC11_featureMap33_E0DF430AF9E82ACE69E90EBC72BC381FLL23ThreadSafeDataStructure0P10DictionaryCy0aB9Interface0C7FeatureOSbGvpfiALyXEfU_
_$s20LarkAccountInterface15PassportFeatureOwui
_$s14LarkFoundation5UtilsCMa
_$s14LarkFoundation5UtilsC19isiOSAppOnMacSystemSbvgZ
_$s14LarkFoundation5UtilsC13isiOSAppOnMacSbvgZ
_$s14LarkFoundation5UtilsC16isMacCatalystAppSbvgZ
_$s20LarkAccountInterface15PassportFeatureOACSHAAWl
_$s20LarkAccountInterface15PassportFeatureOSHAASQWb
_$s20LarkAccountInterface15PassportFeatureOACSQAAWl
_$s20LarkAccountInterface15PassportFeatureOSHAASH13_rawHashValue4seedS2i_tFTW
_$s20LarkAccountInterface15PassportFeatureOACSYAAWl
_$s20LarkAccountInterface15PassportFeatureOSHAASH4hash4intoys6HasherVz_tFTW
_$s20LarkAccountInterface15PassportFeatureOSYAASY8rawValue03RawG0QzvgTW
_$s20LarkAccountInterface15PassportFeatureO8rawValueSSvg
_$s20LarkAccountInterface15PassportFeatureOSQAASQ2eeoiySbx_xtFZTW
_$s11LarkAccount14PassportSwitchC23defaultEnableLogInLoginSbvau
_globalinit_33_E0DF430AF9E82ACE69E90EBC72BC381F_func485
_$s11LarkAccount12PassportConfC13featureSwitch0aB9Interface07FeatureF8Protocol_pvg
_$s20LarkAccountInterface21FeatureSwitchProtocolP0aB0E4bool3forSbAD0dE3KeyO_tF
_$s11LarkAccount16FeatureSwitchKeyO8rawValueSSvg
_$s20LarkAccountInterface21FeatureSwitchProtocolP4bool3forSbSS_tFTj
_$s11LarkAccount17RustFeatureSwitchC0aB9Interface0dE8ProtocolAadEP4bool3forSbSS_tFTW
_$s11LarkAccount17RustFeatureSwitchC4bool3forSbSS_tF
_$s19LarkKAFeatureSwitch07FeatureC0C0C3KeyOMa
_$s19LarkKAFeatureSwitch07FeatureC0C0C3KeyO8rawValueAESgSS_tcfC
_$s19LarkKAFeatureSwitch07FeatureC0C0C3KeyOwet
_$s19LarkKAFeatureSwitch07FeatureC0CMa
_$s19LarkKAFeatureSwitch07FeatureC0C5shareACvgZ
_$s19LarkKAFeatureSwitch07FeatureC0C5shareACvau
_globalinit_33_D045AD8BC4F6C4FD0F92C852347FDE42_func0
_$s19LarkKAFeatureSwitch07FeatureC0CACyc33_D045AD8BC4F6C4FD0F92C852347FDE42LlfC
_$s19LarkKAFeatureSwitch07FeatureC0CACyc33_D045AD8BC4F6C4FD0F92C852347FDE42Llfc
_$s19LarkKAFeatureSwitch07FeatureC0C0C3KeyOAESHAAWl
_$s19LarkKAFeatureSwitch07FeatureC0C0C3KeyOSHAASQWb
_$s19LarkKAFeatureSwitch07FeatureC0C0C3KeyOAESQAAWl
_$s19LarkKAFeatureSwitch07FeatureC0C9ConfigKeyOAESHAAWl
_$s19LarkKAFeatureSwitch07FeatureC0C9ConfigKeyOSHAASQWb
_$s19LarkKAFeatureSwitch07FeatureC0C9ConfigKeyOAESQAAWl
_$s19LarkKAFeatureSwitch07FeatureC0C4bool3forSbAC0C3KeyO_tF
_$s11LarkAccount17RustFeatureSwitchC6logger16LKCommonsLogging3Log_pvau
_globalinit_33_59DDAC72E57112D5B07B07704EEEE5EE_func301
_$s11LarkAccount14PassportSwitchC30defaultForceDisableLogRustHttpSbvau
_globalinit_33_E0DF430AF9E82ACE69E90EBC72BC381F_func487
_$s11LarkAccount14PassportSwitchC5valueySb0aB9Interface0C7FeatureOF
_$s11LarkAccount14PassportSwitchC10featureMap33_E0DF430AF9E82ACE69E90EBC72BC381FLLSDy0aB9Interface0C7FeatureOSbGvg
_$s23ThreadSafeDataStructure0B10DictionaryC16getImmutableCopySDyxq_GyF
_$sSDyxq_GIgo_AAIegr_SHRzr0_lTRTA
_$sSDyxq_GIgo_AAIegr_SHRzr0_lTR
_$s23ThreadSafeDataStructure0B10DictionaryC16getImmutableCopySDyxq_GyFAEyXEfU_TA
_$s23ThreadSafeDataStructure0B10DictionaryC16getImmutableCopySDyxq_GyFAEyXEfU_
_$s11LarkAccount15SuiteLoginStoreC14dataIdentifierSSSgvg
_$s11LarkAccount18makeDataIdentifier33_613510A7FC3026C183123FBE0E4B322BLLSSyF
_$sSo8UIDeviceCMa
_$sSo8UIDeviceCAB14LarkCompatible0b14UIKitExtensionC00B10ExtensionsWl
_$s14LarkCompatible0a14UIKitExtensionB0PAAE2luAA0acD0CyxGvg
_$s14LarkCompatible0A14UIKitExtensionCMa
_$s14LarkCompatible0A14UIKitExtensionCMi
_$s14LarkCompatible0A14UIKitExtensionCMr
_$s14LarkCompatible0A14UIKitExtensionCyACyxGxcfC
_$s14LarkCompatible0A14UIKitExtensionCyACyxGxcfc
_$s14LarkCompatible0A14UIKitExtensionC0A10ExtensionsSo8UIDeviceCRszlE9modelNameSSyF
_$sSDyS2SGSDyxq_Gs23CustomStringConvertiblesWl
_$sSDyS2SGMa
_$sSDyS2SGWOs
_$ss13AnyCollectionVySSSg5label_yp5valuetGAByxGSTsWl
_$ss13AnyCollectionVySSSg5label_yp5valuetGMa
_$sSSSg5label_yp5valuetMa
_$sS2SSgypSSs5Error_pIgggnozo_SSAA5label_yp5valuetSSsAB_pIegnnrzo_TRTA
_$sS2SSgypSSs5Error_pIgggnozo_SSAA5label_yp5valuetSSsAB_pIegnnrzo_TR
_$s14LarkCompatible0A14UIKitExtensionC0A10ExtensionsSo8UIDeviceCRszlE9modelNameSSyFS2S_SSSg5label_yp5valuettXEfU_
_$ss4Int8VABSZsWl
_$ss4Int8VABs17FixedWidthIntegersWl
_$ss4Int8VABSzsWl
_$ss5UInt8VABs17FixedWidthIntegersWl
_$ss5UInt8VABSUsWl
_$sSSSg5label_yp5valuetWOh
_$ss13AnyCollectionVySSSg5label_yp5valuetGWOh
_$s14LarkCompatible0A14UIKitExtensionC0A10ExtensionsSo8UIDeviceCRszlE10extraModel33_81353D54D01143247DDD9D10797BBD4DLL10identifierS2S_tF
_$sSo13NSProcessInfoCMa
_$sSo13NSProcessInfoCABycfC
_$sSo13NSProcessInfoCABycfcTO
_$sSo8UIDeviceC14LarkCompatible0b14UIKitExtensionC00B10ExtensionsAcDP2lu0bdC4TypeQzmvgZTW
_$s14LarkCompatible0A14UIKitExtensionCfD
_$s14LarkCompatible0A14UIKitExtensionCfd
_$s11LarkAccount15SuiteLoginStoreC04userD6ConfigAA06V3UserdG0VSgvg
_$s11LarkAccount17V3UserLoginConfigVACSeAAWl
_$s11LarkAccount17V3UserLoginConfigVSeAASe4fromxs7Decoder_p_tKcfCTW
_$s11LarkAccount17V3UserLoginConfigV4fromACs7Decoder_p_tKcfC
_$s11LarkAccount17V3UserLoginConfigV10CodingKeysOMa
_$s11LarkAccount17V3UserLoginConfigV10CodingKeysOs0G3KeyAAs28CustomDebugStringConvertiblePWb
_$s11LarkAccount17V3UserLoginConfigV10CodingKeysOAEs28CustomDebugStringConvertibleAAWl
_$s11LarkAccount17V3UserLoginConfigV10CodingKeysOs0G3KeyAAs23CustomStringConvertiblePWb
_$s11LarkAccount17V3UserLoginConfigV10CodingKeysOAEs23CustomStringConvertibleAAWl
_$s11LarkAccount17V3UserLoginConfigV10CodingKeysOAEs0G3KeyAAWl
_$s11LarkAccount16SuiteLoginMethodOACSeAAWl
_$s11LarkAccount17V3UserLoginConfigV10CodingKeysOs0G3KeyAAsAFP11stringValueSSvgTW
_$s11LarkAccount17V3UserLoginConfigV10CodingKeysO11stringValueSSvg
_$s11LarkAccount17V3UserLoginConfigV10CodingKeysO8rawValueSSvg
_$s11LarkAccount16SuiteLoginMethodOSeAASe4fromxs7Decoder_p_tKcfCTW
_$s11LarkAccount16SuiteLoginMethodOACSYAAWl
_$s11LarkAccount16SuiteLoginMethodOSYAASY8rawValuexSg03RawG0Qz_tcfCTW
_$s11LarkAccount16SuiteLoginMethodO8rawValueACSgSS_tcfC
_$s11LarkAccount16SuiteLoginMethodOwet
_$s11LarkAccount16SuiteLoginMethodOwst
_$s11LarkAccount17V3UserLoginConfigVWOh
_$s11LarkAccount17V3UserLoginConfigVwcp
_$s11LarkAccount17V3UserLoginConfigVwxx
_$s11LarkAccount17V3UserLoginConfigVwst
_$s11LarkAccount17V3UserLoginConfigVwet
_$s11LarkAccount14V3LoginServiceC13eventRegistryAA013PassportEventG0Cvg
_$s13LarkContainer8ProviderVwcp
_$s13LarkContainer8ProviderV12wrappedValuexvg
_$s13LarkContainer8ProviderVACyxGycfcxycfU_TA
_$s13LarkContainer8ProviderVACyxGycfcxycfU_
_$s13LarkContainer8InjectedVMa
_$s13LarkContainer8InjectedVMi
_$s13LarkContainer8InjectedVMr
_$s13LarkContainer8InjectedVACyxGycfC
_$s8Swinject8Resolver_p11LarkAccount21PassportEventRegistryCIegno_AaB_pAEIegnr_TRTA
_$s8Swinject8Resolver_p11LarkAccount21PassportEventRegistryCIegno_AaB_pAEIegnr_TR
_$s11LarkAccount0B8AssemblyC16internalAssemble33_65BEB9A337320A208CC125CED6C564BCLL9containery8Swinject9ContainerC_tFAA21PassportEventRegistryCAG8Resolver_pcfU17_
_$s11LarkAccount21PassportEventRegistryCACycfC
_$s11LarkAccount21PassportEventRegistryCACycfc
_$s11LarkAccount25EventBusNavigationServiceCMa
_$s11LarkAccount25EventBusNavigationServiceCACycfC
_$s11LarkAccount25EventBusNavigationServiceCACycfc
_$s11LarkAccount21PassportEventRegistryC05setupD8RegisteryyF
_$s11LarkAccount21PassportEventRegistryC8eventBusAA05LogincdG0Cvg
_$s11LarkAccount21LoginPassportEventBusCMa
_$s11LarkAccount21LoginPassportEventBusCMr
_$s11LarkAccount12PassportStepOMa
_$s11LarkAccount16PassportEventBusCMa
_$s11LarkAccount16PassportEventBusCMi
_$s11LarkAccount16PassportEventBusCMr
_$s11LarkAccount8EventBusCMa
_$s11LarkAccount21LoginPassportEventBusC6sharedACvau
_globalinit_33_768053C83B24B56C62150170E7AF295F_func392
_$s11LarkAccount21LoginPassportEventBusCACycfC
_$s11LarkAccount21LoginPassportEventBusCACycfc
_$s11LarkAccount16PassportEventBusCACyxGycfc
_$s11LarkAccount8EventBusCACycfc
_$s11LarkAccount13EventBusErrorOMa
_$s11LarkAccount11V3LoginInfoCMa
_$s11LarkAccount11V3LoginInfoCAA06ServerE0AAWI
_$s11LarkAccount11V3LoginInfoCACSeAAWl
_$s11LarkAccount11V3LoginInfoCACSEAAWl
_$s11LarkAccount25ServerInfoEventBusHandlerCMa
_$s11LarkAccount25ServerInfoEventBusHandlerCMi
_$s11LarkAccount25ServerInfoEventBusHandlerCMr
_$s11LarkAccount15EventBusHandlerCMa
_$s11LarkAccount15EventBusHandlerCMi
_$s11LarkAccount15EventBusHandlerCMr
_$s11LarkAccount25ServerInfoEventBusHandlerC10handleWorkACyxGyAA0cD10HandleArgsVyxGc_tcfC
_$s11LarkAccount25ServerInfoEventBusHandlerC10handleWorkACyxGyAA0cD10HandleArgsVyxGc_tcfc
_$s11LarkAccount15EventBusHandlerCACyxGycfc
_$s11LarkAccount16PassportEventBusC8register4step7handleryx_AA0dE7HandlerCyqd__GtlF
_$s11LarkAccount12PassportStepOSYAASY8rawValue03RawF0QzvgTW
_$s11LarkAccount12PassportStepO8rawValueSSvg
_$s11LarkAccount8EventBusC8register5event5queue7handlerySS_So012OS_dispatch_G0CAA0cD7HandlerCyxGtlFfA0_
_$s11LarkAccount8EventBusC8register5event5queue7handlerySS_So012OS_dispatch_G0CAA0cD7HandlerCyxGtlF
_$sSayySS_ypSgyycy11LarkAccount13EventBusErrorOctcGSayxGSlsWl
_$sSayySS_ypSgyycy11LarkAccount13EventBusErrorOctcGMa
_$sySS_ypSgyycy11LarkAccount13EventBusErrorOctcMa
_$sypSgMa
_$syycMa
_$sy11LarkAccount13EventBusErrorOcMa
_$sSayySS_ypSgyycy11LarkAccount13EventBusErrorOctcGWOh
_$s11LarkAccount14V3RegisterInfoCMa
_$s11LarkAccount14V3RegisterInfoCAA06ServerE0AAWI
_$s11LarkAccount14V3RegisterInfoCACSeAAWl
_$s11LarkAccount14V3RegisterInfoCACSEAAWl
_$s11LarkAccount17V3BindContactInfoCMa
_$s11LarkAccount17V3BindContactInfoCAA06ServerF0AAWI
_$s11LarkAccount17V3BindContactInfoCACSeAAWl
_$s11LarkAccount17V3BindContactInfoCACSEAAWl
_$s11LarkAccount12V3VerifyInfoCMa
_$s11LarkAccount12V3VerifyInfoCMr
_$s11LarkAccount14VerifyInfoBaseCMa
_$s11LarkAccount14VerifyInfoBaseCMi
_$s11LarkAccount14VerifyInfoBaseCMr
_$s11LarkAccount14VerifyInfoBaseCyxGAA06ServerD0AAWI
_$s11LarkAccount14V3UserListInfoCMa
_$s11LarkAccount14V3UserListInfoCAA06ServerF0AAWI
_$s11LarkAccount14V3UserListInfoCACSeAAWl
_$s11LarkAccount14V3UserListInfoCACSEAAWl
_$s11LarkAccount18V3CreateTenantInfoCMa
_$s11LarkAccount18V3CreateTenantInfoCAA06ServerF0AAWI
_$s11LarkAccount18V3CreateTenantInfoCACSeAAWl
_$s11LarkAccount18V3CreateTenantInfoCACSEAAWl
_$s11LarkAccount20V3ChooseOrCreateInfoCMa
_$s11LarkAccount20V3ChooseOrCreateInfoCAA06ServerG0AAWI
_$s11LarkAccount20V3ChooseOrCreateInfoCACSeAAWl
_$s11LarkAccount20V3ChooseOrCreateInfoCACSEAAWl
_$s11LarkAccount19V3OfficialEmailInfoCMa
_$s11LarkAccount19V3OfficialEmailInfoCAA06ServerF0AAWI
_$s11LarkAccount19V3OfficialEmailInfoCACSeAAWl
_$s11LarkAccount19V3OfficialEmailInfoCACSEAAWl
_$s11LarkAccount16V3PendingApproveCMa
_$s11LarkAccount16V3PendingApproveCAA10ServerInfoAAWI
_$s11LarkAccount16V3PendingApproveCACSeAAWl
_$s11LarkAccount16V3PendingApproveCACSEAAWl
_$s11LarkAccount12V3SetPwdInfoCMa
_$s11LarkAccount12V3SetPwdInfoCAA06ServerF0AAWI
_$s11LarkAccount12V3SetPwdInfoCACSeAAWl
_$s11LarkAccount12V3SetPwdInfoCACSEAAWl
_$s11LarkAccount13V3SetNameInfoCMa
_$s11LarkAccount13V3SetNameInfoCAA06ServerF0AAWI
_$s11LarkAccount13V3SetNameInfoCACSeAAWl
_$s11LarkAccount13V3SetNameInfoCACSEAAWl
_$s11LarkAccount18V3DispatchNextInfoCMa
_$s11LarkAccount18V3DispatchNextInfoCAA06ServerF0AAWI
_$s11LarkAccount18V3DispatchNextInfoCACSeAAWl
_$s11LarkAccount18V3DispatchNextInfoCACSEAAWl
_$s11LarkAccount16V3JoinTenantInfoCMa
_$s11LarkAccount16V3JoinTenantInfoCAA06ServerF0AAWI
_$s11LarkAccount16V3JoinTenantInfoCACSeAAWl
_$s11LarkAccount16V3JoinTenantInfoCACSEAAWl
_$s11LarkAccount20V3JoinTenantCodeInfoCMa
_$s11LarkAccount20V3JoinTenantCodeInfoCAA06ServerG0AAWI
_$s11LarkAccount20V3JoinTenantCodeInfoCACSeAAWl
_$s11LarkAccount20V3JoinTenantCodeInfoCACSEAAWl
_$s11LarkAccount20V3JoinTenantScanInfoCMa
_$s11LarkAccount20V3JoinTenantScanInfoCAA06ServerG0AAWI
_$s11LarkAccount20V3JoinTenantScanInfoCACSeAAWl
_$s11LarkAccount20V3JoinTenantScanInfoCACSEAAWl
_$s11LarkAccount13V3WebStepInfoCMa
_$s11LarkAccount13V3WebStepInfoCAA06ServerF0AAWI
_$s11LarkAccount13V3WebStepInfoCACSeAAWl
_$s11LarkAccount13V3WebStepInfoCACSEAAWl
_$s11LarkAccount12IDPLoginInfoCMa
_$s11LarkAccount12IDPLoginInfoCAA06ServerD0AAWI
_$s11LarkAccount12IDPLoginInfoCACSeAAWl
_$s11LarkAccount12IDPLoginInfoCACSEAAWl
_$s11LarkAccount21CommonEventBusHandlerCMa
_$s11LarkAccount21CommonEventBusHandlerCMr
_$s11LarkAccount21CommonEventBusHandlerC10handleWorkACyAA0cF4ArgsVyAA13V3LoginEntity_pGc_tcfC
_$s11LarkAccount21CommonEventBusHandlerC10handleWorkACyAA0cF4ArgsVyAA13V3LoginEntity_pGc_tcfc
_$s11LarkAccount09V3RecoverB11CarrierInfoCMa
_$s11LarkAccount09V3RecoverB11CarrierInfoCAA06ServerF0AAWI
_$s11LarkAccount09V3RecoverB11CarrierInfoCACSeAAWl
_$s11LarkAccount09V3RecoverB11CarrierInfoCACSEAAWl
_$s11LarkAccount09V3RecoverB10ChooseInfoCMa
_$s11LarkAccount09V3RecoverB10ChooseInfoCAA06ServerF0AAWI
_$s11LarkAccount09V3RecoverB10ChooseInfoCACSeAAWl
_$s11LarkAccount09V3RecoverB10ChooseInfoCACSEAAWl
_$s11LarkAccount09V3RecoverB8FaceInfoCMa
_$s11LarkAccount09V3RecoverB8FaceInfoCAA06ServerF0AAWI
_$s11LarkAccount09V3RecoverB8FaceInfoCACSeAAWl
_$s11LarkAccount09V3RecoverB8FaceInfoCACSEAAWl
_$s11LarkAccount09V3RecoverB8BankInfoCMa
_$s11LarkAccount09V3RecoverB8BankInfoCAA06ServerF0AAWI
_$s11LarkAccount09V3RecoverB8BankInfoCACSeAAWl
_$s11LarkAccount09V3RecoverB8BankInfoCACSEAAWl
_$s11LarkAccount24V3SetInputCredentialInfoCMa
_$s11LarkAccount24V3SetInputCredentialInfoCAA06ServerG0AAWI
_$s11LarkAccount24V3SetInputCredentialInfoCACSeAAWl
_$s11LarkAccount24V3SetInputCredentialInfoCACSEAAWl
_$s11LarkAccount20SwitchVerifyIdentityCMa
_$s11LarkAccount20SwitchVerifyIdentityCMr
_$s11LarkAccount22SwitchChooseVerifyTypeCMa
_$s11LarkAccount22SwitchChooseVerifyTypeCAA10ServerInfoAAWI
_$s11LarkAccount22SwitchChooseVerifyTypeCACSeAAWl
_$s11LarkAccount22SwitchChooseVerifyTypeCACSEAAWl
_$s11LarkAccount17V3UpgradeTeamInfoCMa
_$s11LarkAccount17V3UpgradeTeamInfoCAA06ServerF0AAWI
_$s11LarkAccount17V3UpgradeTeamInfoCACSeAAWl
_$s11LarkAccount17V3UpgradeTeamInfoCACSEAAWl
_$s11LarkAccount16V3SwitchUserListCMa
_$s11LarkAccount16V3SwitchUserListCAA10ServerInfoAAWI
_$s11LarkAccount16V3SwitchUserListCACSeAAWl
_$s11LarkAccount16V3SwitchUserListCACSEAAWl
_$s11LarkAccount15V3MagicLinkInfoVMa
_$s11LarkAccount15V3MagicLinkInfoVAA06ServerF0AAWI
_$s11LarkAccount15V3MagicLinkInfoVACSeAAWl
_$s11LarkAccount15V3MagicLinkInfoVACSEAAWl
_$s11LarkAccount26UnregisterChooseVerifyTypeCMa
_$s11LarkAccount26UnregisterChooseVerifyTypeCAA10ServerInfoAAWI
_$s11LarkAccount26UnregisterChooseVerifyTypeCACSeAAWl
_$s11LarkAccount26UnregisterChooseVerifyTypeCACSEAAWl
_$s11LarkAccount21UnregisterVerifyBasicCMa
_$s11LarkAccount21UnregisterVerifyBasicCAA10ServerInfoAAWI
_$s11LarkAccount21UnregisterVerifyBasicCACSeAAWl
_$s11LarkAccount21UnregisterVerifyBasicCACSEAAWl
_$s11LarkAccount0B7MessageCMa
_$s11LarkAccount0B7MessageCAA10ServerInfoAAWI
_$s11LarkAccount0B7MessageCACSeAAWl
_$s11LarkAccount0B7MessageCACSEAAWl
_$s11LarkAccount17ModifyContactInfoVMa
_$s11LarkAccount17ModifyContactInfoVAA06ServerE0AAWI
_$s11LarkAccount17ModifyContactInfoVACSeAAWl
_$s11LarkAccount17ModifyContactInfoVACSEAAWl
_$s11LarkAccount14V3EnterAppInfoVMa
_$s11LarkAccount14V3EnterAppInfoVMr
_$s11LarkAccount14V3EnterAppInfoVAA06ServerF0AAWI
_$s11LarkAccount14V3EnterAppInfoVACSeAAWl
_$s11LarkAccount14V3EnterAppInfoVACSEAAWl
_$s11LarkAccount17V3ChooseAlertInfoVMa
_$s11LarkAccount17V3ChooseAlertInfoVAA06ServerF0AAWI
_$s11LarkAccount17V3ChooseAlertInfoVACSeAAWl
_$s11LarkAccount17V3ChooseAlertInfoVACSEAAWl
_$s11LarkAccount16V3SetContactInfoVMa
_$s11LarkAccount16V3SetContactInfoVAA06ServerF0AAWI
_$s11LarkAccount16V3SetContactInfoVACSeAAWl
_$s11LarkAccount16V3SetContactInfoVACSEAAWl
_$s11LarkAccount02V3B6AppealVMa
_$s11LarkAccount02V3B6AppealVAA10ServerInfoAAWI
_$s11LarkAccount02V3B6AppealVACSeAAWl
_$s11LarkAccount02V3B6AppealVACSEAAWl
_$s11LarkAccount21PassportEventRegistryC014registerNativeD0yyF
_$s11LarkAccount12V3NativeStepO8rawValueSSvg
_$s11LarkAccount16V3EnterpriseInfoVMa
_$s11LarkAccount29AdditionalInfoEventBusHandlerCMa
_$s11LarkAccount29AdditionalInfoEventBusHandlerCMi
_$s11LarkAccount29AdditionalInfoEventBusHandlerCMr
_$s11LarkAccount29AdditionalInfoEventBusHandlerC10handleWorkACyxGyAA0cD10HandleArgsVyxGc_tcfC
_$s11LarkAccount29AdditionalInfoEventBusHandlerC10handleWorkACyxGyAA0cD10HandleArgsVyxGc_tcfc
_$s11LarkAccount15V3SimpleWebInfoVMa
_$s11LarkAccount15V3SimpleWebInfoVMr
_$s13LarkContainer8InjectedVyxGlWOb
_$s13LarkContainer8InjectedVyxGlWOh
_$s13LarkContainer8ProviderVwxx
_$s11LarkAccount19SuiteLoginExtensionCMa
_$s11LarkAccount19SuiteLoginExtensionC13deviceServiceAA014InternalDeviceG8Protocol_pvgZ
_$s11LarkAccount15SuiteLoginStoreC23useRangerAppLogDeviceIdSbvg
_$s11LarkAccount30RangersAppLogDeviceServiceImplCMa
_$s11LarkAccount30RangersAppLogDeviceServiceImplC6sharedACvau
_globalinit_33_230D2053F5A176410E018D3276A16345_func528
_$s11LarkAccount30RangersAppLogDeviceServiceImplCACyc33_230D2053F5A176410E018D3276A16345LlfC
_$s11LarkAccount30RangersAppLogDeviceServiceImplCACyc33_230D2053F5A176410E018D3276A16345Llfc
_$s11LarkAccount15DeviceInfoStoreCMa
_$s11LarkAccount15DeviceInfoStoreCMr
_$s11LarkAccount15DeviceInfoStoreC6sourceA2C6SourceO_tcfC
_$s11LarkAccount15DeviceInfoStoreC6sourceA2C6SourceO_tcfc
_$s14KeychainAccess13AccessibilityOMa
_$s14KeychainAccess0A0CMa
_$s14KeychainAccess0A0CMr
_$s14KeychainAccess7OptionsVMa
_$s14KeychainAccess7OptionsVMr
_$s14KeychainAccess0A0C7serviceACSS_tcfC
_$s14KeychainAccess7OptionsVACycfC
_$s14KeychainAccess7OptionsVWOb
_$s14KeychainAccess7OptionsVWOc
_$s14KeychainAccess0A0CyAcA7OptionsVc33_2D02A349A5107BCCDA6E697579A7BF63LlfC
_$s14KeychainAccess0A0CyAcA7OptionsVc33_2D02A349A5107BCCDA6E697579A7BF63Llfc
_$s14KeychainAccess7OptionsVWOh
_$s14KeychainAccess0A0C14synchronizableyACSbF
_$s14KeychainAccess0A0CfD
_$s14KeychainAccess0A0Cfd
_$s14KeychainAccess13AccessibilityOwui
_$s14KeychainAccess0A0C13accessibilityyAcA13AccessibilityOF
_$s11LarkAccount15DeviceInfoStoreC19migrateDataIfNeededyyF
_$s11LarkAccount15SuiteLoginStoreC14keychainLogger16LKCommonsLogging3Log_pvau
_globalinit_33_613510A7FC3026C183123FBE0E4B322B_func648
_$s11LarkAccount15DeviceInfoStoreC11needMigrateSbyF
_$s11LarkAccount30RangersAppLogDeviceServiceImplC17observerDidChangeyyF
_$s7RxSwift8ReactiveVMa
_$s7RxSwift8ReactiveVMi
_$s7RxSwift8ReactiveVMr
_$sSo20NSNotificationCenterCMa
_$s7RxSwift18ReactiveCompatiblePAAE2rxAA0C0VyxGvg
_$s7RxSwift8ReactiveVyACyxGxcfC
_$s7RxSwift8ReactiveVyxGlWOc
_$s7RxSwift8ReactiveVyxGlWOh
_$s7RxSwift8ReactiveV0A5CocoaSo20NSNotificationCenterCRbzlE12notification_6objectAA10ObservableCy10Foundation12NotificationVGSo0E4NameaSg_yXlSgtFfA0_
_$s7RxSwift8ReactiveV0A5CocoaSo20NSNotificationCenterCRbzlE12notification_6objectAA10ObservableCy10Foundation12NotificationVGSo0E4NameaSg_yXlSgtF
_$s7RxSwift8ReactiveVwcp
_$s7RxSwift10ObservableCy10Foundation12NotificationVGACyxGAA0C4TypeAAWl
_$s7RxSwift10ObservableCy10Foundation12NotificationVGMa
_$s7RxSwift14ObservableTypePAAE6createyAA0C0Cy7ElementQzGAA10Disposable_pAA11AnyObserverVyAHGcFZ
_$s7RxSwift19AnonymousObservable33_95EBF5692819D58425EC2DD0512D115ALLCMa
_$s7RxSwift19AnonymousObservable33_95EBF5692819D58425EC2DD0512D115ALLCMi
_$s7RxSwift19AnonymousObservable33_95EBF5692819D58425EC2DD0512D115ALLCMr
_$s7RxSwift8ProducerCMa
_$s7RxSwift8ProducerCMi
_$s7RxSwift8ProducerCMr
_$s7RxSwift19AnonymousObservable33_95EBF5692819D58425EC2DD0512D115ALLCyADyxGAA10Disposable_pAA11AnyObserverVyxGccfC
_$s7RxSwift19AnonymousObservable33_95EBF5692819D58425EC2DD0512D115ALLCyADyxGAA10Disposable_pAA11AnyObserverVyxGccfc
_$s7RxSwift8ProducerCACyxGycfc
_$s7RxSwift8ReactiveVwxx
_$s7RxSwift8ProducerC9subscribeyAA10Disposable_pqd__7ElementQyd__RszAA12ObserverTypeRd__lF
_$s7RxSwift22CurrentThreadSchedulerCMa
_$s7RxSwift22CurrentThreadSchedulerC18isScheduleRequiredSbvgZ
_$s7RxSwift22CurrentThreadSchedulerC21isScheduleRequiredKey33_419FF70AD395FC204AF1C5A95696ACDDLLSuvau
_globalinit_33_419FF70AD395FC204AF1C5A95696ACDD_func5
_$s7RxSwift22CurrentThreadSchedulerC21isScheduleRequiredKey33_419FF70AD395FC204AF1C5A95696ACDDLLSuvpZfiSuyXEfU_
_$s7RxSwift22CurrentThreadSchedulerC21isScheduleRequiredKey33_419FF70AD395FC204AF1C5A95696ACDDLLSuvpZfiSuyXEfU_6$deferL_yyF
_$s7RxSwift22CurrentThreadSchedulerC8instanceACvau
_globalinit_33_419FF70AD395FC204AF1C5A95696ACDD_func4
_$s7RxSwift22CurrentThreadSchedulerCACycfC
_$s7RxSwift22CurrentThreadSchedulerCACycfc
_$s7RxSwift22CurrentThreadSchedulerC8schedule_6actionAA10Disposable_px_AaF_pxctlF
_$s7RxSwift13ScheduledItemVMa
_$s7RxSwift13ScheduledItemVMi
_$s7RxSwift13ScheduledItemVMr
_$s7RxSwift22CurrentThreadSchedulerC18isScheduleRequiredSbvsZ
_$s7RxSwift22CurrentThreadSchedulerC26scheduleInProgressSentinel33_419FF70AD395FC204AF1C5A95696ACDDLLSVvau
_globalinit_33_419FF70AD395FC204AF1C5A95696ACDD_func6
_$s7RxSwift22CurrentThreadSchedulerC26scheduleInProgressSentinel33_419FF70AD395FC204AF1C5A95696ACDDLLSVvpZfiSVyXEfU_
_$ss5Int32VABSZsWl
_$ss5Int32VABs17FixedWidthIntegersWl
_$s7RxSwift10Disposable_pIegr_ytAaB_pIegnr_TRTA
_$s7RxSwift10Disposable_pIegr_ytAaB_pIegnr_TR
_$s7RxSwift8ProducerC9subscribeyAA10Disposable_pqd__7ElementQyd__RszAA12ObserverTypeRd__lFAaE_pyt_tcfU_TA
_$s7RxSwift8ProducerC9subscribeyAA10Disposable_pqd__7ElementQyd__RszAA12ObserverTypeRd__lFAaE_pyt_tcfU_
_$s7RxSwift12SinkDisposer33_B4E79ED897163AA84B94CE0A507A4630LLCMa
_$s7RxSwift12SinkDisposer33_B4E79ED897163AA84B94CE0A507A4630LLCADycfC
_$s7RxSwift12SinkDisposer33_B4E79ED897163AA84B94CE0A507A4630LLCADycfc
_$s7RxSwift19AnonymousObservable33_95EBF5692819D58425EC2DD0512D115ALLC3run_6cancelAA10Disposable_p4sink_AaG_p12subscriptiontqd___AA10Cancelable_pt7ElementQyd__RszAA12ObserverTypeRd__lF
_$s7RxSwift23AnonymousObservableSink33_95EBF5692819D58425EC2DD0512D115ALLCMa
_$s7RxSwift23AnonymousObservableSink33_95EBF5692819D58425EC2DD0512D115ALLCMi
_$s7RxSwift23AnonymousObservableSink33_95EBF5692819D58425EC2DD0512D115ALLCMr
_$s7RxSwift4SinkCMa
_$s7RxSwift4SinkCMi
_$s7RxSwift4SinkCMr
_$s7RxSwift10Cancelable_pWOc
_$s7RxSwift23AnonymousObservableSink33_95EBF5692819D58425EC2DD0512D115ALLC8observer6cancelADyxGx_AA10Cancelable_ptcfC
_$s7RxSwift23AnonymousObservableSink33_95EBF5692819D58425EC2DD0512D115ALLC8observer6cancelADyxGx_AA10Cancelable_ptcfc
_$s7RxSwift4SinkC8observer6cancelACyxGx_AA10Cancelable_ptcfc
_$s7RxSwift10Cancelable_pWOb
_$s7RxSwift23AnonymousObservableSink33_95EBF5692819D58425EC2DD0512D115ALLC3runyAA10Disposable_pAA0cD0ACLLCy7ElementQzGF
_$s7RxSwift11AnyObserverVyACyxGqd__c7ElementQyd__RszAA0D4TypeRd__lufC
_$s7RxSwift11AnyObserverVyACyxGqd__c7ElementQyd__RszAA0D4TypeRd__lufcyAA5EventOyxGcqd__cfu_
_$s7RxSwift11AnyObserverVyxG7ElementQyd__RszAA0D4TypeRd__r__lWOh
_$s7RxSwift8ReactiveV0A5CocoaSo20NSNotificationCenterCRbzlE12notification_6objectAA10ObservableCy10Foundation12NotificationVGSo0E4NameaSg_yXlSgtFAA10Disposable_pAA11AnyObserverVyAMGcfU_TA
_$s7RxSwift8ReactiveV0A5CocoaSo20NSNotificationCenterCRbzlE12notification_6objectAA10ObservableCy10Foundation12NotificationVGSo0E4NameaSg_yXlSgtFAA10Disposable_pAA11AnyObserverVyAMGcfU_
_$s7RxSwift8ReactiveV4basexvg
_$s7RxSwift11AnyObserverVwcp
_$s7RxSwift11DisposablesV6create4withAA10Cancelable_pyyc_tFZ
_$s7RxSwift19AnonymousDisposable33_AB3B9E8806A71B46FB498A7594F5E0D9LLCMa
_$s7RxSwift19AnonymousDisposable33_AB3B9E8806A71B46FB498A7594F5E0D9LLC13disposeActionADyyc_tcfC
_$s7RxSwift19AnonymousDisposable33_AB3B9E8806A71B46FB498A7594F5E0D9LLC13disposeActionADyyc_tcfc
_$s7RxSwift11AnyObserverVy7ElementAA0D4TypePQzGAaERzlWOh
_$s7RxSwift12SinkDisposer33_B4E79ED897163AA84B94CE0A507A4630LLC03setC15AndSubscription4sink12subscriptionyAA10Disposable_p_AaH_ptF
_$s7RxSwift12SinkDisposer33_B4E79ED897163AA84B94CE0A507A4630LLC12DisposeStateO8rawValues5Int32Vvg
_$s7RxSwift7fetchOrys5Int32VAA9AtomicIntC_ADtF
_$s7RxSwift10Disposable_p4sink_AaB_p12subscriptiontWOh
_$s7RxSwift22CurrentThreadSchedulerC5queueAA0A10MutableBoxCyAA5QueueVyAA17ScheduledItemType_pGGSgvgZ
_$s7RxSwift30CurrentThreadSchedulerQueueKey33_419FF70AD395FC204AF1C5A95696ACDDLLCMa
_$s7RxSwift30CurrentThreadSchedulerQueueKey33_419FF70AD395FC204AF1C5A95696ACDDLLC8instanceADvau
_globalinit_33_419FF70AD395FC204AF1C5A95696ACDD_func3
_$s7RxSwift30CurrentThreadSchedulerQueueKey33_419FF70AD395FC204AF1C5A95696ACDDLLCADycfC
_$s7RxSwift30CurrentThreadSchedulerQueueKey33_419FF70AD395FC204AF1C5A95696ACDDLLCADycfcTo
_$s7RxSwift30CurrentThreadSchedulerQueueKey33_419FF70AD395FC204AF1C5A95696ACDDLLCADycfc
_$s7RxSwift5QueueVMa
_$s7RxSwift5QueueVMi
_$s7RxSwift0A10MutableBoxCMa
_$s7RxSwift0A10MutableBoxCMi
_$s7RxSwift0A10MutableBoxCMr
_$sSo8NSThreadC7RxSwiftE32getThreadLocalStorageValueForKeyyxSgSo9NSCopying_plFZ
_$s7RxSwift30CurrentThreadSchedulerQueueKey33_419FF70AD395FC204AF1C5A95696ACDDLLC4hashSivgTo
_$s7RxSwift30CurrentThreadSchedulerQueueKey33_419FF70AD395FC204AF1C5A95696ACDDLLC4hashSivg
_$s7RxSwift22CurrentThreadSchedulerC8schedule_6actionAA10Disposable_px_AaF_pxctlF6$deferL_yylF
_$s7RxSwift22CurrentThreadSchedulerC5queueAA0A10MutableBoxCyAA5QueueVyAA17ScheduledItemType_pGGSgvsZ
_$sSo8NSThreadC7RxSwiftE26setThreadLocalStorageValue_6forKeyyxSg_So9NSCopying_ptRlzClFZ
_$s7RxSwift8ProducerCACyxGycfC
_$sxly10Foundation12NotificationVIsegn_SgWOe
_$s7RxSwift19AnonymousObservable33_95EBF5692819D58425EC2DD0512D115ALLCfD
_$s7RxSwift19AnonymousObservable33_95EBF5692819D58425EC2DD0512D115ALLCfd
_$s7RxSwift8ProducerCfd
_$s7RxSwift10ObservableCfd
_$s11LarkAccount30RangersAppLogDeviceServiceImplCAcA08InternalfG8ProtocolAAWl
_$s11LarkAccount30RangersAppLogDeviceServiceImplCAA08InternalfG8ProtocolAAWI
_$s11LarkAccount30RangersAppLogDeviceServiceImplCAC0aB9Interface0fG0AAWl
_$s11LarkAccount14V3LoginServiceC6logger16LKCommonsLogging3Log_pvau
_globalinit_33_1C968E09F738DE7D89F516BDC9FE177F_func894
_$s11LarkAccount14V3LoginServiceC03envE0AA03EnvE8Protocol_pvg
_$s8Swinject8Resolver_p11LarkAccount18EnvServiceProtocol_pIegno_AaB_pAcD_pIegnr_TRTA
_$s8Swinject8Resolver_p11LarkAccount18EnvServiceProtocol_pIegno_AaB_pAcD_pIegnr_TR
_$s11LarkAccount0B8AssemblyC16internalAssemble33_65BEB9A337320A208CC125CED6C564BCLL9containery8Swinject9ContainerC_tFAA18EnvServiceProtocol_pAG8Resolver_pcfU21_
_$s11LarkAccount14EnvServiceImplCMa
_$s11LarkAccount14EnvServiceImplCMr
_$s11LarkAccount14EnvServiceImplCACycfC
_$s11LarkAccount14EnvServiceImplCACycfc
_$s11LarkAccount14EnvServiceImplC7isAlpha33_CA5C3A347A55F7DAD0B99A77C599FFDDLLSbvau
_globalinit_33_CA5C3A347A55F7DAD0B99A77C599FFDD_func293
_$s11LarkAccount14EnvServiceImplC7isAlpha33_CA5C3A347A55F7DAD0B99A77C599FFDDLLSbvpZfiSbyXEfU_
_$s7LarkEnv0B7ManagerCMa
_$s7LarkEnv0B7ManagerC05isStdA0SbvgZ
_$s17LarkReleaseConfig0bC0C0B7ChannelOMa
_$s7LarkEnv0B7ManagerC05isStdA3Key33_A42BB24067F1EFB6F32EFA5661AD4325LLSSvgZ
_$s7LarkEnv6SwitchV2onSSvau
_globalinit_33_B7CCFDB64F6AFC0D2F63A57426D100B8_func7
_$s7LarkEnv0B7ManagerC3envAA0B0VvgZ
_$s7LarkEnv0B7ManagerC05debugB5KeyV233_A42BB24067F1EFB6F32EFA5661AD4325LLSSvgZ
_$s7LarkEnv0B0VACSeAAWl
_$s7LarkEnv0B0VSeAASe4fromxs7Decoder_p_tKcfCTW
_$s7LarkEnv0B0V4fromACs7Decoder_p_tKcfC
_$s7LarkEnv0B0V10CodingKeys33_B7CCFDB64F6AFC0D2F63A57426D100B8LLOMa
_$s7LarkEnv0B0V10CodingKeys33_B7CCFDB64F6AFC0D2F63A57426D100B8LLOs0C3KeyAAs28CustomDebugStringConvertiblePWb
_$s7LarkEnv0B0V10CodingKeys33_B7CCFDB64F6AFC0D2F63A57426D100B8LLOAFs28CustomDebugStringConvertibleAAWl
_$s7LarkEnv0B0V10CodingKeys33_B7CCFDB64F6AFC0D2F63A57426D100B8LLOs0C3KeyAAs23CustomStringConvertiblePWb
_$s7LarkEnv0B0V10CodingKeys33_B7CCFDB64F6AFC0D2F63A57426D100B8LLOAFs23CustomStringConvertibleAAWl
_$s7LarkEnv0B0V10CodingKeys33_B7CCFDB64F6AFC0D2F63A57426D100B8LLOAFs0C3KeyAAWl
_$s7LarkEnv0B0V8TypeEnumOAESeAAWl
_$s7LarkEnv0B0V10CodingKeys33_B7CCFDB64F6AFC0D2F63A57426D100B8LLOs0C3KeyAAsAGP11stringValueSSvgTW
_$s7LarkEnv0B0V10CodingKeys33_B7CCFDB64F6AFC0D2F63A57426D100B8LLO11stringValueSSvg
_$s7LarkEnv0B0V8TypeEnumOSeAASe4fromxs7Decoder_p_tKcfCTW
_$s7LarkEnv0B0V8TypeEnumOAESYAAWl
_$s7LarkEnv0B0V8TypeEnumOMa
_$s7LarkEnv0B0V8TypeEnumOSYAASY8rawValuexSg03RawF0Qz_tcfCTW
_$s7LarkEnv0B0V8TypeEnumO8rawValueAESgSi_tcfC
_$s7LarkEnv0B0V8TypeEnumOwet
_$s7LarkEnv0B0V8TypeEnumOwst
_$s7LarkEnv0B0VWOh
_$s7LarkEnv0B0Vwcp
_$s7LarkEnv0B0Vwxx
_$s7LarkEnv0B0Vwst
_$s7LarkEnv0B0Vwet
_$s11LarkAccount14EnvServiceImplC6logger16LKCommonsLogging3Log_pvau
_globalinit_33_CA5C3A347A55F7DAD0B99A77C599FFDD_func292
_$s11LarkAccount14EnvServiceImplCAA0cD8ProtocolA2aDP3env0aC00C0VvgTW
_$s11LarkAccount14EnvServiceImplC3env0aC00C0Vvg
_$s7LarkEnv0B0VACs23CustomStringConvertibleAAWl
_$s7LarkEnv0B0Vs23CustomStringConvertibleAAsADP11descriptionSSvgTW
_$s7LarkEnv0B0V11descriptionSSvg
_$s7LarkEnv0B0V8TypeEnumOwug
_$s11LarkAccount0B8AssemblyC22assembleRequestHandler33_65BEB9A337320A208CC125CED6C564BCLL9containery8Swinject9ContainerC_tF
_$s11EENavigator6RouterC18registerMiddleware7pattern9postRoute12cacheHandler7factoryySS_S2bAA0bI0_pyctFfA_
_$s11EENavigator6RouterC18registerMiddleware7pattern9postRoute12cacheHandler7factoryySS_S2bAA0bI0_pyctFfA0_
_$s11EENavigator6RouterC18registerMiddleware7pattern9postRoute12cacheHandler7factoryySS_S2bAA0bI0_pyctF
_$s11EENavigator6RouterC11wrapFactory_12cacheHandler3keyxycxyc_SbSSSgtlF
_$s11EENavigator6RouterC18registerMiddleware7pattern9postRoute_ySS_SbyAA7RequestC_AA8ResponseCtctF
_$s11LarkAccount0B8AssemblyC8assemble9containery8Swinject9ContainerC_tFyycfU0_
_$s11LarkAccount19SuiteLoginExtensionC19createDeviceService0aB9Interface0gH0_pyFZ
_$s11LarkAccount0B8AssemblyC8assemble9containery8Swinject9ContainerC_tFyycfU1_TA
_$s11LarkAccount0B8AssemblyC8assemble9containery8Swinject9ContainerC_tFyycfU1_
_$s11EENavigator6RouterC6append33_F6468634524AEC61A3A770436DA097E4LL_9postRouteyAA10MiddlewareV_SbtF
_$s11EENavigator6RouterC14preMiddlewares33_F6468634524AEC61A3A770436DA097E4LLSayAA10MiddlewareVGvM
_$s11EENavigator6RouterC14preMiddlewares33_F6468634524AEC61A3A770436DA097E4LLSayAA10MiddlewareVGvM.resume.0
_$s20LarkAccountInterface17SimplifyLoginBodyVMa
_$s20LarkAccountInterface17SimplifyLoginBodyVAC11EENavigator0F0AAWl
_$s20LarkAccountInterface17SimplifyLoginBodyV11EENavigator0F0AaD14URLConvertiblePWb
_$s20LarkAccountInterface17SimplifyLoginBodyVAC11EENavigator14URLConvertibleAAWl
_$s11EENavigator6RouterC13registerRoute4type8priority6tester12cacheHandler7factoryyxm_AC8PriorityOSbAA7RequestCcSbAA05TypedbI0CyxGyctAA4BodyRzlF
_$s11EENavigator18TypedRouterHandlerCMa
_$s11EENavigator18TypedRouterHandlerCMi
_$s11EENavigator18TypedRouterHandlerCMr
_$s11EENavigator6RouterC11wrapFactory_12cacheHandler3keyxycxyc_SbSSSgtlFfA1_
_$s11EENavigator6RouterC13registerRoute4type8priority6tester_yxm_AC8PriorityOSbAA7RequestCcyx_AkA8ResponseCtctAA4BodyRzlF
_$s11EENavigator6RouterC19wrapCheckParameters33_A7FC7C69BEDB28D197E32089464EFCA7LL4type7handleryAA7RequestC_AA8ResponseCtcxm_yx_AiKtctAA4BodyRzlF
_$s20LarkAccountInterface17SimplifyLoginBodyV11EENavigator0F0AadEP13patternConfigAD07PatternI0VvgZTW
_$s20LarkAccountInterface17SimplifyLoginBodyVAC11EENavigator05PlainF0AAWl
_$s20LarkAccountInterface17SimplifyLoginBodyV11EENavigator05PlainF0AaD0F0PWb
_$s20LarkAccountInterface17SimplifyLoginBodyV11EENavigator05PlainF0AadEP7patternSSvgZTW
_$s20LarkAccountInterface17SimplifyLoginBodyV7patternSSvgZ
_$s20LarkAccountInterface17SimplifyLoginBodyV7patternSSvau
_globalinit_33_BA53CF3D1DE61C8841B15B79968A67BE_func22
_$s11EENavigator6RouterC8PriorityOSQAASQ2eeoiySbx_xtFZTW
_$sSay11EENavigator10MiddlewareVGWOh
_$s20LarkAccountInterface14GuestLoginBodyVMa
_$s20LarkAccountInterface14GuestLoginBodyVAC11EENavigator0F0AAWl
_$s20LarkAccountInterface14GuestLoginBodyV11EENavigator0F0AaD14URLConvertiblePWb
_$s20LarkAccountInterface14GuestLoginBodyVAC11EENavigator14URLConvertibleAAWl
_$s20LarkAccountInterface14GuestLoginBodyV11EENavigator0F0AadEP13patternConfigAD07PatternI0VvgZTW
_$s20LarkAccountInterface14GuestLoginBodyVAC11EENavigator05PlainF0AAWl
_$s20LarkAccountInterface14GuestLoginBodyV11EENavigator05PlainF0AaD0F0PWb
_$s20LarkAccountInterface14GuestLoginBodyV11EENavigator05PlainF0AadEP7patternSSvgZTW
_$s20LarkAccountInterface14GuestLoginBodyV7patternSSvgZ
_$s20LarkAccountInterface14GuestLoginBodyV7patternSSvau
_globalinit_33_BA53CF3D1DE61C8841B15B79968A67BE_func23
_$s20LarkAccountInterface0B14ManagementBodyV7patternSSvgZ
_$s20LarkAccountInterface0B14ManagementBodyV7patternSSvau
_globalinit_33_BA53CF3D1DE61C8841B15B79968A67BE_func24
_$s11EENavigator6RouterC13registerRoute7pattern8priority6tester_ySS_AC8PriorityOSbAA7RequestCcyAK_AA8ResponseCtctFfA0_
_$s11EENavigator6RouterC13registerRoute7pattern8priority6tester_ySS_AC8PriorityOSbAA7RequestCcyAK_AA8ResponseCtctFfA1_
_$s11EENavigator6RouterC13registerRoute7pattern8priority6tester_ySS_AC8PriorityOSbAA7RequestCcyAK_AA8ResponseCtctFTj
_$s11EENavigator6RouterC13registerRoute7pattern8priority6tester_ySS_AC8PriorityOSbAA7RequestCcyAK_AA8ResponseCtctF
_$s20LarkAccountInterface04MineB4BodyVMa
_$s20LarkAccountInterface04MineB4BodyVAC11EENavigator0E0AAWl
_$s20LarkAccountInterface04MineB4BodyV11EENavigator0E0AaD14URLConvertiblePWb
_$s20LarkAccountInterface04MineB4BodyVAC11EENavigator14URLConvertibleAAWl
_$s20LarkAccountInterface04MineB4BodyVACSeAAWl
_$s20LarkAccountInterface04MineB4BodyVACSEAAWl
_$s20LarkAccountInterface04MineB4BodyV11EENavigator0E0AadEP13patternConfigAD07PatternH0VvgZTW
_$s20LarkAccountInterface04MineB4BodyVAC11EENavigator05PlainE0AAWl
_$s20LarkAccountInterface04MineB4BodyV11EENavigator05PlainE0AaD0E0PWb
_$s20LarkAccountInterface04MineB4BodyV11EENavigator05PlainE0AadEP7patternSSvgZTW
_$s20LarkAccountInterface04MineB4BodyV7patternSSvgZ
_$s20LarkAccountInterface04MineB4BodyV7patternSSvau
_globalinit_33_BA53CF3D1DE61C8841B15B79968A67BE_func25
_$s11LarkAccount06SwitchB4BodyVAC11EENavigator0D0AAWl
_$s11LarkAccount06SwitchB4BodyV11EENavigator0D0AaD14URLConvertiblePWb
_$s11LarkAccount06SwitchB4BodyVAC11EENavigator14URLConvertibleAAWl
_$s11LarkAccount06SwitchB4BodyVACSeAAWl
_$s11LarkAccount06SwitchB4BodyVACSEAAWl
_$s11EENavigator6RouterC13registerRoute4type8priority6tester12cacheHandler7factoryyxm_AC8PriorityOSbAA7RequestCcSbAA05TypedbI0CyxGyctAA4BodyRzSeRzSERzlF
_$s11LarkAccount06SwitchB4BodyV11EENavigator0D0AadEP13patternConfigAD07PatternG0VvgZTW
_$s11LarkAccount06SwitchB4BodyVAC11EENavigator05PlainD0AAWl
_$s11LarkAccount06SwitchB4BodyV11EENavigator05PlainD0AaD0D0PWb
_$s11LarkAccount06SwitchB4BodyV11EENavigator05PlainD0AadEP7patternSSvgZTW
_$s11LarkAccount06SwitchB4BodyV7patternSSvgZ
_$s11LarkAccount06SwitchB4BodyV7patternSSvau
_globalinit_33_957A288224BDD068D7C6498A80E779B3_func653
_$s11LarkAccount0B8AssemblyC17assembleDebugItem33_65BEB9A337320A208CC125CED6C564BCLL9containery8Swinject9ContainerC_tF
_$s11LarkAccount0B8AssemblyC24assembleLauncherDelegate33_65BEB9A337320A208CC125CED6C564BCLL9containery8Swinject9ContainerC_tF
_$s20LarkAccountInterface33LauncherDelegateRegisteryPriorityOMa
_$s20LarkAccountInterface25LauncherDelegateRegisteryCMa
_$s20LarkAccountInterface23LauncherDelegateFactoryCMa
_$s20LarkAccountInterface23LauncherDelegateFactoryC16delegateProviderAcA0dE0_pyc_tcfC
_$s20LarkAccountInterface23LauncherDelegateFactoryC16delegateProviderAcA0dE0_pyc_tcfc
_$s20LarkAccountInterface33LauncherDelegateRegisteryPriorityOwui
_$s20LarkAccountInterface25LauncherDelegateRegisteryC8register7factory8priorityyAA0dE7FactoryC_AA0deF8PriorityOtFZ
_$s20LarkAccountInterface25LauncherDelegateRegisteryC13factoriesDictSDySSSayAA0dE7FactoryCGGvau
_globalinit_33_68C5B850F1DCEBD7F7DA7FF0B9ECFB82_func0
_$s20LarkAccountInterface33LauncherDelegateRegisteryPriorityO8rawValueSSvg
_$sSay20LarkAccountInterface23LauncherDelegateFactoryCGSgWOh
_$sSay20LarkAccountInterface23LauncherDelegateFactoryCGWOh
_$s11LarkAccount0B8AssemblyC27assembleApplicationDelegate33_65BEB9A337320A208CC125CED6C564BCLLyyF
_$s12AppContainer13DelegateLevelOMa
_$s11LarkAccount25AppLogApplicationDelegateCMa
_$s11LarkAccount25AppLogApplicationDelegateCAC0C9Container0eF0AAWl
_$s11LarkAccount25AppLogApplicationDelegateC0C9Container0eF0AaD8ObserverPWb
_$s11LarkAccount25AppLogApplicationDelegateCAC0C9Container8ObserverAAWl
_$s12AppContainer13DelegateLevelOwui
_$s12AppContainer10BootLoaderC19registerApplication8delegate5levelyAA0F8Delegate_pXp_AA0I5LevelOtF
_$s11LarkAccount25AppLogApplicationDelegateC0C9Container8ObserverAadEP6configAD6ConfigVvgZTW
_$s11LarkAccount25AppLogApplicationDelegateC6config0C9Container6ConfigVvgZ
_$s11LarkAccount25AppLogApplicationDelegateC6config0C9Container6ConfigVvau
_globalinit_029_E5A0A30A14842E4A2AB69EB17B25A2CF_func12
_$s12AppContainer6ConfigVMa
_$s12AppContainer6ConfigV4name6daemonACSS_SbtcfC
_$s12AppContainer6ConfigVWOh
_$s12AppContainer6ConfigVwcp
_$s12AppContainer0A12InnerContextC19registerApplication6config8delegateyAA6ConfigV_AA0F8Delegate_pXptF
_$s12AppContainer0A12InnerContextC20ApplicationRegisteryV6config4typeAeA6ConfigV_AA0E8Delegate_pXptcfC
_$s12AppContainer0A12InnerContextC21applicationsRegisterySayAC011ApplicationF0VGvM
_$s12AppContainer0A12InnerContextC20ApplicationRegisteryVMa
_$s12AppContainer0A12InnerContextC21applicationsRegisterySayAC011ApplicationF0VGvM.resume.0
_$s12AppContainer10BootLoaderC14assemblyLoadedSbvau
_globalinit_33_D47E146FCDA0DAE0F5A047A6F7F64886_func6
_$s11LarkAccount0B8AssemblyC17assembleResetWork33_65BEB9A337320A208CC125CED6C564BCLL9containery8Swinject9ContainerC_tF
_$s18LarkSettingsBundle16ResetTaskManagerC8PriorityOMa
_$s18LarkSettingsBundle16ResetTaskManagerCMa
_$s18LarkSettingsBundle16ResetTaskManagerC8register8priority4taskyAC8PriorityO_yyycctFZfA_
_$s18LarkSettingsBundle16ResetTaskManagerC8PriorityOwui
_$s18LarkSettingsBundle16ResetTaskManagerC8register8priority4taskyAC8PriorityO_yyycctFZ
_$s18LarkSettingsBundle16ResetTaskManagerC6sharedACvau
_globalinit_33_32EBC35C05D5C8BC56F87C933103B086_func0
_$s18LarkSettingsBundle16ResetTaskManagerCACycfC
_$s18LarkSettingsBundle16ResetTaskManagerCACycfc
_$s18LarkSettingsBundle16ResetTaskManagerC8PriorityOAESHAAWl
_$s18LarkSettingsBundle16ResetTaskManagerC8PriorityOSHAASQWb
_$s18LarkSettingsBundle16ResetTaskManagerC8PriorityOAESQAAWl
_$s11LarkAccount0B8AssemblyC18assembleLaunchTask33_65BEB9A337320A208CC125CED6C564BCLLyyF
_$s11LarkAccount13FastLoginTaskCMa
_$s11LarkAccount13FastLoginTaskCMr
_$s13LarkContainer8ProviderVy0A16AccountInterface0D7Service_pGMa
_$s20LarkAccountInterface0B7Service_pMa
_$s11LarkAccount13FastLoginTaskCAC11BootManager12IdentifiableAAWl
_$s11LarkAccount13FastLoginTaskC11BootManager12IdentifiableAadEP8identifySSvgZTW
_$s11LarkAccount13FastLoginTaskC8identifySSvgZ
_$s11LarkAccount13FastLoginTaskC8identifySSvau
_globalinit_33_53A40599D14C07F4D6AEE1CC8D175ADC_func300
_$s18LarkSettingsBundle16ResetTaskManagerC8register8priority4taskyAC8PriorityO_yyycctFZyycfU_TA
_$s11LarkAccount9LoginTaskCMa
_$s18LarkSettingsBundle16ResetTaskManagerC8register8priority4taskyAC8PriorityO_yyycctFZyycfU_
_$s11LarkAccount9LoginTaskCMr
_$s18LarkSettingsBundle16ResetTaskManagerC5tasksSDyAC8PriorityOSayyyyccGGvg
_$s11LarkAccount9LoginTaskCAC11BootManager12IdentifiableAAWl
_$s18LarkSettingsBundle16ResetTaskManagerC5tasksSDyAC8PriorityOSayyyyccGGvM
_$s11LarkAccount9LoginTaskC11BootManager12IdentifiableAadEP8identifySSvgZTW
_$s11LarkAccount9LoginTaskC8identifySSvgZ
_$s11LarkAccount9LoginTaskC8identifySSvau
_globalinit_33_DE28D1944E24B947C6E2C24462C5285E_func324
_$s11LarkAccount14CreateTeamTaskCMa
_$s11LarkAccount14CreateTeamTaskCMr
_$s11LarkAccount14CreateTeamTaskCAC11BootManager12IdentifiableAAWl
_$s11LarkAccount14CreateTeamTaskC11BootManager12IdentifiableAadEP8identifySSvgZTW
_$s11LarkAccount14CreateTeamTaskC8identifySSvgZ
_$s11LarkAccount14CreateTeamTaskC8identifySSvau
_globalinit_33_7650D09CA1CF06EB98C7DABF7DC9E0DE_func276
_$s11LarkAccount20SuiteLoginLoggerTaskCMa
_$s11LarkAccount20SuiteLoginLoggerTaskCMr
_$s11LarkAccount20SuiteLoginLoggerTaskCAC11BootManager12IdentifiableAAWl
_$s11LarkAccount20SuiteLoginLoggerTaskC11BootManager12IdentifiableAadEP8identifySSvgZTW
_$s11LarkAccount20SuiteLoginLoggerTaskC8identifySSvgZ
_$s11LarkAccount20SuiteLoginLoggerTaskC8identifySSvau
_globalinit_33_B92A941EE17CEC8C1F2D2DAC29C86F3E_func640
_$s11LarkAccount21SuiteLoginFetchConfigCMa
_$s11LarkAccount21SuiteLoginFetchConfigCMr
_$s11LarkAccount21SuiteLoginFetchConfigCAC11BootManager12IdentifiableAAWl
_$s11LarkAccount21SuiteLoginFetchConfigC11BootManager12IdentifiableAadEP8identifySSvgZTW
_$s11LarkAccount21SuiteLoginFetchConfigC8identifySSvgZ
_$s11LarkAccount21SuiteLoginFetchConfigC8identifySSvau
_globalinit_33_59625D6B1F1A83FF3A4092D28A982B36_func611
_$s11LarkAccount015SuiteLoginAfterB6LoadedCMa
_$s11LarkAccount015SuiteLoginAfterB6LoadedCMr
_$s11LarkAccount015SuiteLoginAfterB6LoadedCAC11BootManager12IdentifiableAAWl
_$s11LarkAccount015SuiteLoginAfterB6LoadedC11BootManager12IdentifiableAadEP8identifySSvgZTW
_$s11LarkAccount015SuiteLoginAfterB6LoadedC8identifySSvgZ
_$s11LarkAccount015SuiteLoginAfterB6LoadedC8identifySSvau
_globalinit_33_D652714ADB059E28E4364B32D7CE778C_func609
_$s11LarkAccount25UnloginProcessHandlerTaskCMa
_$s11LarkAccount25UnloginProcessHandlerTaskCMr
_$s13LarkContainer8ProviderVy0A7Account21UnloginProcessHandlerCGMa
_$s11LarkAccount25UnloginProcessHandlerTaskCAC11BootManager12IdentifiableAAWl
_$s11LarkAccount25UnloginProcessHandlerTaskC11BootManager12IdentifiableAadEP8identifySSvgZTW
_$s11LarkAccount25UnloginProcessHandlerTaskC8identifySSvgZ
_$s11LarkAccount25UnloginProcessHandlerTaskC8identifySSvau
_globalinit_33_7226F4C531B233FF69495C782E4DD4F1_func696
_$s11LarkAccount15SetupAppLogTaskCMa
_$s11LarkAccount15SetupAppLogTaskCMr
_$s11LarkAccount15SetupAppLogTaskCAC11BootManager12IdentifiableAAWl
_$s11LarkAccount15SetupAppLogTaskC11BootManager12IdentifiableAadEP8identifySSvgZTW
_$s11LarkAccount15SetupAppLogTaskC8identifySSvgZ
_$s11LarkAccount15SetupAppLogTaskC8identifySSvau
_globalinit_33_B07CC87F7E01D18D1BB946454C6F585E_func582
_$s11LarkAccount0B21InterrupstHandlerTaskCMa
_$s11LarkAccount0B21InterrupstHandlerTaskCMr
_$s11LarkAccount0B21InterrupstHandlerTaskCAC11BootManager12IdentifiableAAWl
_$s11LarkAccount0B21InterrupstHandlerTaskC11BootManager12IdentifiableAadEP8identifySSvgZTW
_$s11LarkAccount0B21InterrupstHandlerTaskC8identifySSvgZ
_$s11LarkAccount0B21InterrupstHandlerTaskC8identifySSvau
_globalinit_33_94B885F8A25E3772BFCB447FB2B27C9C_func2
_$s11LarkAccount25PassportPreloadLaunchTaskCMa
_$s11LarkAccount25PassportPreloadLaunchTaskCMr
_$s11LarkAccount25PassportPreloadLaunchTaskCAC11BootManager12IdentifiableAAWl
_$s11LarkAccount25PassportPreloadLaunchTaskC11BootManager12IdentifiableAadEP8identifySSvgZTW
_$s11LarkAccount25PassportPreloadLaunchTaskC8identifySSvgZ
_$s11LarkAccount25PassportPreloadLaunchTaskC8identifySSvau
_globalinit_33_52C3D1142043503658CA708DFE2C26CB_func477
_$s11LarkAccount0B8AssemblyC19assembleEnvDelegate33_65BEB9A337320A208CC125CED6C564BCLLyyF
_$s7LarkEnv0B16DelegateRegistryCMa
_$s7LarkEnv0B15DelegateFactoryCMa
_$s7LarkEnv0B15DelegateFactoryC16delegateProviderAcA0bC0_pyc_tcfC
_$s7LarkEnv0B15DelegateFactoryC16delegateProviderAcA0bC0_pyc_tcfc
_$s7LarkEnv0B16DelegateRegistryC8register7factoryyAA0bC7FactoryC_tFZ
_$s7LarkEnv0B16DelegateRegistryC9factoriesSayAA0bC7FactoryCGvau
_globalinit_022_905849B0FBC6D73947851A9C84CA509E_func9
_$s14SuiteAppConfig0abC8AssemblyC8Swinject0D0AadEP8assemble9containeryAD9ContainerC_tFTW
_$s14SuiteAppConfig0abC8AssemblyC8assemble9containery8Swinject9ContainerC_tF
_$s14SuiteAppConfig0abC8AssemblyC14publicAssebmle33_4578B2B3FDFAAF3D60EBC508D988C938LL9containery8Swinject9ContainerC_tF
_$s14SuiteAppConfig0bC7ManagerCMa
_$s14SuiteAppConfig0bC7ManagerCMr
_$s6RustPB20Basic_V1_AppConfigV2VSgMa
_$s18LarkSettingsBundle16ResetTaskManagerC8PriorityOSHAASH13_rawHashValue4seedS2i_tFTW
_$s18LarkSettingsBundle16ResetTaskManagerC8PriorityOAESYAAWl
_$s18LarkSettingsBundle16ResetTaskManagerC8PriorityOSHAASH4hash4intoys6HasherVz_tFTW
_$s18LarkSettingsBundle16ResetTaskManagerC8PriorityOSYAASY8rawValue03RawI0QzvgTW
_$s18LarkSettingsBundle16ResetTaskManagerC8PriorityO8rawValueSivg
_$s18LarkSettingsBundle16ResetTaskManagerC5tasksSDyAC8PriorityOSayyyyccGGvM.resume.0
_$s6RustPB20Basic_V1_AppConfigV2VMa
_$s6RustPB20Basic_V1_AppConfigV2VMr
_$s6RustPB20Basic_V1_AppConfigV2V7SectionVSgMa
_$s6RustPB20Basic_V1_AppConfigV2V7SectionVMa
_$s6RustPB20Basic_V1_AppConfigV2V7SectionVMr
_$s14SuiteAppConfig0bC7ManagerC6sharedACvau
_globalinit_33_4C4A8662AAC8D4DC6018B13C2BC0A484_func2
_$s14SuiteAppConfig0bC7ManagerCACycfC
_$s14SuiteAppConfig0bC7ManagerCACycfc
_$s6RustPB20Basic_V1_AppConfigV2Vwst
_$s6RustPB20Basic_V1_AppConfigV2V7SectionVwst
_$s6RustPB20Basic_V1_AppConfigV2VSgWOb
_$s6RustPB20Basic_V1_AppConfigV2Vwet
_$s6RustPB20Basic_V1_AppConfigV2V7SectionVwet
_$s14SuiteAppConfig7FeatureCMa
_$s14SuiteAppConfig0bC7ManagerC13setDependency18rustClientProvidery08LarkRustH00K7Service_pyc_tF
_$s14LarkRustClient0B7Service_pIegr_SgWOy
_$s14LarkRustClient0B7Service_pIegr_SgWOe
_$s14SuiteAppConfig0abC8AssemblyC19assemblePushHandler33_4578B2B3FDFAAF3D60EBC508D988C938LL9containery8Swinject9ContainerC_tF
_$s14SuiteAppConfig0abC8AssemblyC24assembleLauncherDelegate33_4578B2B3FDFAAF3D60EBC508D988C938LL9containery8Swinject9ContainerC_tF
_$s22LarkRustClientAssembly0bcD0C8Swinject0D0AadEP8assemble9containeryAD9ContainerC_tFTW
_$s22LarkRustClientAssembly0bcD0C8assemble9containery8Swinject9ContainerC_tF
_$s22LarkRustClientAssembly0bcD0C14publicAssebmle33_59D7C262B0C244512AFD4840AB50FF40LL9containery8Swinject9ContainerC_tF
_$s22LarkRustClientAssembly0bcD0C16internalAssemble33_59D7C262B0C244512AFD4840AB50FF40LL9containery8Swinject9ContainerC_tF
_$s22LarkRustClientAssembly0abC0CMa
_$s22LarkRustClientAssembly0abC0CMr
_$s8Swinject9ContainerC8register_4name7factoryAA12ServiceEntryCyxGxm_SSSgxAA8Resolver_p_q_tctr0_lFfA0_
_$s8Swinject9ContainerC8register_4name7factoryAA12ServiceEntryCyxGxm_SSSgxAA8Resolver_p_q_tctr0_lF
_$s8Swinject8Resolver_pMa
_$s14LarkRustClient0bC13ConfigurationVMa
_$s14LarkRustClient0bC13ConfigurationVMr
_$s6RustPB23Basic_V1_InitSDKRequestV5EnvV2VMa
_$s6RustPB23Basic_V1_InitSDKRequestV5EnvV2VMr
_$s6RustPB23Basic_V1_InitSDKRequestV23DataSynchronismStrategyOMa
_$s6RustPB23Basic_V1_InitSDKRequestV14FrontierConfigVSgMa
_$s6RustPB23Basic_V1_InitSDKRequestV14FrontierConfigVMa
_$s6RustPB23Basic_V1_InitSDKRequestV14FrontierConfigVMr
_$s6RustPB23Basic_V1_InitSDKRequestV13PreloadConfigVSgMa
_$s6RustPB23Basic_V1_InitSDKRequestV13PreloadConfigVMa
_$s6RustPB23Basic_V1_InitSDKRequestV13PreloadConfigVMr
_$s6RustPB21Basic_V1_KaInitConfigVMa
_$s6RustPB21Basic_V1_KaInitConfigVMr
_$s22LarkRustClientAssembly0bcD0C24assembleLauncherDelegate33_59D7C262B0C244512AFD4840AB50FF40LL9containery8Swinject9ContainerC_tF
_$s22LarkRustClientAssembly0bcD0C17assembleDebugItem33_59D7C262B0C244512AFD4840AB50FF40LL9containery8Swinject9ContainerC_tF
_$s22LarkRustClientAssembly0bcD0C18assembleLaunchTask33_59D7C262B0C244512AFD4840AB50FF40LLyyF
_$s22LarkRustClientAssembly17PreloadLaunchTaskCMa
_$s22LarkRustClientAssembly17PreloadLaunchTaskCMr
_$s13LarkContainer12InjectedLazyVy0A18RustClientAssembly0aE7Service_pGMa
_$s22LarkRustClientAssembly0aB7Service_pMa
_$s13LarkContainer12InjectedLazyVy0A10RustClient0E7Service_pGMa
_$s13LarkContainer12InjectedLazyVy0A18RustClientAssembly0eF10Dependency_pGMa
_$s22LarkRustClientAssembly0bC10Dependency_pMa
_$s22LarkRustClientAssembly17PreloadLaunchTaskCAC11BootManager12IdentifiableAAWl
_$s22LarkRustClientAssembly17PreloadLaunchTaskC11BootManager12IdentifiableAadEP8identifySSvgZTW
_$s22LarkRustClientAssembly17PreloadLaunchTaskC8identifySSvgZ
_$s22LarkRustClientAssembly17PreloadLaunchTaskC8identifySSvau
_globalinit_33_DF3ADA58E1D452FCEE0532431418F603_func3
_$s22LarkRustClientAssembly05SetupB4TaskCMa
_$s22LarkRustClientAssembly05SetupB4TaskCMr
_$s22LarkRustClientAssembly05SetupB4TaskCAC11BootManager12IdentifiableAAWl
_$s22LarkRustClientAssembly05SetupB4TaskC11BootManager12IdentifiableAadEP8identifySSvgZTW
_$s22LarkRustClientAssembly05SetupB4TaskC8identifySSvgZ
_$s22LarkRustClientAssembly05SetupB4TaskC8identifySSvau
_globalinit_33_593C79815752EDC0A10FA89C8D770F67_func6
_$s17LarkFeatureGating0bC8AssemblyC8Swinject0D0AadEP8assemble9containeryAD9ContainerC_tFTW
_$s17LarkFeatureGating0bC8AssemblyC8assemble9containery8Swinject9ContainerC_tF
_$s17LarkFeatureGating0bC8AssemblyC17assembleLockFGKey33_B09181307FA26634634E085EB608BF35LLyyF
_$s17LarkFeatureGatingAAC04lockB5Value3foryAA0bC3KeyO_tF
_$s17LarkFeatureGating0bC3KeyO8rawValueSSvg
_$s17LarkFeatureGatingAAC04lockB5Value3forySS_tF
_$s17LarkFeatureGatingAAC15featureSetCache33_1DF92BE20E05D5DDF2A98C78FEAC1B19LLSDySSSbGvg
_$s17LarkFeatureGatingAAC04lockB8SetCache33_1DF92BE20E05D5DDF2A98C78FEAC1B19LLSDySSSbGvg
_$s17LarkFeatureGatingAAC04lockB8SetCache33_1DF92BE20E05D5DDF2A98C78FEAC1B19LLSDySSSbGvs
_$s23ThreadSafeDataStructure0B10DictionaryC012replaceInnerC02byySDyxq_G_tF
_$s23ThreadSafeDataStructure0B10DictionaryC012replaceInnerC02byySDyxq_G_tFyyXEfU_TA
_$s23ThreadSafeDataStructure0B10DictionaryC012replaceInnerC02byySDyxq_G_tFyyXEfU_
_$s23ThreadSafeDataStructure0B10DictionaryC4dataSDyxq_Gvs
_$s17LarkFeatureGating0bC8AssemblyC19assemblePushHandler33_B09181307FA26634634E085EB608BF35LL9containery8Swinject9ContainerC_tF
_$s17LarkFeatureGating0bC8AssemblyC17assembleDebugItem33_B09181307FA26634634E085EB608BF35LL9containery8Swinject9ContainerC_tF
_$s17LarkFeatureGating10LoadFGTaskCMa
_$s17LarkFeatureGating10LoadFGTaskCMr
_$s17LarkFeatureGating10LoadFGTaskCAC11BootManager12IdentifiableAAWl
_$s17LarkFeatureGating10LoadFGTaskC11BootManager12IdentifiableAadEP8identifySSvgZTW
_$s17LarkFeatureGating10LoadFGTaskC8identifySSvgZ
_$s17LarkFeatureGating10LoadFGTaskC8identifySSvau
_globalinit_33_F6A791228E1672F0AE41FF3127BCAFFC_func3
_$s13LarkAppConfig0C8AssemblyC8Swinject0D0AadEP8assemble9containeryAD9ContainerC_tFTW
_$s13LarkAppConfig0C8AssemblyC8assemble9containery8Swinject9ContainerC_tF
_$s13LarkAppConfig0C8AssemblyC14publicAssemble33_D13A0ABC78B1818B6C271240F23CDB24LL9containery8Swinject9ContainerC_tF
_$s13LarkAppConfig0C8AssemblyC19assemblePushHandler33_D13A0ABC78B1818B6C271240F23CDB24LL9containery8Swinject9ContainerC_tF
_$s13LarkAppConfig0C8AssemblyC19assembleEnvDelegate33_D13A0ABC78B1818B6C271240F23CDB24LLyyF
_$s9LarkDebug0B8AssemblyC8Swinject0C0AadEP8assemble9containeryAD9ContainerC_tFTW
_$s9LarkDebug0B8AssemblyC8assemble9containery8Swinject9ContainerC_tF
_$s9LarkDebug0B4BodyVAC11EENavigator0C0AAWl
_$s9LarkDebug0B4BodyV11EENavigator0C0AaD14URLConvertiblePWb
_$s9LarkDebug0B4BodyVAC11EENavigator14URLConvertibleAAWl
_$s9LarkDebug0B4BodyVACSeAAWl
_$s9LarkDebug0B4BodyVACSEAAWl
_$s9LarkDebug0B4BodyV11EENavigator0C0AadEP13patternConfigAD07PatternF0VvgZTW
_$s9LarkDebug0B4BodyVAC11EENavigator05PlainC0AAWl
_$s9LarkDebug0B4BodyV11EENavigator05PlainC0AaD0C0PWb
_$s9LarkDebug0B4BodyV11EENavigator05PlainC0AadEP7patternSSvgZTW
_$s9LarkDebug0B4BodyV7patternSSvgZ
_$s9LarkDebug0B4BodyV7patternSSvau
_globalinit_33_92A9E1B34DBAA4E81AC6D25373DFE4C4_func1
_$s9LarkDebug05SetupB4TaskCMa
_$s9LarkDebug05SetupB4TaskCMr
_$s9LarkDebug05SetupB4TaskCAC11BootManager12IdentifiableAAWl
_$s9LarkDebug05SetupB4TaskC11BootManager12IdentifiableAadEP8identifySSvgZTW
_$s9LarkDebug05SetupB4TaskC8identifySSvgZ
_$s9LarkDebug05SetupB4TaskC8identifySSvau
_globalinit_33_A6E85914527F0D6998658F91639AE50C_func4
_$s15LarkBaseService0abC8AssemblyC8Swinject0D0AadEP8assemble9containeryAD9ContainerC_tFTW
_$s15LarkBaseService0abC8AssemblyC8assemble9containery8Swinject9ContainerC_tF
_$s15LarkBaseService0abC8AssemblyC08assembleC09containery8Swinject9ContainerC_tF
_$s11LarkTracker12TrackServiceCMa
_$s15LarkBaseService07UGTrackC0CMa
_$s13LarkContainer18SubscriptionCenterCMa
_$s15LarkBaseService0abC8AssemblyC22assembleRequestHandler9containery8Swinject9ContainerC_tF
_$s11EENavigator9NavigatorC06updateB11TimeTrackeryyySS_SSAA0B4TypeOs5Int64VtcFTj
_$s11EENavigator9NavigatorC06updateB11TimeTrackeryyySS_SSAA0B4TypeOs5Int64VtcF
_$s11EENavigator9NavigatorC16navigatorTracker33_57FE26580095BE1BD9692BECA9F66EA9LLAA0bD0AELLVvM
_$s11EENavigator9NavigatorC16navigatorTracker33_57FE26580095BE1BD9692BECA9F66EA9LLAA0bD0AELLVvM.resume.0
_$s11EENavigator6RouterC18registerMiddleware7pattern9postRoute_ySS_SbyAA7RequestC_AA8ResponseCtctFfA_
_$s11EENavigator6RouterC18registerMiddleware7pattern9postRoute_ySS_SbyAA7RequestC_AA8ResponseCtctFTj
_$s11EENavigator6RouterC15postMiddlewares33_F6468634524AEC61A3A770436DA097E4LLSayAA10MiddlewareVGvM
_$s11EENavigator6RouterC15postMiddlewares33_F6468634524AEC61A3A770436DA097E4LLSayAA10MiddlewareVGvM.resume.0
_$s15LarkBaseService0abC8AssemblyC17assembleDebugItem33_F797F0483BA7C8523CFA5B4F6546300CLL9containery8Swinject9ContainerC_tF
_$s15LarkBaseService0abC8AssemblyC24assembleLauncherDelegate9containery8Swinject9ContainerC_tF
_$s15LarkBaseService0abC8AssemblyC27assembleApplicationDelegate33_F797F0483BA7C8523CFA5B4F6546300CLLyyF
_$s15LarkBaseService26MonitorApplicationDelegateCMa
_$s15LarkBaseService26MonitorApplicationDelegateCMr
_$s13LarkContainer8ProviderVy0A7Tracker12TrackServiceCGMa
_$s15LarkBaseService26MonitorApplicationDelegateCAC12AppContainer0eF0AAWl
_$s15LarkBaseService26MonitorApplicationDelegateC12AppContainer0eF0AaD8ObserverPWb
_$s15LarkBaseService26MonitorApplicationDelegateCAC12AppContainer8ObserverAAWl
_$s15LarkBaseService26MonitorApplicationDelegateC12AppContainer8ObserverAadEP6configAD6ConfigVvgZTW
_$s15LarkBaseService26MonitorApplicationDelegateC6config12AppContainer6ConfigVvgZ
_$s15LarkBaseService26MonitorApplicationDelegateC6config12AppContainer6ConfigVvau
_globalinit_33_F4A7DD850633E4AA0C63405160AF7C4F_func33
_$s15LarkBaseService30URLProtocolApplicationDelegateCMa
_$s15LarkBaseService30URLProtocolApplicationDelegateCAC12AppContainer0eF0AAWl
_$s15LarkBaseService30URLProtocolApplicationDelegateC12AppContainer0eF0AaD8ObserverPWb
_$s15LarkBaseService30URLProtocolApplicationDelegateCAC12AppContainer8ObserverAAWl
_$s15LarkBaseService30URLProtocolApplicationDelegateC12AppContainer8ObserverAadEP6configAD6ConfigVvgZTW
_$s15LarkBaseService30URLProtocolApplicationDelegateC6config12AppContainer6ConfigVvgZ
_$s15LarkBaseService30URLProtocolApplicationDelegateC6config12AppContainer6ConfigVvau
_globalinit_33_F8C495B5AA6E0129229749BCFDFD0708_func105
_$s15LarkBaseService23BGTaskSchedulerDelegateCMa
_$s15LarkBaseService23BGTaskSchedulerDelegateCAC12AppContainer011ApplicationF0AAWl
_$s15LarkBaseService23BGTaskSchedulerDelegateC12AppContainer011ApplicationF0AaD8ObserverPWb
_$s15LarkBaseService23BGTaskSchedulerDelegateCAC12AppContainer8ObserverAAWl
_$s15LarkBaseService23BGTaskSchedulerDelegateC12AppContainer8ObserverAadEP6configAD6ConfigVvgZTW
_$s15LarkBaseService23BGTaskSchedulerDelegateC6config12AppContainer6ConfigVvgZ
_$s15LarkBaseService23BGTaskSchedulerDelegateC6config12AppContainer6ConfigVvau
_globalinit_025_B07ACD4E7DA19D8E166E3415C6DF147F_func14
_$s15LarkBaseService26OpenURLApplicationDelegateCMa
_$s15LarkBaseService26OpenURLApplicationDelegateCAC12AppContainer011ApplicationF0AAWl
_$s15LarkBaseService26OpenURLApplicationDelegateC12AppContainer011ApplicationF0AaD8ObserverPWb
_$s15LarkBaseService26OpenURLApplicationDelegateCAC12AppContainer8ObserverAAWl
_$s15LarkBaseService26OpenURLApplicationDelegateC12AppContainer8ObserverAadEP6configAD6ConfigVvgZTW
_$s15LarkBaseService26OpenURLApplicationDelegateC6config12AppContainer6ConfigVvgZ
_$s15LarkBaseService26OpenURLApplicationDelegateC6config12AppContainer6ConfigVvau
_globalinit_33_59BEE5C05C3C7401B5AAF043CE905FD4_func49
_$s15LarkBaseService30VideoEngineApplicationDelegateCMa
_$s15LarkBaseService30VideoEngineApplicationDelegateCAC12AppContainer0fG0AAWl
_$s15LarkBaseService30VideoEngineApplicationDelegateC12AppContainer0fG0AaD8ObserverPWb
_$s15LarkBaseService30VideoEngineApplicationDelegateCAC12AppContainer8ObserverAAWl
_$s15LarkBaseService30VideoEngineApplicationDelegateC12AppContainer8ObserverAadEP6configAD6ConfigVvgZTW
_$s15LarkBaseService30VideoEngineApplicationDelegateC6config12AppContainer6ConfigVvgZ
_$s15LarkBaseService30VideoEngineApplicationDelegateC6config12AppContainer6ConfigVvau
_globalinit_33_B71696E74377984A5A7217978292414F_func107
_$s15LarkBaseService28HeartBeatApplicationDelegateCMa
_$s15LarkBaseService28HeartBeatApplicationDelegateCAC12AppContainer0fG0AAWl
_$s15LarkBaseService28HeartBeatApplicationDelegateC12AppContainer0fG0AaD8ObserverPWb
_$s15LarkBaseService28HeartBeatApplicationDelegateCAC12AppContainer8ObserverAAWl
_$s15LarkBaseService28HeartBeatApplicationDelegateC12AppContainer8ObserverAadEP6configAD6ConfigVvgZTW
_$s15LarkBaseService28HeartBeatApplicationDelegateC6config12AppContainer6ConfigVvgZ
_$s15LarkBaseService28HeartBeatApplicationDelegateC6config12AppContainer6ConfigVvau
_globalinit_33_36FC152530FEFE16DECE873D54A7CE14_func24
_$s15LarkBaseService31NotificationApplicationDelegateCMa
_$s15LarkBaseService31NotificationApplicationDelegateCAC12AppContainer0eF0AAWl
_$s15LarkBaseService31NotificationApplicationDelegateC12AppContainer0eF0AaD8ObserverPWb
_$s15LarkBaseService31NotificationApplicationDelegateCAC12AppContainer8ObserverAAWl
_$s15LarkBaseService31NotificationApplicationDelegateC12AppContainer8ObserverAadEP6configAD6ConfigVvgZTW
_$s15LarkBaseService31NotificationApplicationDelegateC6config12AppContainer6ConfigVvgZ
_$s15LarkBaseService31NotificationApplicationDelegateC6config12AppContainer6ConfigVvau
_globalinit_33_6E96888B4597F17A7174342CEF752D4B_func37
_$s15LarkBaseService39ContinueUserActivityApplicationDelegateCMa
_$s15LarkBaseService39ContinueUserActivityApplicationDelegateCAC12AppContainer0gH0AAWl
_$s15LarkBaseService39ContinueUserActivityApplicationDelegateC12AppContainer0gH0AaD8ObserverPWb
_$s15LarkBaseService39ContinueUserActivityApplicationDelegateCAC12AppContainer8ObserverAAWl
_$s15LarkBaseService39ContinueUserActivityApplicationDelegateC12AppContainer8ObserverAadEP6configAD6ConfigVvgZTW
_$s15LarkBaseService39ContinueUserActivityApplicationDelegateC6config12AppContainer6ConfigVvgZ
_$s15LarkBaseService39ContinueUserActivityApplicationDelegateC6config12AppContainer6ConfigVvau
_globalinit_33_43FD48DE515BA6BD7C8AF4321C97E29B_func22
_$s15LarkBaseService0A24BadgeApplicationDelegateCMa
_$s15LarkBaseService0A24BadgeApplicationDelegateCAC12AppContainer0eF0AAWl
_$s15LarkBaseService0A24BadgeApplicationDelegateC12AppContainer0eF0AaD8ObserverPWb
_$s15LarkBaseService0A24BadgeApplicationDelegateCAC12AppContainer8ObserverAAWl
_$s15LarkBaseService0A24BadgeApplicationDelegateC12AppContainer8ObserverAadEP6configAD6ConfigVvgZTW
_$s15LarkBaseService0A24BadgeApplicationDelegateC6config12AppContainer6ConfigVvgZ
_$s15LarkBaseService0A24BadgeApplicationDelegateC6config12AppContainer6ConfigVvau
_globalinit_33_1ED06700B6E512A3077A753FA6457885_func26
_$s15LarkBaseService34OfflineResourceApplicationDelegateCMa
_$s15LarkBaseService34OfflineResourceApplicationDelegateCMr
_$s13LarkContainer8ProviderVy0A9AppConfig0D13Configuration_pGMa
_$s13LarkAppConfig0B13Configuration_pMa
_$s15LarkBaseService34OfflineResourceApplicationDelegateCAC12AppContainer0fG0AAWl
_$s15LarkBaseService34OfflineResourceApplicationDelegateC12AppContainer0fG0AaD8ObserverPWb
_$s15LarkBaseService34OfflineResourceApplicationDelegateCAC12AppContainer8ObserverAAWl
_$s15LarkBaseService34OfflineResourceApplicationDelegateC12AppContainer8ObserverAadEP6configAD6ConfigVvgZTW
_$s15LarkBaseService34OfflineResourceApplicationDelegateC6config12AppContainer6ConfigVvgZ
_$s15LarkBaseService34OfflineResourceApplicationDelegateC6config12AppContainer6ConfigVvau
_globalinit_33_42270BBEEB628D5BD7EEDE9BFC999BE1_func43
_$s15LarkBaseService36ObservePasteboardApplicationDelegateCMa
_$s15LarkBaseService36ObservePasteboardApplicationDelegateCMr
_$s15LarkBaseService36ObservePasteboardApplicationDelegateCAC12AppContainer0fG0AAWl
_$s15LarkBaseService36ObservePasteboardApplicationDelegateC12AppContainer0fG0AaD8ObserverPWb
_$s15LarkBaseService36ObservePasteboardApplicationDelegateCAC12AppContainer8ObserverAAWl
_$s15LarkBaseService36ObservePasteboardApplicationDelegateC12AppContainer8ObserverAadEP6configAD6ConfigVvgZTW
_$s15LarkBaseService36ObservePasteboardApplicationDelegateC6config12AppContainer6ConfigVvgZ
_$s15LarkBaseService36ObservePasteboardApplicationDelegateC6config12AppContainer6ConfigVvau
_globalinit_33_B63CE60BBABB5DA045C06C66C16FBDF0_func39
_$s15LarkBaseService0abC8AssemblyC18assembleLaunchTaskyyF
_$s15LarkBaseService16SetupMonitorTaskCMa
_$s15LarkBaseService16SetupMonitorTaskCMr
_$s15LarkBaseService16SetupMonitorTaskCAC11BootManager12IdentifiableAAWl
_$s15LarkBaseService16SetupMonitorTaskC11BootManager12IdentifiableAadEP8identifySSvgZTW
_$s15LarkBaseService16SetupMonitorTaskC8identifySSvgZ
_$s15LarkBaseService16SetupMonitorTaskC8identifySSvau
_globalinit_33_A629793465D0A32AD68A5A0D6D691301_func84
_$s15LarkBaseService17UpdateMonitorTaskCMa
_$s15LarkBaseService17UpdateMonitorTaskCMr
_$s15LarkBaseService17UpdateMonitorTaskCAC11BootManager12IdentifiableAAWl
_$s15LarkBaseService17UpdateMonitorTaskC11BootManager12IdentifiableAadEP8identifySSvgZTW
_$s15LarkBaseService17UpdateMonitorTaskC8identifySSvgZ
_$s15LarkBaseService17UpdateMonitorTaskC8identifySSvau
_globalinit_33_A629793465D0A32AD68A5A0D6D691301_func85
_$s15LarkBaseService13SetupAlogTaskCMa
_$s15LarkBaseService13SetupAlogTaskCMr
_$s15LarkBaseService13SetupAlogTaskCAC11BootManager12IdentifiableAAWl
_$s15LarkBaseService13SetupAlogTaskC11BootManager12IdentifiableAadEP8identifySSvgZTW
_$s15LarkBaseService13SetupAlogTaskC8identifySSvgZ
_$s15LarkBaseService13SetupAlogTaskC8identifySSvau
_globalinit_33_A629793465D0A32AD68A5A0D6D691301_func87
_$s15LarkBaseService16SetupSlardarTaskCMa
_$s15LarkBaseService16SetupSlardarTaskCMr
_$s15LarkBaseService16SetupSlardarTaskCAC11BootManager12IdentifiableAAWl
_$s15LarkBaseService16SetupSlardarTaskC11BootManager12IdentifiableAadEP8identifySSvgZTW
_$s15LarkBaseService16SetupSlardarTaskC8identifySSvgZ
_$s15LarkBaseService16SetupSlardarTaskC8identifySSvau
_globalinit_33_A629793465D0A32AD68A5A0D6D691301_func86
_$s15LarkBaseService15SetupLoggerTaskCMa
_$s15LarkBaseService15SetupLoggerTaskCMr
_$s15LarkBaseService15SetupLoggerTaskCAC11BootManager12IdentifiableAAWl
_$s15LarkBaseService15SetupLoggerTaskC11BootManager12IdentifiableAadEP8identifySSvgZTW
_$s15LarkBaseService15SetupLoggerTaskC8identifySSvgZ
_$s15LarkBaseService15SetupLoggerTaskC8identifySSvau
_globalinit_33_D18DC1849D6EC4CC40C89A6B8D3224C0_func82
_$s15LarkBaseService15SetupICloudTaskCMa
_$s15LarkBaseService15SetupICloudTaskCMr
_$s15LarkBaseService15SetupICloudTaskCAC11BootManager12IdentifiableAAWl
_$s15LarkBaseService15SetupICloudTaskC11BootManager12IdentifiableAadEP8identifySSvgZTW
_$s15LarkBaseService15SetupICloudTaskC8identifySSvgZ
_$s15LarkBaseService15SetupICloudTaskC8identifySSvau
_globalinit_33_93AF485D9DD5174FED2A71A0B974B1CA_func73
_$s15LarkBaseService15TrackLaunchTaskCMa
_$s15LarkBaseService15TrackLaunchTaskCMr
_$s15LarkBaseService15TrackLaunchTaskCAC11BootManager12IdentifiableAAWl
_$s15LarkBaseService15TrackLaunchTaskC11BootManager12IdentifiableAadEP8identifySSvgZTW
_$s15LarkBaseService15TrackLaunchTaskC8identifySSvgZ
_$s15LarkBaseService15TrackLaunchTaskC8identifySSvau
_globalinit_33_F895B88BE73EC171E6A5D2C9259E8ABD_func94
_$s15LarkBaseService20SetupURLProtocolTaskCMa
_$s15LarkBaseService20SetupURLProtocolTaskCMr
_$s15LarkBaseService20SetupURLProtocolTaskCAC11BootManager12IdentifiableAAWl
_$s15LarkBaseService20SetupURLProtocolTaskC11BootManager12IdentifiableAadEP8identifySSvgZTW
_$s15LarkBaseService20SetupURLProtocolTaskC8identifySSvgZ
_$s15LarkBaseService20SetupURLProtocolTaskC8identifySSvau
_globalinit_33_2D0ADFE84050F9A45BD85B15C86D2FDE_func92
_$s15LarkBaseService15OrientationTaskCMa
_$s15LarkBaseService15OrientationTaskCMr
_$s15LarkBaseService15OrientationTaskCAC11BootManager12IdentifiableAAWl
_$s15LarkBaseService15OrientationTaskC11BootManager12IdentifiableAadEP8identifySSvgZTW
_$s15LarkBaseService15OrientationTaskC8identifySSvgZ
_$s15LarkBaseService15OrientationTaskC8identifySSvau
_globalinit_33_383375AE9CDD8EB4D3A33F9B8C5A4BA2_func50
_$s15LarkBaseService16SetupDiskMonitorCMa
_$s15LarkBaseService16SetupDiskMonitorCMr
_$s15LarkBaseService16SetupDiskMonitorCAC11BootManager12IdentifiableAAWl
_$s15LarkBaseService16SetupDiskMonitorC11BootManager12IdentifiableAadEP8identifySSvgZTW
_$s15LarkBaseService16SetupDiskMonitorC8identifySSvgZ
_$s15LarkBaseService16SetupDiskMonitorC8identifySSvau
_globalinit_33_EFF18FB94533484F3082BCB33B6E4F83_func67
_$s15LarkBaseService11SetupUATaskCMa
_$s15LarkBaseService11SetupUATaskCMr
_$s15LarkBaseService11SetupUATaskCAC11BootManager12IdentifiableAAWl
_$s15LarkBaseService11SetupUATaskC11BootManager12IdentifiableAadEP8identifySSvgZTW
_$s15LarkBaseService11SetupUATaskC8identifySSvgZ
_$s15LarkBaseService11SetupUATaskC8identifySSvau
_globalinit_33_10BB9216427E5A88D8F502C99E6873A6_func91
_$s15LarkBaseService19SetupDispatcherTaskCMa
_$s15LarkBaseService19SetupDispatcherTaskCMr
_$s15LarkBaseService19SetupDispatcherTaskCAC11BootManager12IdentifiableAAWl
_$s15LarkBaseService19SetupDispatcherTaskC11BootManager12IdentifiableAadEP8identifySSvgZTW
_$s15LarkBaseService19SetupDispatcherTaskC8identifySSvgZ
_$s15LarkBaseService19SetupDispatcherTaskC8identifySSvau
_globalinit_33_D7D89AFB27170438749C19933C08C3E2_func68
_$s15LarkBaseService17TroubleKillerTaskCMa
_$s15LarkBaseService17TroubleKillerTaskCMr
_$s15LarkBaseService17TroubleKillerTaskCAC11BootManager12IdentifiableAAWl
_$s15LarkBaseService17TroubleKillerTaskC11BootManager12IdentifiableAadEP8identifySSvgZTW
_$s15LarkBaseService17TroubleKillerTaskC8identifySSvgZ
_$s15LarkBaseService17TroubleKillerTaskC8identifySSvau
_globalinit_33_E511DFFB59A2E8BCFDB8643D408D0297_func98
_$s15LarkBaseService15ABTestSetupTaskCMa
_$s15LarkBaseService15ABTestSetupTaskCMr
_$s15LarkBaseService15ABTestSetupTaskCAC11BootManager12IdentifiableAAWl
_$s15LarkBaseService15ABTestSetupTaskC11BootManager12IdentifiableAadEP8identifySSvgZTW
_$s15LarkBaseService15ABTestSetupTaskC8identifySSvgZ
_$s15LarkBaseService15ABTestSetupTaskC8identifySSvau
_globalinit_33_E3048834FB7FC95BFDF9C065841474E1_func3
_$s15LarkBaseService16UpdateABTestTaskCMa
_$s15LarkBaseService16UpdateABTestTaskCMr
_$s15LarkBaseService16UpdateABTestTaskCAC11BootManager12IdentifiableAAWl
_$s15LarkBaseService16UpdateABTestTaskC11BootManager12IdentifiableAadEP8identifySSvgZTW
_$s15LarkBaseService16UpdateABTestTaskC8identifySSvgZ
_$s15LarkBaseService16UpdateABTestTaskC8identifySSvau
_globalinit_33_E3048834FB7FC95BFDF9C065841474E1_func4
_$s15LarkBaseService19OfflineResourceTaskCMa
_$s15LarkBaseService19OfflineResourceTaskCMr
_$s15LarkBaseService19OfflineResourceTaskCAC11BootManager12IdentifiableAAWl
_$s15LarkBaseService19OfflineResourceTaskC11BootManager12IdentifiableAadEP8identifySSvgZTW
_$s15LarkBaseService19OfflineResourceTaskC8identifySSvgZ
_$s15LarkBaseService19OfflineResourceTaskC8identifySSvau
_globalinit_33_DDF1071F4D2AAD4A959B67AD9AA33878_func47
_$s15LarkBaseService21UpdateOfflineResourceCMa
_$s15LarkBaseService21UpdateOfflineResourceCMr
_$s15LarkBaseService21UpdateOfflineResourceCAC11BootManager12IdentifiableAAWl
_$s15LarkBaseService21UpdateOfflineResourceC11BootManager12IdentifiableAadEP8identifySSvgZTW
_$s15LarkBaseService21UpdateOfflineResourceC8identifySSvgZ
_$s15LarkBaseService21UpdateOfflineResourceC8identifySSvau
_globalinit_33_DDF1071F4D2AAD4A959B67AD9AA33878_func48
_$s15LarkBaseService15SetupCookieTaskCMa
_$s15LarkBaseService15SetupCookieTaskCMr
_$s15LarkBaseService15SetupCookieTaskCAC11BootManager12IdentifiableAAWl
_$s15LarkBaseService15SetupCookieTaskC11BootManager12IdentifiableAadEP8identifySSvgZTW
_$s15LarkBaseService15SetupCookieTaskC8identifySSvgZ
_$s15LarkBaseService15SetupCookieTaskC8identifySSvau
_globalinit_33_A1D004A9CB38E1E94565292AA396EDFE_func66
_$s15LarkBaseService11SetupBGTaskCMa
_$s15LarkBaseService11SetupBGTaskCMr
_$s15LarkBaseService11SetupBGTaskCAC11BootManager12IdentifiableAAWl
_$s15LarkBaseService11SetupBGTaskC11BootManager12IdentifiableAadEP8identifySSvgZTW
_$s15LarkBaseService11SetupBGTaskC8identifySSvgZ
_$s15LarkBaseService11SetupBGTaskC8identifySSvau
_globalinit_33_7F7209E05F169C20A8DEC69E7C1F4CD2_func54
_$s15LarkBaseService12BGTaskSwitchCMa
_$s15LarkBaseService12BGTaskSwitchCMr
_$s15LarkBaseService12BGTaskSwitchCAC11BootManager12IdentifiableAAWl
_$s15LarkBaseService12BGTaskSwitchC11BootManager12IdentifiableAadEP8identifySSvgZTW
_$s15LarkBaseService12BGTaskSwitchC8identifySSvgZ
_$s15LarkBaseService12BGTaskSwitchC8identifySSvau
_globalinit_33_7F7209E05F169C20A8DEC69E7C1F4CD2_func55
_$s15LarkBaseService19ExtensionUpdateTaskCMa
_$s15LarkBaseService19ExtensionUpdateTaskCMr
_$s15LarkBaseService19ExtensionUpdateTaskCAC11BootManager12IdentifiableAAWl
_$s15LarkBaseService19ExtensionUpdateTaskC11BootManager12IdentifiableAadEP8identifySSvgZTW
_$s15LarkBaseService19ExtensionUpdateTaskC8identifySSvgZ
_$s15LarkBaseService19ExtensionUpdateTaskC8identifySSvau
_globalinit_33_211F30FF4E6B863DEAA62B9B496A6D1D_func23
_$s15LarkBaseService21ObservePasteboardTaskCMa
_$s15LarkBaseService21ObservePasteboardTaskCMr
_$s15LarkBaseService21ObservePasteboardTaskCAC11BootManager12IdentifiableAAWl
_$s15LarkBaseService21ObservePasteboardTaskC11BootManager12IdentifiableAadEP8identifySSvgZTW
_$s15LarkBaseService21ObservePasteboardTaskC8identifySSvgZ
_$s15LarkBaseService21ObservePasteboardTaskC8identifySSvau
_globalinit_33_406D9FBCF4476CD415888556F10AE2FC_func42
_$s15LarkBaseService17ResourceSetupTaskCMa
_$s15LarkBaseService17ResourceSetupTaskCMr
_$s15LarkBaseService17ResourceSetupTaskCAC11BootManager12IdentifiableAAWl
_$s15LarkBaseService17ResourceSetupTaskC11BootManager12IdentifiableAadEP8identifySSvgZTW
_$s15LarkBaseService17ResourceSetupTaskC8identifySSvgZ
_$s15LarkBaseService17ResourceSetupTaskC8identifySSvau
_globalinit_33_FCE93C4AEADCAB2AC9476133AE19D806_func51
_$s15LarkBaseService14ThemeSetupTaskCMa
_$s15LarkBaseService14ThemeSetupTaskCMr
_$s15LarkBaseService14ThemeSetupTaskCAC11BootManager12IdentifiableAAWl
_$s15LarkBaseService14ThemeSetupTaskC11BootManager12IdentifiableAadEP8identifySSvgZTW
_$s15LarkBaseService14ThemeSetupTaskC8identifySSvgZ
_$s15LarkBaseService14ThemeSetupTaskC8identifySSvau
_globalinit_33_05A54B3BF423FB053ADB332A8EEF346F_func93
_$s15LarkBaseService16SetupPerfMonitorCMa
_$s15LarkBaseService16SetupPerfMonitorCMr
_$s15LarkBaseService16SetupPerfMonitorCAC11BootManager12IdentifiableAAWl
_$s15LarkBaseService16SetupPerfMonitorC11BootManager12IdentifiableAadEP8identifySSvgZTW
_$s15LarkBaseService16SetupPerfMonitorC8identifySSvgZ
_$s15LarkBaseService16SetupPerfMonitorC8identifySSvau
_globalinit_33_DD7AA5945AE2838DC07B7785C1824DF4_func88
_$s15LarkBaseService15SetupSafetyTaskCMa
_$s15LarkBaseService15SetupSafetyTaskCMr
_$s15LarkBaseService15SetupSafetyTaskCAC11BootManager12IdentifiableAAWl
_$s15LarkBaseService15SetupSafetyTaskC11BootManager12IdentifiableAadEP8identifySSvgZTW
_$s15LarkBaseService15SetupSafetyTaskC8identifySSvgZ
_$s15LarkBaseService15SetupSafetyTaskC8identifySSvau
_globalinit_33_96FFDD7F2D538A166BF43837E95BB0DF_func89
_$s15LarkBaseService14SetupCacheTaskCMa
_$s15LarkBaseService14SetupCacheTaskCMr
_$s15LarkBaseService14SetupCacheTaskCAC11BootManager12IdentifiableAAWl
_$s15LarkBaseService14SetupCacheTaskC11BootManager12IdentifiableAadEP8identifySSvgZTW
_$s15LarkBaseService14SetupCacheTaskC8identifySSvgZ
_$s15LarkBaseService14SetupCacheTaskC8identifySSvau
_globalinit_33_0FA5102E54C5EA8E4D93813C4A0FE94D_func56
_$s15LarkBaseService20SetupCanvasCacheTaskCMa
_$s15LarkBaseService20SetupCanvasCacheTaskCMr
_$s15LarkBaseService20SetupCanvasCacheTaskCAC11BootManager12IdentifiableAAWl
_$s15LarkBaseService20SetupCanvasCacheTaskC11BootManager12IdentifiableAadEP8identifySSvgZTW
_$s15LarkBaseService20SetupCanvasCacheTaskC8identifySSvgZ
_$s15LarkBaseService20SetupCanvasCacheTaskC8identifySSvau
_globalinit_33_55EA4ECA7E9570E8D7CC598DF119D581_func61
_$s15LarkBaseService13SetupFileTaskCMa
_$s15LarkBaseService13SetupFileTaskCMr
_$s15LarkBaseService13SetupFileTaskCAC11BootManager12IdentifiableAAWl
_$s15LarkBaseService13SetupFileTaskC11BootManager12IdentifiableAadEP8identifySSvgZTW
_$s15LarkBaseService13SetupFileTaskC8identifySSvgZ
_$s15LarkBaseService13SetupFileTaskC8identifySSvau
_globalinit_33_8678573A5A43BE823210ECA1D87C5190_func74
_$s15LarkBaseService16SetupEmotionTaskCMa
_$s15LarkBaseService16SetupEmotionTaskCMr
_$s15LarkBaseService16SetupEmotionTaskCAC11BootManager12IdentifiableAAWl
_$s15LarkBaseService16SetupEmotionTaskC11BootManager12IdentifiableAadEP8identifySSvgZTW
_$s15LarkBaseService16SetupEmotionTaskC8identifySSvgZ
_$s15LarkBaseService16SetupEmotionTaskC8identifySSvau
_globalinit_33_78B74F926FEE21383DB3C93D080E7651_func72
_$s15LarkBaseService12SetupMacTaskCMa
_$s15LarkBaseService12SetupMacTaskCMr
_$s15LarkBaseService12SetupMacTaskCAC11BootManager12IdentifiableAAWl
_$s15LarkBaseService12SetupMacTaskC11BootManager12IdentifiableAadEP8identifySSvgZTW
_$s15LarkBaseService12SetupMacTaskC8identifySSvgZ
_$s15LarkBaseService12SetupMacTaskC8identifySSvau
_globalinit_33_61429AA397AA4C94E41332935ABE4E9B_func83
_$s15LarkBaseService19SetupServerPushTaskCMa
_$s15LarkBaseService19SetupServerPushTaskCMr
_$s15LarkBaseService19SetupServerPushTaskCAC11BootManager12IdentifiableAAWl
_$s15LarkBaseService19SetupServerPushTaskC11BootManager12IdentifiableAadEP8identifySSvgZTW
_$s15LarkBaseService19SetupServerPushTaskC8identifySSvgZ
_$s15LarkBaseService19SetupServerPushTaskC8identifySSvau
_globalinit_33_D0626E0725666AF45E872134DDF877D0_func90
_$s15LarkBaseService14SceneSetupTaskCMa
_$s15LarkBaseService14SceneSetupTaskCMr
_$s15LarkBaseService14SceneSetupTaskCAC11BootManager12IdentifiableAAWl
_$s15LarkBaseService14SceneSetupTaskC11BootManager12IdentifiableAadEP8identifySSvgZTW
_$s15LarkBaseService14SceneSetupTaskC8identifySSvgZ
_$s15LarkBaseService14SceneSetupTaskC8identifySSvau
_globalinit_33_D0CFE3967E8C51DEF70A027124EC8065_func53
_$s15LarkBaseService05SetupA9BadgeTaskCMa
_$s15LarkBaseService05SetupA9BadgeTaskCMr
_$s15LarkBaseService05SetupA9BadgeTaskCAC11BootManager12IdentifiableAAWl
_$s15LarkBaseService05SetupA9BadgeTaskC11BootManager12IdentifiableAadEP8identifySSvgZTW
_$s15LarkBaseService05SetupA9BadgeTaskC8identifySSvgZ
_$s15LarkBaseService05SetupA9BadgeTaskC8identifySSvau
_globalinit_33_66762282CE49B93A55D0C272E70EC419_func75
_$s15LarkBaseService0abC8AssemblyC22assembleCacheCleanTask33_F797F0483BA7C8523CFA5B4F6546300CLLyyF
_$s9LarkCache17CleanTaskRegistryO8register05cleanD0yAA0cD0_pyXA_tFZ
_$s9LarkCache17CleanTaskRegistryO8allTasksSayAC0D7WrapperCGvau
_globalinit_33_00F869882D780354A8223010F1C084A0_func17
_$s9LarkCache17CleanTaskRegistryO0D7WrapperCMa
_$s9LarkCache17CleanTaskRegistryO0D7WrapperC4taskAeA0cD0_pyc_tcfC
_$s9LarkCache17CleanTaskRegistryO0D7WrapperC4taskAeA0cD0_pyc_tcfc
_$s16LarkPrivacyAlert0bC8AssemblyC8Swinject0D0AadEP8assemble9containeryAD9ContainerC_tFTW
_$s16LarkPrivacyAlert0bC8AssemblyC8assemble9containery8Swinject9ContainerC_tF
_$s16LarkPrivacyAlert0bC8AssemblyC18assembleLaunchTask33_CF03B9601BEC5E35D6B1C5A082C761ADLLyyF
_$s16LarkPrivacyAlert0B9CheckTaskCMa
_$s16LarkPrivacyAlert0B9CheckTaskCMr
_$s16LarkPrivacyAlert0B9CheckTaskCAC11BootManager12IdentifiableAAWl
_$s16LarkPrivacyAlert0B9CheckTaskC11BootManager12IdentifiableAadEP8identifySSvgZTW
_$s16LarkPrivacyAlert0B9CheckTaskC8identifySSvgZ
_$s16LarkPrivacyAlert0B9CheckTaskC8identifySSvau
_globalinit_33_50110DDAAF5D228C20B09D46A62D7F17_func9
_$s16LarkPrivacyAlert0B7BizTaskCMa
_$s16LarkPrivacyAlert0B7BizTaskCMr
_$s16LarkPrivacyAlert0B7BizTaskCAC11BootManager12IdentifiableAAWl
_$s16LarkPrivacyAlert0B7BizTaskC11BootManager12IdentifiableAadEP8identifySSvgZTW
_$s16LarkPrivacyAlert0B7BizTaskC8identifySSvgZ
_$s16LarkPrivacyAlert0B7BizTaskC8identifySSvau
_globalinit_33_50110DDAAF5D228C20B09D46A62D7F17_func10
_$s15LarkLaunchGuide0bC8AssemblyC8Swinject0D0AadEP8assemble9containeryAD9ContainerC_tFTW
_$s15LarkLaunchGuide0bC8AssemblyC8assemble9containery8Swinject9ContainerC_tF
_$s15LarkLaunchGuide0bC4TaskCMa
_$s15LarkLaunchGuide0bC4TaskCMr
_$s13LarkContainer8ProviderVy13LKLaunchGuide06LaunchE7Service_pGMa
_$s13LKLaunchGuide06LaunchB7Service_pMa
_$s13LarkContainer8ProviderVy0A11LaunchGuide0adE16ConfigDependency_AD0de4TaskG0pGMa
_$s15LarkLaunchGuide0abC16ConfigDependency_AA0bc4TaskE0pMa
_$s15LarkLaunchGuide0bC4TaskCAC11BootManager12IdentifiableAAWl
_$s15LarkLaunchGuide0bC4TaskC11BootManager12IdentifiableAadEP8identifySSvgZTW
_$s15LarkLaunchGuide0bC4TaskC8identifySSvgZ
_$s15LarkLaunchGuide0bC4TaskC8identifySSvau
_globalinit_33_BE4EC5E3F914E57FA941279FBEAEE16D_func12
_$s21LarkPushTokenUploader0abcD8AssemblyC8Swinject0E0AadEP8assemble9containeryAD9ContainerC_tFTW
_$s21LarkPushTokenUploader0abcD8AssemblyC8assemble9containery8Swinject9ContainerC_tF
_$s21LarkPushTokenUploader37RemoteNotificationApplicationDelegateCMa
_$s21LarkPushTokenUploader37RemoteNotificationApplicationDelegateCMr
_$s13LarkContainer8ProviderVy0A17PushTokenUploader0adeF7Service_pGMa
_$s21LarkPushTokenUploader0abcD7Service_pMa
_$s21LarkPushTokenUploader37RemoteNotificationApplicationDelegateCAC12AppContainer0gH0AAWl
_$s21LarkPushTokenUploader37RemoteNotificationApplicationDelegateC12AppContainer0gH0AaD8ObserverPWb
_$s21LarkPushTokenUploader37RemoteNotificationApplicationDelegateCAC12AppContainer8ObserverAAWl
_$s21LarkPushTokenUploader37RemoteNotificationApplicationDelegateC12AppContainer8ObserverAadEP6configAD6ConfigVvgZTW
_$s21LarkPushTokenUploader37RemoteNotificationApplicationDelegateC6config12AppContainer6ConfigVvgZ
_$s21LarkPushTokenUploader37RemoteNotificationApplicationDelegateC6config12AppContainer6ConfigVvau
_globalinit_33_49D738E93408BD24D81E77106BED4CBC_func6
_$s21LarkPushTokenUploader22RegistNotificationTaskCMa
_$s21LarkPushTokenUploader22RegistNotificationTaskCMr
_$s21LarkPushTokenUploader22RegistNotificationTaskCAC11BootManager12IdentifiableAAWl
_$s21LarkPushTokenUploader22RegistNotificationTaskC11BootManager12IdentifiableAadEP8identifySSvgZTW
_$s21LarkPushTokenUploader22RegistNotificationTaskC8identifySSvgZ
_$s21LarkPushTokenUploader22RegistNotificationTaskC8identifySSvau
_globalinit_33_A3249CCE2219E1055E5E5098D64B64B0_func2
_$s21LarkPushTokenUploader06UploadbC4TaskCMa
_$s21LarkPushTokenUploader06UploadbC4TaskCMr
_$s21LarkPushTokenUploader06UploadbC4TaskCAC11BootManager12IdentifiableAAWl
_$s21LarkPushTokenUploader06UploadbC4TaskC11BootManager12IdentifiableAadEP8identifySSvgZTW
_$s21LarkPushTokenUploader06UploadbC4TaskC8identifySSvgZ
_$s21LarkPushTokenUploader06UploadbC4TaskC8identifySSvau
_globalinit_33_ABBCEBFCE4C49238CD6A1F984B20B217_func8
_$s8LarkTour0B8AssemblyC8Swinject0C0AadEP8assemble9containeryAD9ContainerC_tFTW
_$s8LarkTour0B8AssemblyC8assemble9containery8Swinject9ContainerC_tF
_$s8LarkTour0B8AssemblyC21asemblePublicServices33_C2B64EEC5662EFC8DE3B51AF6A9EB4BALL9containery8Swinject9ContainerC_tF
_$s8LarkTour0B8AssemblyC24assembleInternalServices33_C2B64EEC5662EFC8DE3B51AF6A9EB4BALL9containery8Swinject9ContainerC_tF
_$s8LarkTour18AdvertisingStorageCMa
_$s8LarkTour18AdvertisingManagerCMa
_$s8LarkTour18AdvertisingManagerCMr
_$s13LarkContainer8ProviderVy0A13TourInterface0D10Dependency_pGMa
_$s17LarkTourInterface0B10Dependency_pMa
_$s13LarkContainer12InjectedLazyVy0A4Tour18AdvertisingStorageCGMa
_$s13LarkContainer8ProviderVy0A4Tour0D3API_pGMa
_$s8LarkTour0B3API_pMa
_$s13LarkContainer12InjectedLazyVy0A4Tour22AdvertisingRequestToolCGMa
_$s8LarkTour22AdvertisingRequestToolCMa
_$s8LarkTour22AdvertisingRequestToolCMr
_$s8LarkTour0B16ChatGuideManagerCMa
_$s8LarkTour0B16ChatGuideManagerCMr
_$s13LarkContainer8ProviderVy0A4Tour0d6WindowB0_pGMa
_$s8LarkTour0B15WindowContainer_pMa
_$s8LarkTour0B8AssemblyC24assembleLauncherDelegate33_C2B64EEC5662EFC8DE3B51AF6A9EB4BALL9containery8Swinject9ContainerC_tF
_$s8LarkTour0B8AssemblyC14assembleRoutes33_C2B64EEC5662EFC8DE3B51AF6A9EB4BALL9containery8Swinject9ContainerC_tF
_$s17LarkTourInterface18AddMemberGuideBodyVAC11EENavigator0G0AAWl
_$s17LarkTourInterface18AddMemberGuideBodyV11EENavigator0G0AaD14URLConvertiblePWb
_$s17LarkTourInterface18AddMemberGuideBodyVAC11EENavigator14URLConvertibleAAWl
_$s17LarkTourInterface18AddMemberGuideBodyV11EENavigator0G0AadEP13patternConfigAD07PatternJ0VvgZTW
_$s17LarkTourInterface18AddMemberGuideBodyVAC11EENavigator05PlainG0AAWl
_$s17LarkTourInterface18AddMemberGuideBodyV11EENavigator05PlainG0AaD0G0PWb
_$s17LarkTourInterface18AddMemberGuideBodyV11EENavigator05PlainG0AadEP7patternSSvgZTW
_$s17LarkTourInterface18AddMemberGuideBodyV7patternSSvgZ
_$s17LarkTourInterface18AddMemberGuideBodyV7patternSSvau
_globalinit_33_08449E84845DEF9A6BD3A5AAA75EC5C4_func3
_$s17LarkTourInterface12EditTeamBodyV11EENavigator0F0AaD14URLConvertiblePWb
_$s17LarkTourInterface12EditTeamBodyVAC11EENavigator14URLConvertibleAAWl
_$s17LarkTourInterface12EditTeamBodyV11EENavigator0F0AadEP13patternConfigAD07PatternI0VvgZTW
_$s17LarkTourInterface12EditTeamBodyVAC11EENavigator05PlainF0AAWl
_$s17LarkTourInterface12EditTeamBodyV11EENavigator05PlainF0AaD0F0PWb
_$s17LarkTourInterface12EditTeamBodyV11EENavigator05PlainF0AadEP7patternSSvgZTW
_$s17LarkTourInterface12EditTeamBodyV7patternSSvgZ
_$s17LarkTourInterface12EditTeamBodyV7patternSSvau
_globalinit_33_08449E84845DEF9A6BD3A5AAA75EC5C4_func4
_$s17LarkTourInterface12EditTeamBodyV10botPatternSSvau
_globalinit_33_08449E84845DEF9A6BD3A5AAA75EC5C4_func5
_$s8LarkTour15DynamicStepBodyVAC11EENavigator0E0AAWl
_$s8LarkTour15DynamicStepBodyV11EENavigator0E0AaD14URLConvertiblePWb
_$s8LarkTour15DynamicStepBodyVAC11EENavigator14URLConvertibleAAWl
_$s8LarkTour15DynamicStepBodyVACSeAAWl
_$s8LarkTour15DynamicStepBodyVACSEAAWl
_$s8LarkTour15DynamicStepBodyV11EENavigator0E0AadEP13patternConfigAD07PatternH0VvgZTW
_$s8LarkTour15DynamicStepBodyV13patternConfig11EENavigator07PatternG0VvgZ
_$s8LarkTour15DynamicStepBodyV6prefix33_1AC6FD824B32A6EB3F44EC7AF7D2BFCCLLSSvau
_globalinit_33_1AC6FD824B32A6EB3F44EC7AF7D2BFCC_func71
_$s10Foundation3URLV11EENavigatorE23schemeAndHostLowercasedACvg
_$s8LarkTour18DynamicJumpTabBodyVAC11EENavigator0F0AAWl
_$s8LarkTour18DynamicJumpTabBodyV11EENavigator0F0AaD14URLConvertiblePWb
_$s8LarkTour18DynamicJumpTabBodyVAC11EENavigator14URLConvertibleAAWl
_$s8LarkTour18DynamicJumpTabBodyVACSeAAWl
_$s8LarkTour18DynamicJumpTabBodyVACSEAAWl
_$s8LarkTour18DynamicJumpTabBodyV11EENavigator0F0AadEP13patternConfigAD07PatternI0VvgZTW
_$s8LarkTour18DynamicJumpTabBodyV13patternConfig11EENavigator07PatternH0VvgZ
_$s8LarkTour18DynamicJumpTabBodyV6prefix05_80C9H26AC664DE0650F4630049374E559LLSSvau
_globalinit_05_80C9A26AC664DE0650F4630049374E559_func74
_$s8LarkTour19DynamicJumpChatBodyVAC11EENavigator0F0AAWl
_$s8LarkTour19DynamicJumpChatBodyV11EENavigator0F0AaD14URLConvertiblePWb
_$s8LarkTour19DynamicJumpChatBodyVAC11EENavigator14URLConvertibleAAWl
_$s8LarkTour19DynamicJumpChatBodyVACSeAAWl
_$s8LarkTour19DynamicJumpChatBodyVACSEAAWl
_$s8LarkTour19DynamicJumpChatBodyV11EENavigator0F0AadEP13patternConfigAD07PatternI0VvgZTW
_$s8LarkTour19DynamicJumpChatBodyV13patternConfig11EENavigator07PatternH0VvgZ
_$s8LarkTour19DynamicJumpChatBodyV6prefix33_1A9272B0B6F135D94E6416F5C18CAA99LLSSvau
_globalinit_33_1A9272B0B6F135D94E6416F5C18CAA99_func73
_$sSS11EENavigator7TokenIdOs5Error_pIggozo_SSACsAD_pIegnrzo_TRTA
_$sSS11EENavigator7TokenIdOs5Error_pIggozo_SSACsAD_pIegnrzo_TR
_$sSS11EENavigatorE5parseSayAA5TokenOGyFAA0C2IdOSSXEfU0_
___swift_memcpy17_8
_$s8LarkTour0B8AssemblyC17assembleTemplates33_C2B64EEC5662EFC8DE3B51AF6A9EB4BALL9containery8Swinject9ContainerC_tF
_$s8LarkTour18DynamicStepFactoryCMa
_$s8LarkTour18DynamicStepFactoryCMr
_$s13LarkContainer8ProviderVy0A4Tour18DynamicFlowService_pGMa
_$s8LarkTour18DynamicFlowService_pMa
_$s8LarkTour18DynamicStepFactoryC6sharedACvau
_globalinit_33_9DFFC3AF665EA6F9E6804690A121A0F0_func72
_$s8LarkTour18DynamicStepFactoryCACycfC
_$s8LarkTour18DynamicStepFactoryCACycfc
_$s8LarkTour18DynamicStepFactoryC0D3Key33_9DFFC3AF665EA6F9E6804690A121A0F0LLVMa
_$s8LarkTour15DynamicStepDataVMa
_$s8LarkTour15DynamicStepDataVMr
_$s6RustPB25Onboarding_V1_FlowContextVMa
_$s6RustPB25Onboarding_V1_FlowContextVMr
_$s6RustPB18Onboarding_V1_StepVMa
_$s6RustPB18Onboarding_V1_StepVMr
_$s8LarkTour18DynamicStepFactoryC0D3Key33_9DFFC3AF665EA6F9E6804690A121A0F0LLVAFSHAAWl
_$s8LarkTour18DynamicStepFactoryC0D3Key33_9DFFC3AF665EA6F9E6804690A121A0F0LLVSHAASQWb
_$s8LarkTour18DynamicStepFactoryC0D3Key33_9DFFC3AF665EA6F9E6804690A121A0F0LLVAFSQAAWl
_$s8LarkTour18DynamicStepFactoryC0D3Key33_9DFFC3AF665EA6F9E6804690A121A0F0LLVwst
_$s8LarkTour18DynamicStepFactoryC0D3Key33_9DFFC3AF665EA6F9E6804690A121A0F0LLVwet
_$s8LarkTour14OnboardingFlowOMa
_$s8LarkTour14OnboardingFlowOACSHAAWl
_$s8LarkTour14OnboardingFlowOSHAASQWb
_$s8LarkTour14OnboardingFlowOACSQAAWl
_$s8LarkTour14OnboardingFlowOSHAASH13_rawHashValue4seedS2i_tFTW
_$s8LarkTour14OnboardingFlowOACSYAAWl
_$s8LarkTour14OnboardingFlowOSHAASH4hash4intoys6HasherVz_tFTW
_$s8LarkTour14OnboardingFlowOSYAASY8rawValue03RawF0QzvgTW
_$s8LarkTour14OnboardingFlowO8rawValueSSvg
_$s8LarkTour14OnboardingFlowOAC0aB9Interface07DynamicD0AAWl
_$s8LarkTour14OnboardingFlowO0aB9Interface07DynamicD0AAWI
_$s8LarkTour14OnboardingFlowOACs12CaseIterableAAWl
_$s8LarkTour18DynamicStepFactoryC12registerFlow_9factoriesyxm_SDyxAA0cD4Type_pSgs5Int64V_AA0cD4DataVtcGt0aB9Interface0cG0RzlF
_$s8LarkTour15DynamicStepType_pSgs5Int64V_AA0cD4DataVtcMa
_$s8LarkTour15DynamicStepType_pSgMa
_$s8LarkTour15DynamicStepType_pMa
_$sxs5Int64V8LarkTour15DynamicStepDataVAC0dE4Type_pSgIegyno_s5Error_pIgngzo_x3key_xq_q0_r1_lyAbeGIsegnnr_5valuetsAH_pIegnzo_0bC9Interface0D4FlowRzlTRTA
_$sxs5Int64V8LarkTour15DynamicStepDataVAC0dE4Type_pSgIegyno_s5Error_pIgngzo_x3key_xq_q0_r1_lyAbeGIsegnnr_5valuetsAH_pIegnzo_0bC9Interface0D4FlowRzlTR
_$s8LarkTour18DynamicStepFactoryC12registerFlow_9factoriesyxm_SDyxAA0cD4Type_pSgs5Int64V_AA0cD4DataVtcGt0aB9Interface0cG0RzlFyx_AgI_AKtctXEfU_TA
_$s8LarkTour18DynamicStepFactoryC12registerFlow_9factoriesyxm_SDyxAA0cD4Type_pSgs5Int64V_AA0cD4DataVtcGt0aB9Interface0cG0RzlFyx_AgI_AKtctXEfU_
_$s8LarkTour14OnboardingFlowO0aB9Interface07DynamicD0AadEP7suiteIds5Int64VvgZTW
_$s8LarkTour14OnboardingFlowO7suiteIds5Int64VvgZ
_$s8LarkTour14OnboardingFlowO7suiteIds5Int64Vvau
_globalinit_33_68BD02EE668276DC9F1BA8328DA79C76_func92
_$ss5Int64V8LarkTourE10onboardingABvau
_globalinit_33_68BD02EE668276DC9F1BA8328DA79C76_func89
_$s8LarkTour18DynamicStepFactoryC0D3Key33_9DFFC3AF665EA6F9E6804690A121A0F0LLV7suiteId8stepNameAFs5Int64V_SStcfC
_$s8LarkTour18DynamicStepFactoryC0D3Key33_9DFFC3AF665EA6F9E6804690A121A0F0LLVSHAASH13_rawHashValue4seedS2i_tFTW
_$s8LarkTour18DynamicStepFactoryC0D3Key33_9DFFC3AF665EA6F9E6804690A121A0F0LLVSHAASH4hash4intoys6HasherVz_tFTW
_$s8LarkTour18DynamicStepFactoryC0D3Key33_9DFFC3AF665EA6F9E6804690A121A0F0LLV4hash4intoys6HasherVz_tF
_$s8LarkTour18DynamicStepFactoryC0D3Key33_9DFFC3AF665EA6F9E6804690A121A0F0LLVwcp
_$s8LarkTour18DynamicStepFactoryC0D3Key33_9DFFC3AF665EA6F9E6804690A121A0F0LLVSQAASQ2eeoiySbx_xtFZTW
_$s8LarkTour18DynamicStepFactoryC0D3Key33_9DFFC3AF665EA6F9E6804690A121A0F0LLV23__derived_struct_equalsySbAF_AFtFZ
_$s8LarkTour18DynamicStepFactoryC0D3Key33_9DFFC3AF665EA6F9E6804690A121A0F0LLVwxx
_$s8LarkTour0B8AssemblyC18assembleLaunchTask33_C2B64EEC5662EFC8DE3B51AF6A9EB4BALLyyF
_$s8LarkTour0B9SetupTaskCMa
_$s8LarkTour0B9SetupTaskCMr
_$s13LarkContainer8ProviderVy0A4Tour23AdvertisingEventHandler_pGMa
_$s8LarkTour23AdvertisingEventHandler_pMa
_$s13LarkContainer8ProviderVy0A13TourInterface18AdvertisingService_pGMa
_$s17LarkTourInterface18AdvertisingService_pMa
_$s8LarkTour0B9SetupTaskCAC11BootManager12IdentifiableAAWl
_$s8LarkTour0B9SetupTaskC11BootManager12IdentifiableAadEP8identifySSvgZTW
_$s8LarkTour0B9SetupTaskC8identifySSvgZ
_$s8LarkTour0B9SetupTaskC8identifySSvau
_globalinit_33_0D7D43975552366DB1F8C75FCBA4509E_func87
_$s8LarkTour20ResumeOnboardingTaskCMa
_$s8LarkTour20ResumeOnboardingTaskCMr
_$s13LarkContainer12InjectedLazyVy0A13TourInterface0E7Service_pGMa
_$s17LarkTourInterface0B7Service_pMa
_$s13LarkContainer12InjectedLazyVy0A13TourInterface22DynamicResourceService_pGMa
_$s17LarkTourInterface22DynamicResourceService_pMa
_$s8LarkTour20ResumeOnboardingTaskCAC11BootManager12IdentifiableAAWl
_$s8LarkTour20ResumeOnboardingTaskC11BootManager12IdentifiableAadEP8identifySSvgZTW
_$s8LarkTour20ResumeOnboardingTaskC8identifySSvgZ
_$s8LarkTour20ResumeOnboardingTaskC8identifySSvau
_globalinit_33_51B47AF4BB146DA6AC89B0913F75BD05_func95
_$s8LarkTour0B8AssemblyC23assemblePushStepHandler33_C2B64EEC5662EFC8DE3B51AF6A9EB4BALLyyF
_$s8LarkTour22PushStepHandlerFactoryCMa
_$s8LarkTour22PushStepHandlerFactoryC6sharedACvau
_globalinit_33_CF0F53A232B08C65B4DB51121E1D6CAD_func75
_$s8LarkTour22PushStepHandlerFactoryCACycfC
_$s8LarkTour22PushStepHandlerFactoryCACycfc
_$s8LarkTour11StepContextOMa
_$s8LarkTour11StepContextOACSHAAWl
_$s8LarkTour11StepContextOSHAASQWb
_$s8LarkTour11StepContextOACSQAAWl
_$s8LarkTour16TabSwitchHandlerCMa
_$s8LarkTour16TabSwitchHandlerCMr
_$s13LarkContainer8ProviderVy0A10Navigation0D7Service_pGMa
_$s14LarkNavigation0B7Service_pMa
_$s13LarkContainer8ProviderVy0A13TourInterface21DynamicProcessService_pGMa
_$s17LarkTourInterface21DynamicProcessService_pMa
_$s8LarkTour16TabSwitchHandlerCACycfC
_$s8LarkTour16TabSwitchHandlerCACycfc
_$s8LarkTour22PushStepHandlerFactoryC08registerE03for7handleryAA0D7ContextO_AA0cdE4Type_ptF
_$s8LarkTour11StepContextOSHAASH13_rawHashValue4seedS2i_tFTW
_$s8LarkTour11StepContextOACSYAAWl
_$s8LarkTour11StepContextOSHAASH4hash4intoys6HasherVz_tFTW
_$s8LarkTour11StepContextOSYAASY8rawValue03RawF0QzvgTW
_$s8LarkTour11StepContextO8rawValueSSvg
_$s8LarkTour23TabAlertCardPushHandlerCMa
_$s8LarkTour23TabAlertCardPushHandlerCMr
_$s8LarkTour23TabAlertCardPushHandlerCACycfC
_$s8LarkTour23TabAlertCardPushHandlerCACycfc
_$s8LarkTour0B8AssemblyC19assemblePushHandler33_C2B64EEC5662EFC8DE3B51AF6A9EB4BALLyyF
_$s14LarkCreateTeam0bC8AssemblyC8Swinject0D0AadEP8assemble9containeryAD9ContainerC_tFTW
_$s14LarkCreateTeam0bC8AssemblyC8assemble9containery8Swinject9ContainerC_tF
_$s14LarkCreateTeam0bC8AssemblyC22assembleRequestHandler9containery8Swinject9ContainerC_tF
_$s14LarkCreateTeam15JsBridgeWebBodyVMa
_$s14LarkCreateTeam15JsBridgeWebBodyVMr
_$s14LarkCreateTeam15JsBridgeWebBodyVAC11EENavigator0G0AAWl
_$s14LarkCreateTeam15JsBridgeWebBodyV11EENavigator0G0AaD14URLConvertiblePWb
_$s14LarkCreateTeam15JsBridgeWebBodyVAC11EENavigator14URLConvertibleAAWl
_$s14LarkCreateTeam15JsBridgeWebBodyVACSeAAWl
_$s14LarkCreateTeam15JsBridgeWebBodyVACSEAAWl
_$s14LarkCreateTeam15JsBridgeWebBodyV11EENavigator0G0AadEP13patternConfigAD07PatternJ0VvgZTW
_$s14LarkCreateTeam15JsBridgeWebBodyVAC11EENavigator05PlainG0AAWl
_$s14LarkCreateTeam15JsBridgeWebBodyV11EENavigator05PlainG0AaD0G0PWb
_$s14LarkCreateTeam15JsBridgeWebBodyV11EENavigator05PlainG0AadEP7patternSSvgZTW
_$s14LarkCreateTeam15JsBridgeWebBodyV7patternSSvgZ
_$s14LarkCreateTeam15JsBridgeWebBodyV7patternSSvau
_globalinit_33_0B2E11CEC7DB30EB3947FD0C27F3E196_func5
_$s14LarkNavigation0B8AssemblyC8Swinject0C0AadEP8assemble9containeryAD9ContainerC_tFTW
_$s14LarkNavigation0B8AssemblyC8assemble9containery8Swinject9ContainerC_tF
_$s14LarkNavigation0B8AssemblyC15assembleService33_A25232A2DC9A4ADBCF7F7AD297DAD368LL9containery8Swinject9ContainerC_tF
_$s11EENavigator9NavigatorC18navigationProviderSo22UINavigationControllerCycSgvsTj
_$s11EENavigator9NavigatorC18navigationProviderSo22UINavigationControllerCycSgvs
_$sSo22UINavigationControllerCIego_SgWOy
_$sSo22UINavigationControllerCIego_SgWOe
_$s11EENavigator9NavigatorC11tabProviderAA03TabD0_pycSgvsTj
_$s11EENavigator9NavigatorC11tabProviderAA03TabD0_pycSgvs
_$s11EENavigator11TabProvider_pIego_SgWOy
_$s11EENavigator11TabProvider_pIego_SgWOe
_$s11EENavigator6RouterC14defaultSchemesSaySSGvsTj
_$s11EENavigator6RouterC14defaultSchemesSaySSGvs
_$s14LarkNavigation0B13ConfigServiceCMa
_$s14LarkNavigation0B13ConfigServiceCMr
_$s6RustPB23Basic_V1_NavigationInfoVSgMa
_$s6RustPB23Basic_V1_NavigationInfoVMa
_$s6RustPB23Basic_V1_NavigationInfoVMr
_$s14LarkNavigation0B8AssemblyC17assembleDebugItem33_A25232A2DC9A4ADBCF7F7AD297DAD368LL9containery8Swinject9ContainerC_tF
_$s14LarkNavigation0B8AssemblyC24assembleLauncherDelegate33_A25232A2DC9A4ADBCF7F7AD297DAD368LL9containery8Swinject9ContainerC_tF
_$s14LarkNavigation0B8AssemblyC22assembleRequestHandler33_A25232A2DC9A4ADBCF7F7AD297DAD368LL9containery8Swinject9ContainerC_tF
_$s14LarkNavigation0A12TenantVCBodyVAC11EENavigator4BodyAAWl
_$s14LarkNavigation0A12TenantVCBodyV11EENavigator4BodyAaD14URLConvertiblePWb
_$s14LarkNavigation0A12TenantVCBodyVAC11EENavigator14URLConvertibleAAWl
_$s14LarkNavigation0A12TenantVCBodyVACSeAAWl
_$s14LarkNavigation0A12TenantVCBodyVACSEAAWl
_$s14LarkNavigation0A12TenantVCBodyV11EENavigator4BodyAadEP13patternConfigAD07PatternH0VvgZTW
_$s14LarkNavigation0A12TenantVCBodyVAC11EENavigator9PlainBodyAAWl
_$s14LarkNavigation0A12TenantVCBodyV11EENavigator9PlainBodyAaD0G0PWb
_$s14LarkNavigation0A12TenantVCBodyV11EENavigator9PlainBodyAadEP7patternSSvgZTW
_$s14LarkNavigation0A12TenantVCBodyV7patternSSvgZ
_$s14LarkNavigation0A12TenantVCBodyV7patternSSvau
_globalinit_33_850DF7955A335C46129A9DAEEBE3FD99_func81
_$s14LarkNavigation11SideBarBodyVAC11EENavigator0E0AAWl
_$s14LarkNavigation11SideBarBodyV11EENavigator0E0AaD14URLConvertiblePWb
_$s14LarkNavigation11SideBarBodyVAC11EENavigator14URLConvertibleAAWl
_$s14LarkNavigation11SideBarBodyV11EENavigator0E0AadEP13patternConfigAD07PatternH0VvgZTW
_$s14LarkNavigation11SideBarBodyVAC11EENavigator05PlainE0AAWl
_$s14LarkNavigation11SideBarBodyV11EENavigator05PlainE0AaD0E0PWb
_$s14LarkNavigation11SideBarBodyV11EENavigator05PlainE0AadEP7patternSSvgZTW
_$s14LarkNavigation11SideBarBodyV7patternSSvgZ
_$s14LarkNavigation11SideBarBodyV7patternSSvau
_globalinit_33_512B8504F28CC078B019A1C1C216B308_func109
_$s14LarkNavigation10DrawerBodyVAC11EENavigator0D0AAWl
_$s14LarkNavigation10DrawerBodyV11EENavigator0D0AaD14URLConvertiblePWb
_$s14LarkNavigation10DrawerBodyVAC11EENavigator14URLConvertibleAAWl
_$s14LarkNavigation10DrawerBodyV11EENavigator0D0AadEP13patternConfigAD07PatternG0VvgZTW
_$s14LarkNavigation10DrawerBodyVAC11EENavigator05PlainD0AAWl
_$s14LarkNavigation10DrawerBodyV11EENavigator05PlainD0AaD0D0PWb
_$s14LarkNavigation10DrawerBodyV11EENavigator05PlainD0AadEP7patternSSvgZTW
_$s14LarkNavigation10DrawerBodyV7patternSSvgZ
_$s14LarkNavigation10DrawerBodyV7patternSSvau
_globalinit_33_87E51211F4997FAB86E597F02511BFF2_func65
_$s14LarkNavigation0B8AssemblyC18assembleLaunchTask33_A25232A2DC9A4ADBCF7F7AD297DAD368LL9containery8Swinject9ContainerC_tF
_$s14LarkNavigation16SetupMainTabTaskCMa
_$s14LarkNavigation16SetupMainTabTaskCMr
_$s14LarkNavigation16SetupMainTabTaskCAC11BootManager12IdentifiableAAWl
_$s14LarkNavigation16SetupMainTabTaskC11BootManager12IdentifiableAadEP8identifySSvgZTW
_$s14LarkNavigation16SetupMainTabTaskC8identifySSvgZ
_$s14LarkNavigation16SetupMainTabTaskC8identifySSvau
_globalinit_09_79FB6A95a14AFEE68C4FD9B12D5F2C9A_func107
_$s14LarkNavigation15BlockLaunchTaskCMa
_$s14LarkNavigation15BlockLaunchTaskCMr
_$s13LarkContainer8ProviderVy0A10Navigation0A28NaviBarDataServiceDependency_AD0d16ApplicationBadgeI0AD0dh4ImplI0AD0d4TourI0pGMa
_$s14LarkNavigation0A28NaviBarDataServiceDependency_AA0b16ApplicationBadgeG0AA0bf4ImplG0AA0b4TourG0pMa
_$s13LarkContainer8ProviderVy0A10Navigation0D13ConfigServiceCGMa
_$s14LarkNavigation15BlockLaunchTaskCAC11BootManager12IdentifiableAAWl
_$s14LarkNavigation15BlockLaunchTaskC11BootManager12IdentifiableAadEP8identifySSvgZTW
_$s14LarkNavigation15BlockLaunchTaskC8identifySSvgZ
_$s14LarkNavigation15BlockLaunchTaskC8identifySSvau
_globalinit_33_658AFA2984D8E8BB0029EC5BDA53CB96_func3
_$s14LarkNavigation21PreloadTabServiceTaskCMa
_$s14LarkNavigation21PreloadTabServiceTaskCMr
_$s13LarkContainer8ProviderVy0A10Navigation20SwitchAccountService_pGMa
_$s14LarkNavigation20SwitchAccountService_pMa
_$s14LarkNavigation21PreloadTabServiceTaskCAC11BootManager12IdentifiableAAWl
_$s14LarkNavigation21PreloadTabServiceTaskC11BootManager12IdentifiableAadEP8identifySSvgZTW
_$s14LarkNavigation21PreloadTabServiceTaskC8identifySSvgZ
_$s14LarkNavigation21PreloadTabServiceTaskC8identifySSvau
_globalinit_33_02F73BED3015777BD8AA63388C6E9155_func103
_$s14LarkNavigation20AnalysisFirstTabTaskCMa
_$s14LarkNavigation20AnalysisFirstTabTaskCMr
_$s14LarkNavigation20AnalysisFirstTabTaskCAC11BootManager12IdentifiableAAWl
_$s11BootManagerAAC8register_8provideryxm_AA10LaunchTaskCyctAFRbzAA12IdentifiableRzlFZ
_$s14LarkNavigation20AnalysisFirstTabTaskC11BootManager12IdentifiableAadEP8identifySSvgZTW
_$s14LarkNavigation20AnalysisFirstTabTaskC8identifySSvgZ
_$s14LarkNavigation20AnalysisFirstTabTaskC8identifySSvau
_globalinit_33_E8D087FBD7B06E991CFF049305A54057_func1
_$s14LarkNavigation17SetupLauncherTaskCMa
_$s14LarkNavigation17SetupLauncherTaskCMr
_$s14LarkNavigation17SetupLauncherTaskCAC11BootManager12IdentifiableAAWl
_$s14LarkNavigation17SetupLauncherTaskC11BootManager12IdentifiableAadEP8identifySSvgZTW
_$s14LarkNavigation17SetupLauncherTaskC8identifySSvgZ
_$s14LarkNavigation17SetupLauncherTaskC8identifySSvau
_globalinit_33_4D0173D804BD37FC1C6A3B679A6CEFA2_func106
_$s16LarkSceneManager0bC0CMa
_$s16LarkSceneManager0bC0C6sharedACvgZ
_$s16LarkSceneManager0bC0C6sharedACvau
_globalinit_33_8694B9EEA4DBD1AE0445570AD7516D94_func9
_$s16LarkSceneManager0bC0CACycfC
_$s16LarkSceneManager0bC0CACycfc
_$s16LarkSceneManager0B0CMa
_$s16LarkSceneManager0B0CACSHAAWl
_$s16LarkSceneManager0B0CSHAASQWb
_$s16LarkSceneManager0B0CACSQAAWl
_$s16LarkSceneManager0bC0C22supportsMultipleScenesSbvpfiSbyXEfU_
_$s16LarkSceneManager0bC0C07observeB12Notification33_8694B9EEA4DBD1AE0445570AD7516D94LLyyF
_block_copy_helper.31
_$s16LarkSceneManager0bC0C21didActivateNotiObject33_8694B9EEA4DBD1AE0445570AD7516D94LLSo8NSObject_pSgvs
_block_copy_helper.34
_$s16LarkSceneManager0bC0C23didDisconnectNotiObject33_8694B9EEA4DBD1AE0445570AD7516D94LLSo8NSObject_pSgvs
_$s16LarkSceneManager0bC0C12registerMain7handlerySo16UIViewControllerCSo8UIWindowCc_tFTj
_$s16LarkSceneManager0bC0C12registerMain7handlerySo16UIViewControllerCSo8UIWindowCc_tF
_$s16LarkSceneManager0bC0C14defaultHandler33_8694B9EEA4DBD1AE0445570AD7516D94LLSo16UIViewControllerCSo8UIWindowCcSgvs
_$sSo8UIWindowCSo16UIViewControllerCIeggo_SgWOy
_$sSo8UIWindowCSo16UIViewControllerCIeggo_SgWOe
_$s14LarkNavigation0B8AssemblyC20assemblePushHandlers9containery8Swinject9ContainerC_tF
_$s14LarkNavigation0B8AssemblyC29subscribeTimezoneNotification33_A25232A2DC9A4ADBCF7F7AD297DAD368LL8resolvery8Swinject8Resolver_p_tF
_$s7RxSwift16BinaryDisposable33_7413E6CD8B22AEAFB6AE58B0BDB57F57LLCfD
_$s7RxSwift16BinaryDisposable33_7413E6CD8B22AEAFB6AE58B0BDB57F57LLCfd
_$s7RxSwift11DisposeBaseCfd
_$s7LarkSDK11SDKAssemblyC8Swinject8AssemblyAadEP8assemble9containeryAD9ContainerC_tFTW
_$s7LarkSDK11SDKAssemblyC8assemble9containery8Swinject9ContainerC_tF
_$s7LarkSDK11SDKAssemblyC15assembleService33_88C5738F1CE0D774EC7F503FFBB1E73ALL9containery8Swinject9ContainerC_tF
_$s7LarkSDK11SDKAssemblyC18assembleRustSDKAPI33_88C5738F1CE0D774EC7F503FFBB1E73ALL9containery8Swinject9ContainerC_tF
_$s8Swinject12ServiceEntryCfD
_$s8Swinject12ServiceEntryCfd
_$sSo6NSLockCSgWOh
_$sxSglWOh
_$s7LarkSDK11SDKAssemblyC19assemblePushHandler33_88C5738F1CE0D774EC7F503FFBB1E73ALL9containery8Swinject9ContainerC_tF
_$s7LarkSDK11SDKAssemblyC17assembleDebugItem33_88C5738F1CE0D774EC7F503FFBB1E73ALL9containery8Swinject9ContainerC_tF
_$s16LarkOpenPlatform0bC8AssemblyC8Swinject0D0AadEP8assemble9containeryAD9ContainerC_tFTW
_$s16LarkOpenPlatform0bC8AssemblyC8assemble9containery8Swinject9ContainerC_tF
_$s16LarkOpenPlatform26ECOInfraDependencyAssemblyCMa
_$s16LarkOpenPlatform26ECOInfraDependencyAssemblyCACycfC
_$s16LarkOpenPlatform26ECOInfraDependencyAssemblyCACycfc
_$s16LarkOpenPlatform26ECOInfraDependencyAssemblyCAC8Swinject0F0AAWl
_$s8ECOInfra17ECOCookieAssemblyCMa
_$s8ECOInfra17ECOCookieAssemblyCACycfC
_$s8ECOInfra17ECOCookieAssemblyCACycfc
_$s8ECOInfra17ECOCookieAssemblyCAC8Swinject0C0AAWl
_$s16LarkOpenPlatform26ECOInfraDependencyAssemblyC8Swinject0F0AadEP8assemble9containeryAD9ContainerC_tFTW
_$s16LarkOpenPlatform26ECOInfraDependencyAssemblyC8assemble9containery8Swinject9ContainerC_tF
_$s8ECOInfra17ECOCookieAssemblyC8Swinject0C0AadEP8assemble9containeryAD9ContainerC_tFTW
_$s8ECOInfra17ECOCookieAssemblyC8assemble9containery8Swinject9ContainerC_tF
_$s8ECOInfra15ECOCookieConfigVMa
_$s8ECOInfra15ECOCookieConfigVMr
_$s13LarkContainer8ProviderVy8ECOInfra19ECOCookieDependency_pGMa
_$s8ECOInfra19ECOCookieDependency_pMa
_$s8ECOInfra15ECOCookieConfigVwst
_$s13LarkContainer8ProviderVwst
_$s8ECOInfra15ECOCookieConfigVwet
_$s13LarkContainer8ProviderVwet
_$s8ECOInfra19ECOCookieGadgetSyncCMa
_$s8ECOInfra19ECOCookieGadgetSyncCMr
_$s13LarkContainer8ProviderVy8ECOInfra21ECOCookieGlobalPluginCGMa
_$s8ECOInfra21ECOCookieGlobalPluginCMa
_$s13LarkContainer8ProviderVy8ECOInfra15ECOCookiePluginCGMa
_$s8ECOInfra15ECOCookiePluginCMa
_$s8ECOInfra15ECOCookiePluginCMr
_$s13LarkContainer8ProviderVy8ECOInfra15ECOCookieConfigVGMa
_$sSo13OPAppUniqueIDCMa
_$s8ECOInfra17ECOCookieAssemblyC14assemblePlugin9containery8Swinject9ContainerC_tF
_$s16LarkOpenPlatform26ECOInfraDependencyAssemblyCfD
_$s16LarkOpenPlatform26ECOInfraDependencyAssemblyCfd
_$s8ECOInfra17ECOCookieAssemblyCfD
_$s8ECOInfra17ECOCookieAssemblyCfd
_$s8Swinject9AssemblerCfD
_$s8Swinject9AssemblerCfd
_$s15LarkMessageBase26MetaModelSummerizeRegistryCMa
_$s16LarkOpenPlatform25CardModelSummerizeFactoryCMa
_$s15LarkMessageBase26MetaModelSummerizeRegistryC6registyyAA0deF7FactoryCmFZ
_$s15LarkMessageBase26MetaModelSummerizeRegistryC12factoryTypesSayAA0deF7FactoryCmGvau
_globalinit_33_1FE7A4EEE08E3461222B21AC1175B643_func40
_$s15LarkMessageBase25MetaModelSummerizeFactoryCMa
_$s16LarkOpenPlatform0bC6AliverCMa
_$s16LarkOpenPlatform0bC10HttpClientCMa
_$s16LarkOpenPlatform11OPShareBodyVMa
_$s16LarkOpenPlatform11OPShareBodyVMr
_$s16LarkOpenPlatform9ShareTypeOMa
_$s16LarkOpenPlatform9ShareTypeOMr
_$s16LarkOpenPlatform12ShareAppPageVMa
_$s16LarkOpenPlatform12ShareAppPageVMr
_$s9LarkModel12ShareOptionsVMa
_$s16LarkOpenPlatform11OPShareBodyV11EENavigator0E0AaD14URLConvertiblePWb
_$s16LarkOpenPlatform11OPShareBodyVAC11EENavigator14URLConvertibleAAWl
_$s16LarkOpenPlatform11OPShareBodyV11EENavigator0E0AadEP13patternConfigAD07PatternH0VvgZTW
_$s16LarkOpenPlatform11OPShareBodyVAC11EENavigator05PlainE0AAWl
_$s16LarkOpenPlatform11OPShareBodyV11EENavigator05PlainE0AaD0E0PWb
_$s16LarkOpenPlatform11OPShareBodyV11EENavigator05PlainE0AadEP7patternSSvgZTW
_$s16LarkOpenPlatform11OPShareBodyV7patternSSvgZ
_$s16LarkOpenPlatform11OPShareBodyV7patternSSvau
_globalinit_33_33AE6158338896CEED9ECC5B90473AE5_func257
_$s15LarkMessageBase04ChatB19SubFactoryRegisteryCMa
_$s15LarkMessageBase04ChatB19SubFactoryRegisteryCMr
_$s15LarkMessageBase11ChatContextCMa
_$s15LarkMessageBase11ChatContextCMr
_$s15LarkMessageBase11PageContextCMa
_$s15LarkMessageBase11PageContextCMr
_$s6RustPB26Media_V1_DownloadFileSceneOSgMa
_$s6RustPB26Media_V1_DownloadFileSceneOMa
_$s15LarkMessageBase0B19SubFactoryRegisteryCMa
_$s15LarkMessageBase0B19SubFactoryRegisteryCMi
_$s15LarkMessageBase0B19SubFactoryRegisteryCMr
_$s15LarkMessageBase11ChatContextC0A12OpenPlatform023DynamicContentViewModelE0ADWI
_$s15LarkMessageBase11ChatContextCAA04PageE0CAA09ViewModelE0AAWl
_$s15LarkMessageBase11PageContextCAA09ViewModelE0AAWI
_$s15LarkMessageBase11PageContextCAC14AsyncComponent0E0AAWl
_$s16LarkOpenPlatform21DynamicContentFactoryCMa
_$s16LarkOpenPlatform21DynamicContentFactoryCMi
_$s16LarkOpenPlatform21DynamicContentFactoryCMr
_$s15LarkMessageBase0B10SubFactoryCMa
_$s15LarkMessageBase0B10SubFactoryCMi
_$s15LarkMessageBase0B10SubFactoryCMr
_$s15LarkMessageBase04ChatB19SubFactoryRegisteryC8registeryyAA0beF0CyAA0D7ContextCGmFZ
_$s16LarkOpenPlatform21DynamicContentFactoryC7subType0A11MessageBase03SubH0OvgZ
_$s15LarkMessageBase7SubTypeO21__derived_enum_equalsySbAC_ACtFZ
_$s15LarkMessageBase04ChatB19SubFactoryRegisteryC12factoryTypes33_20A7FBF549AF10448B34F8DB43A654EBLLSayAA0beF0CyAA0D7ContextCGmGvau
_globalinit_33_20A7FBF549AF10448B34F8DB43A654EB_func32
_$s15LarkMessageBase0b6DetailB19SubFactoryRegisteryCMa
_$s15LarkMessageBase0b6DetailB19SubFactoryRegisteryCMr
_$s15LarkMessageBase0B13DetailContextCMa
_$s15LarkMessageBase0B13DetailContextCMr
_$s15LarkMessageBase0B13DetailContextC0A12OpenPlatform023DynamicContentViewModelE0ADWI
_$s15LarkMessageBase0B13DetailContextCAA04PageE0CAA09ViewModelE0AAWl
_$s15LarkMessageBase0b6DetailB19SubFactoryRegisteryC8registeryyAA0beF0CyAA0bD7ContextCGmFZ
_$s15LarkMessageBase0b6DetailB19SubFactoryRegisteryC12factoryTypes33_02F35BD05195C159B61EBB7A0678FB01LLSayAA0beF0CyAA0bD7ContextCGmGvau
_globalinit_33_02F35BD05195C159B61EBB7A0678FB01_func38
_$s15LarkMessageBase012MergeForwardB19SubFactoryRegisteryCMa
_$s15LarkMessageBase012MergeForwardB19SubFactoryRegisteryCMr
_$s15LarkMessageBase19MergeForwardContextCMa
_$s15LarkMessageBase19MergeForwardContextCMr
_$s15LarkMessageBase19MergeForwardContextC0A12OpenPlatform023DynamicContentViewModelF0ADWI
_$s15LarkMessageBase19MergeForwardContextCAA04PageF0CAA09ViewModelF0AAWl
_$s15LarkMessageBase012MergeForwardB19SubFactoryRegisteryC8registeryyAA0bfG0CyAA0dE7ContextCGmFZ
_$s15LarkMessageBase012MergeForwardB19SubFactoryRegisteryC12factoryTypes33_0E0E806659BED3524F8094E31A001C9BLLSayAA0bfG0CyAA0dE7ContextCGmGvau
_globalinit_33_0E0E806659BED3524F8094E31A001C9B_func34
_$s15LarkMessageBase29ThreadChatSubFactoryRegisteryCMa
_$s15LarkMessageBase29ThreadChatSubFactoryRegisteryCMr
_$s15LarkMessageBase13ThreadContextCMa
_$s15LarkMessageBase13ThreadContextCMr
_$s15LarkMessageBase13ThreadContextC0A12OpenPlatform023DynamicContentViewModelE0ADWI
_$s15LarkMessageBase13ThreadContextCAA04PageE0CAA09ViewModelE0AAWl
_$s15LarkMessageBase29ThreadChatSubFactoryRegisteryC8registeryyAA0bfG0CyAA0D7ContextCGmFZ
_$s15LarkMessageBase29ThreadChatSubFactoryRegisteryC12factoryTypes33_69AA29768E3A11492625F0D249E1A3D5LLSayAA0bfG0CyAA0D7ContextCGmGvau
_globalinit_33_69AA29768E3A11492625F0D249E1A3D5_func46
_$s15LarkMessageBase31ThreadDetailSubFactoryRegisteryCMa
_$s15LarkMessageBase31ThreadDetailSubFactoryRegisteryCMr
_$s15LarkMessageBase19ThreadDetailContextCMa
_$s15LarkMessageBase19ThreadDetailContextCMr
_$s15LarkMessageBase19ThreadDetailContextC0A12OpenPlatform023DynamicContentViewModelF0ADWI
_$s15LarkMessageBase19ThreadDetailContextCAA04PageF0CAA09ViewModelF0AAWl
_$s15LarkMessageBase31ThreadDetailSubFactoryRegisteryC8registeryyAA0bfG0CyAA0dE7ContextCGmFZ
_$s15LarkMessageBase31ThreadDetailSubFactoryRegisteryC12factoryTypes33_69AA29768E3A11492625F0D249E1A3D5LLSayAA0bfG0CyAA0dE7ContextCGmGvau
_globalinit_33_69AA29768E3A11492625F0D249E1A3D5_func48
_$s16LarkOpenPlatform0bC8AssemblyC16assemblerAppLink33_E43D6F73AD19917404297E409ECFF610LL8resolvery8Swinject8Resolver_p_tF
_$s16LarkOpenPlatform0bC8AssemblyC18assembleLaunchTask33_E43D6F73AD19917404297E409ECFF610LLyyF
_$s16LarkOpenPlatform20SetupOPInterfaceTaskCMa
_$s16LarkOpenPlatform20SetupOPInterfaceTaskCMr
_$s13LarkContainer8ProviderVy15GadgetInterface19OpenPlatformService_pGMa
_$s15GadgetInterface19OpenPlatformService_pMa
_$s16LarkOpenPlatform20SetupOPInterfaceTaskCAC11BootManager12IdentifiableAAWl
_$s16LarkOpenPlatform20SetupOPInterfaceTaskC11BootManager12IdentifiableAadEP8identifySSvgZTW
_$s16LarkOpenPlatform20SetupOPInterfaceTaskC8identifySSvgZ
_$s16LarkOpenPlatform20SetupOPInterfaceTaskC8identifySSvau
_globalinit_33_E133D1870F0DBCC4582EE3605132B335_func252
_$s16LarkOpenPlatform05SetupbC4TaskCMa
_$s16LarkOpenPlatform05SetupbC4TaskCMr
_$s16LarkOpenPlatform05SetupbC4TaskCAC11BootManager12IdentifiableAAWl
_$s16LarkOpenPlatform05SetupbC4TaskC11BootManager12IdentifiableAadEP8identifySSvgZTW
_$s16LarkOpenPlatform05SetupbC4TaskC8identifySSvgZ
_$s16LarkOpenPlatform05SetupbC4TaskC8identifySSvau
_globalinit_33_93348020159E3072A7782C846517280D_func251
_$s11LarkForward0B12AlertFactoryCMa
_$s16LarkOpenPlatform35SendMessageCardForwardAlertProviderCMa
_$s11LarkForward0B12AlertFactoryC8register4typey0A18MessengerInterface0bC8ProviderCm_tFZ
_$s11LarkForward0B12AlertFactoryC07forwardcD4Type33_DD0E56123637955AD8871A415645A6A7LLSay0A18MessengerInterface0bC8ProviderCmGvau
_globalinit_33_DD0E56123637955AD8871A415645A6A7_func8
_$s22LarkMessengerInterface20ForwardAlertProviderCMa
_$sSay22LarkMessengerInterface20ForwardAlertProviderCmGSayxGSTsWl
_$sSay22LarkMessengerInterface20ForwardAlertProviderCmGMa
_$s22LarkMessengerInterface20ForwardAlertProviderCmMa
_$sSay22LarkMessengerInterface20ForwardAlertProviderCmGWOh
_$s16LarkOpenPlatform31SendMessageCardForwardAlertBodyCMa
_$s16LarkOpenPlatform31SendMessageCardForwardAlertBodyCAC11EENavigator0I0AAWl
_$s16LarkOpenPlatform31SendMessageCardForwardAlertBodyC11EENavigator0I0AaD14URLConvertiblePWb
_$s16LarkOpenPlatform31SendMessageCardForwardAlertBodyCAC11EENavigator14URLConvertibleAAWl
_$s16LarkOpenPlatform31SendMessageCardForwardAlertBodyC11EENavigator0I0AadEP13patternConfigAD07PatternL0VvgZTW
_$s16LarkOpenPlatform31SendMessageCardForwardAlertBodyC11EENavigator05PlainI0AaD0I0PWb
_$s16LarkOpenPlatform31SendMessageCardForwardAlertBodyC11EENavigator05PlainI0AadEP7patternSSvgZTW
_$s16LarkOpenPlatform31SendMessageCardForwardAlertBodyC7patternSSvgZ
_$s16LarkOpenPlatform31SendMessageCardForwardAlertBodyC7patternSSvau
_globalinit_33_E05265DEE49C21FF8B43BBADA27DEA3E_func167
_$s16LarkOpenPlatform0bC8AssemblyC18assembleMenuPlugin33_E43D6F73AD19917404297E409ECFF610LL8resolvery8Swinject8Resolver_p_tF
_$s9LarkUIKit25MenuPluginProviderContextCMa
_$s16LarkOpenPlatform18AppAboutMenuPluginCMa
_$s9LarkUIKit25MenuPluginProviderContextC8providerAcA0cdE0_pXp_tcfC
_$s9LarkUIKit25MenuPluginProviderContextC8providerAcA0cdE0_pXp_tcfc
_$s9LarkUIKit25MenuPluginProviderContextC8provider10parametersAcA0cdE0_pXp_SDySSypGtcfcTo
_$s9LarkUIKit25MenuPluginProviderContextC8provider10parametersAcA0cdE0_pXp_SDySSypGtcfc
_$s9LarkUIKit14MenuPluginPoolCMa
_$s9LarkUIKit14MenuPluginPoolC08registerD8Provider15providerContextyAA0cdgI0C_tFZ
_$s9LarkUIKit14MenuPluginPoolC8rwSignal33_1A7C8DACA20FE6C1B4D9A3CEFC112849LLSo21OS_dispatch_semaphoreCvau
_globalinit_33_1A7C8DACA20FE6C1B4D9A3CEFC112849_func42
_$s9LarkUIKit14MenuPluginPoolC15pluginProviders33_1A7C8DACA20FE6C1B4D9A3CEFC112849LLSDySSAA0cD15ProviderContextCGvau
_globalinit_33_1A7C8DACA20FE6C1B4D9A3CEFC112849_func41
_$s9LarkUIKit25MenuPluginProviderContextC8pluginIDSSvg
_$s16LarkOpenPlatform18AppAboutMenuPluginC8pluginIDSSvgZTo
